acos=0x850a01a0;
acosf=0x85123720;
acosh=0x851c1cc0;
acoshf=0x851f65c0;
asin=0x850c36a0;
asinf=0x851833a0;
asinh=0x85199100;
asinhf=0x851d9840;
atan=0x850d87e0;
atan2=0x850a06e0;
atan2f=0x850c3b20;
atanf=0x85111440;
atanh=0x851c1e60;
atanhf=0x851d9540;
barrier=0x852ea080;
c66_get_round=0x85285d90;
c66_set_round_reg=0x85285d00;
__cache_l1d_16k=0x850990a8;
__cache_l1d_4k=0x85099048;
__cache_l1d_8k=0x85098fe8;
__cache_l1d_all=0x85098fb0;
__cache_l1d_flush=0x85098f64;
__cache_l1d_none=0x85098f0c;
__cache_l1d_size=0x85098eb4;
__cache_l2_128k=0x85098e18;
__cache_l2_256k=0x85098e14;
__cache_l2_32k=0x85098d78;
__cache_l2_512k=0x85098d74;
__cache_l2_64k=0x85098cd8;
__cache_l2_flush=0x85098c8c;
__cache_l2_none=0x85098c34;
__cache_l2_size=0x85098bd4;
cbrt=0x851af1a0;
cbrtf=0x851d99c0;
ceil=0x851c2340;
ceilf=0x85258ec0;
__clock=0x8512efe4;
__clock64=0x8512ef6c;
copysign=0x852ea1a0;
copysignf=0x852ea1c0;
__core_num=0x85098bcc;
cos=0x851d9b40;
cosf=0x85111780;
cosh=0x85198d40;
coshf=0x851d96c0;
cospi=0x8503b26c;
cospif=0x8503ab60;
__cycle_delay=0x8512ef80;
__dmpy_by_0x1p54=0x8520f448;
__dnormalize=0x8520f3e0;
EdmaMgr_alloc=0x851f7880;
EdmaMgr_allocLarge=0x852270a0;
EdmaMgr_copy1D1D=0x85183f80;
EdmaMgr_copy1D1DLinked=0x85210840;
EdmaMgr_copy1D2D=0x8523be20;
EdmaMgr_copy1D2DLarge=0x85143b80;
EdmaMgr_copy1D2DLinked=0x851f79c0;
EdmaMgr_copy2D1D=0x8523bf00;
EdmaMgr_copy2D1DLarge=0x85143e00;
EdmaMgr_copy2D1DLinked=0x851f7b00;
EdmaMgr_copy2D2D=0x8523bfe0;
EdmaMgr_copy2D2DLinked=0x851f7c40;
EdmaMgr_copy2D2DSep=0x8523c0c0;
EdmaMgr_copy2D2DSepLinked=0x851db760;
EdmaMgr_copyFast=0x852739c0;
EdmaMgr_copyLinkedFast=0x8523c1a0;
EdmaMgr_free=0x851c34c0;
EdmaMgr_getSizesLarge=0x852c3000;
EdmaMgr_heap_alloc=0x85273a60;
EdmaMgr_heap_create=0x852a3d20;
EdmaMgr_heap_free=0x85287f20;
EdmaMgr_hwAllocAll=0x8525a500;
EdmaMgr_hwFreeAll=0x8523c280;
EdmaMgr_init=0x8512fe40;
EdmaMgr_wait=0x85287fa0;
erf=0x8502fa30;
erfc=0x8502f200;
erfcf=0x850581c0;
erff=0x85057cc0;
exp=0x850d0640;
exp10=0x852d2b90;
exp10f=0x852d2b80;
exp2=0x851677c0;
exp2f=0x851af360;
__exp__D=0x851191a0;
expf=0x85123a20;
expm1=0x850a3020;
expm1f=0x850ca000;
fdim=0x8523a814;
fdimf=0x8523a7a0;
finite=0x852ea1e0;
floor=0x851af520;
floorf=0x852d2bc0;
fma=0x850886e8;
fmaf=0x85258de0;
fmaf_double=0x852ea140;
fmax=0x8512f204;
fmaxf=0x8512f168;
fmin=0x8512f0a0;
fminf=0x8512f000;
fmod=0x850a0c20;
fmodf=0x8515af00;
__fmpy_by_0x1p24=0x8520f3a0;
__fmpy_by_0x1p25=0x8520f364;
__fnormalize=0x8520f340;
frexp=0x851f64c0;
frexpf=0x851f6460;
frexpl=0x851f64c0;
hypot=0x8513a080;
hypotf=0x852a2620;
__ieee754_rem_pio2=0x8508a4a0;
__ieee754_rem_pio2f=0x8520f200;
ilogb=0x85258fa0;
ilogbf=0x85285ee0;
IRES_NULLRES_PROTOCOLREVISION=0x877d8c04;
__isfinite=0x852d2c50;
__isfinitef=0x852d2c40;
isnan=0x852c0c40;
__isnanf=0x852c0c64;
__isnormal=0x852d2ca0;
__isnormalf=0x852d2c80;
kernel_config_l2=0x87814200;
__kernel_cos=0x8523a5a0;
__kernel_cosdf=0x85285da0;
__kernel_rem_pio2=0x85039ea0;
__kernel_sin=0x8523a6a0;
__kernel_sincos=0x85108440;
__kernel_sincosdf=0x8509c7c0;
__kernel_sindf=0x85285e40;
__kernel_tan=0x8512f2e0;
__kernel_tandf=0x85272a40;
ldexp=0x85110c00;
__ldexp_cexp=0x851f67b4;
__ldexp_cexpf=0x85225a30;
__ldexp_exp=0x851f6774;
__ldexp_expf=0x852259c0;
ldexpf=0x85110a80;
ldexpl=0x85110c00;
lgamma=0x852ea160;
lgammaf=0x852ea180;
lgammaf_r=0x85046860;
lgamma_r=0x85033518;
_local_id_x=0x87812900;
_local_id_y=0x87812980;
_local_id_z=0x87812a00;
log=0x850bf2e0;
log10=0x850f6760;
log10f=0x8515b160;
log1p=0x8509c260;
log1pf=0x850bf780;
log2=0x85107d80;
log2f=0x85167580;
logb=0x85285f80;
logbf=0x85286020;
__log__D=0x85139dd4;
logf=0x851080e0;
maxmag=0x8515ae60;
maxmagf=0x8515add4;
mem_fence=0x852ea280;
__mfence=0x8512ed20;
minmag=0x8515ad30;
minmagf=0x8515aca0;
modf=0x85225ae0;
modff=0x852860c0;
native_divide=0x850c3268;
native_dividef=0x850c3220;
native_recip=0x850fd958;
native_recipf=0x850fd7c0;
native_rsqrt=0x850fddec;
native_rsqrtf=0x850fdd30;
native_sqrt=0x85111370;
native_sqrtf=0x851112ec;
nextafter=0x851992e0;
nextafterf=0x851f6880;
ocl_local_mem_size=0x00100000;
ocl_local_mem_start=0x40400000;
pow=0x8503d100;
powf=0x8504fb20;
pown=0x85110f80;
pownf=0x85110dc0;
powr=0x850e4620;
powrf=0x850e44e0;
read_mem_fence=0x852ea2e0;
reciprocald=0x850fd9e0;
reciprocalf=0x850fd814;
remainder=0x851aee20;
remainderf=0x851c2000;
remquo=0x85082fa0;
remquof=0x85107a20;
rint=0x851994c0;
rintf=0x85286160;
rootn=0x850f65a0;
rootnf=0x850f63c0;
round=0x8523a8a0;
roundf=0x85272b00;
rsqrt=0x850fdc20;
rsqrtf=0x850fdb40;
scalb=0x851c21a0;
scalbn=0x851d9cc0;
scalbnf=0x851f69e0;
__scratch_l1d_size=0x85098bb4;
__scratch_l1d_start=0x85098ba4;
__scratch_l2_size=0x85098b90;
__scratch_l2_start=0x85098b80;
signgam=0x877d98e4;
sin=0x851d9e40;
sincos=0x85108600;
sincosf=0x8509c8c0;
sinf=0x851194c0;
sinh=0x85198f20;
sinhf=0x851aefe0;
sinpi=0x8503b4a8;
sinpif=0x8503ad64;
sqrt=0x851111c0;
sqrtf=0x85111100;
tan=0x8523a9a0;
tanf=0x85167a00;
tanh=0x851766e0;
tanhf=0x851d9fc0;
tanpi=0x8503b7b0;
tanpif=0x8503b058;
tgamma=0x85039d00;
tgammaf=0x852ea200;
__touch=0x852c0be0;
trunc=0x85225c00;
truncf=0x852d2c00;
write_mem_fence=0x852eb500;
_Z10atomic_addPVU7CLlocalii=0x852d5960;
_Z10atomic_addPVU7CLlocaljj=0x852d5980;
_Z10atomic_addPVU8CLglobalii=0x852a4bc0;
_Z10atomic_addPVU8CLglobaljj=0x852a4c20;
_Z10atomic_andPVU7CLlocalii=0x852d59a0;
_Z10atomic_andPVU7CLlocaljj=0x852d59c0;
_Z10atomic_andPVU8CLglobalii=0x852a4c80;
_Z10atomic_andPVU8CLglobaljj=0x852a4ce0;
_Z10atomic_decPVU7CLlocali=0x852d59e0;
_Z10atomic_decPVU7CLlocalj=0x852d5a00;
_Z10atomic_decPVU8CLglobali=0x852a4d40;
_Z10atomic_decPVU8CLglobalj=0x852a4da0;
_Z10atomic_incPVU7CLlocali=0x852d5a20;
_Z10atomic_incPVU7CLlocalj=0x852d5a40;
_Z10atomic_incPVU8CLglobali=0x852a4e00;
_Z10atomic_incPVU8CLglobalj=0x852a4e60;
_Z10atomic_maxPVU7CLlocalii=0x852d5a60;
_Z10atomic_maxPVU7CLlocaljj=0x852d5a80;
_Z10atomic_maxPVU8CLglobalii=0x852a4ec0;
_Z10atomic_maxPVU8CLglobaljj=0x852a4f20;
_Z10atomic_minPVU7CLlocalii=0x852d5aa0;
_Z10atomic_minPVU7CLlocaljj=0x852d5ac0;
_Z10atomic_minPVU8CLglobalii=0x852a4f80;
_Z10atomic_minPVU8CLglobaljj=0x852a4fe0;
_Z10atomic_subPVU7CLlocalii=0x852d5ae0;
_Z10atomic_subPVU7CLlocaljj=0x852d5b00;
_Z10atomic_subPVU8CLglobalii=0x852a5040;
_Z10atomic_subPVU8CLglobaljj=0x852a50a0;
_Z10atomic_xorPVU7CLlocalii=0x852d5b20;
_Z10atomic_xorPVU7CLlocaljj=0x852d5b40;
_Z10atomic_xorPVU8CLglobalii=0x852a5100;
_Z10atomic_xorPVU8CLglobaljj=0x852a5160;
_Z10isnotequalDv16_dS_=0x850424e0;
_Z10isnotequalDv16_fS_=0x851c4540;
_Z10isnotequalDv2_dS_=0x85212460;
_Z10isnotequalDv2_fS_=0x852d5b60;
_Z10isnotequalDv3_dS_=0x85177da0;
_Z10isnotequalDv3_fS_=0x852c3e40;
_Z10isnotequalDv4_dS_=0x8513a8a0;
_Z10isnotequalDv4_fS_=0x852c3e80;
_Z10isnotequalDv8_dS_=0x850af560;
_Z10isnotequalDv8_fS_=0x8523da20;
_Z10reciprocalDv16_d=0x850e5780;
_Z10reciprocalDv16_f=0x85185060;
_Z10reciprocalDv2_d=0x852c3ec0;
_Z10reciprocalDv2_f=0x852c3f00;
_Z10reciprocalDv3_d=0x8525b700;
_Z10reciprocalDv3_f=0x852a51c0;
_Z10reciprocalDv4_d=0x8523db00;
_Z10reciprocalDv4_f=0x852a5220;
_Z10reciprocalDv8_d=0x851dd020;
_Z10reciprocalDv8_f=0x852282a0;
_Z10smoothstepddd=0x85289020;
_Z10smoothstepddDv16_d=0x8507e720;
_Z10smoothstepddDv2_d=0x8523dbe0;
_Z10smoothstepddDv3_d=0x851c46c0;
_Z10smoothstepddDv4_d=0x85185420;
_Z10smoothstepddDv8_d=0x85112440;
_Z10smoothstepDv16_dS_S_=0x850769e0;
_Z10smoothstepDv16_fS_S_=0x8509d260;
_Z10smoothstepDv2_dS_S_=0x85212580;
_Z10smoothstepDv2_fS_S_=0x8525b7c0;
_Z10smoothstepDv3_dS_S_=0x851b2900;
_Z10smoothstepDv3_fS_S_=0x852283a0;
_Z10smoothstepDv4_dS_S_=0x85185240;
_Z10smoothstepDv4_fS_S_=0x851f9180;
_Z10smoothstepDv8_dS_S_=0x8511a120;
_Z10smoothstepDv8_fS_S_=0x85144300;
_Z10smoothstepffDv16_f=0x850b8880;
_Z10smoothstepffDv2_f=0x8525b880;
_Z10smoothstepffDv3_f=0x852284a0;
_Z10smoothstepffDv4_f=0x852126a0;
_Z10smoothstepffDv8_f=0x8515d140;
_Z10smoothstepfff=0x852890a0;
_Z10vload_halfjPKDh=0x8523dcc0;
_Z10vload_halfjPKU10CLconstantDh=0x8523dda0;
_Z10vload_halfjPKU7CLlocalDh=0x8523de80;
_Z10vload_halfjPKU8CLglobalDh=0x8523df60;
_Z11atomic_xchgPVU7CLlocalff=0x852d5b80;
_Z11atomic_xchgPVU7CLlocalii=0x852d5ba0;
_Z11atomic_xchgPVU7CLlocaljj=0x852d5bc0;
_Z11atomic_xchgPVU8CLglobalff=0x852a5280;
_Z11atomic_xchgPVU8CLglobalii=0x852a52e0;
_Z11atomic_xchgPVU8CLglobaljj=0x852a5340;
_Z11convert_intc=0x852d5be0;
_Z11convert_intd=0x852d5c00;
_Z11convert_intf=0x852d5c20;
_Z11convert_inth=0x852d5c40;
_Z11convert_inti=0x852d5c60;
_Z11convert_intj=0x852d5c80;
_Z11convert_intl=0x852d5ca0;
_Z11convert_intm=0x852d5cc0;
_Z11convert_ints=0x852d5ce0;
_Z11convert_intt=0x852d5d00;
_Z11fast_lengthDv2_d=0x852d5d20;
_Z11fast_lengthDv2_f=0x852d5d40;
_Z11fast_lengthDv3_d=0x85289120;
_Z11fast_lengthDv3_f=0x852c3f40;
_Z11fast_lengthDv4_d=0x852891a0;
_Z11fast_lengthDv4_f=0x852c3f80;
_Z11islessequalDv16_dS_=0x85029de0;
_Z11islessequalDv16_fS_=0x851b2aa0;
_Z11islessequalDv2_dS_=0x8519ac20;
_Z11islessequalDv2_fS_=0x852d5d60;
_Z11islessequalDv3_dS_=0x85131440;
_Z11islessequalDv3_fS_=0x852c3fc0;
_Z11islessequalDv4_dS_=0x850da380;
_Z11islessequalDv4_fS_=0x852c4000;
_Z11islessequalDv8_dS_=0x8506d4e0;
_Z11islessequalDv8_fS_=0x852285a0;
_Z11vload_half2jPKDh=0x85185600;
_Z11vload_half2jPKU10CLconstantDh=0x851857e0;
_Z11vload_half2jPKU7CLlocalDh=0x851859c0;
_Z11vload_half2jPKU8CLglobalDh=0x85185ba0;
_Z11vload_half3jPKDh=0x85131700;
_Z11vload_half3jPKU10CLconstantDh=0x851319c0;
_Z11vload_half3jPKU7CLlocalDh=0x85131c80;
_Z11vload_half3jPKU8CLglobalDh=0x85131f40;
_Z11vload_half4jPKDh=0x852a53a0;
_Z11vload_half4jPKU10CLconstantDh=0x852a5400;
_Z11vload_half4jPKU7CLlocalDh=0x852a5460;
_Z11vload_half4jPKU8CLglobalDh=0x852a54c0;
_Z11vload_half8jPKDh=0x8523e040;
_Z11vload_half8jPKU10CLconstantDh=0x8523e120;
_Z11vload_half8jPKU7CLlocalDh=0x8523e200;
_Z11vload_half8jPKU8CLglobalDh=0x8523e2e0;
_Z11vstore_halffjPDh=0x8525ba00;
_Z11vstore_halffjPU7CLlocalDh=0x8525bac0;
_Z11vstore_halffjPU8CLglobalDh=0x8525bb80;
_Z12convert_charc=0x852d5d80;
_Z12convert_chard=0x852d5da0;
_Z12convert_charf=0x852d5dc0;
_Z12convert_charh=0x852d5de0;
_Z12convert_chari=0x852d5e00;
_Z12convert_charj=0x852d5e20;
_Z12convert_charl=0x852d5e40;
_Z12convert_charm=0x852d5e60;
_Z12convert_chars=0x852d5e80;
_Z12convert_chart=0x852d5ea0;
_Z12convert_int2Dv2_c=0x852d5ec0;
_Z12convert_int2Dv2_d=0x852d5ee0;
_Z12convert_int2Dv2_f=0x852d5f00;
_Z12convert_int2Dv2_h=0x852d5f20;
_Z12convert_int2Dv2_i=0x852d5f40;
_Z12convert_int2Dv2_j=0x852d5f60;
_Z12convert_int2Dv2_l=0x852d5f80;
_Z12convert_int2Dv2_m=0x852d5fa0;
_Z12convert_int2Dv2_s=0x852d5fc0;
_Z12convert_int2Dv2_t=0x852d5fe0;
_Z12convert_int3Dv3_c=0x852d6000;
_Z12convert_int3Dv3_d=0x852c4040;
_Z12convert_int3Dv3_f=0x852d6020;
_Z12convert_int3Dv3_h=0x852d6040;
_Z12convert_int3Dv3_i=0x852d6060;
_Z12convert_int3Dv3_j=0x852d6080;
_Z12convert_int3Dv3_l=0x852d60a0;
_Z12convert_int3Dv3_m=0x852d60c0;
_Z12convert_int3Dv3_s=0x852d60e0;
_Z12convert_int3Dv3_t=0x852d6100;
_Z12convert_int4Dv4_c=0x852c4080;
_Z12convert_int4Dv4_d=0x852c40c0;
_Z12convert_int4Dv4_f=0x852c4100;
_Z12convert_int4Dv4_h=0x852c4140;
_Z12convert_int4Dv4_i=0x852d6120;
_Z12convert_int4Dv4_j=0x852d6140;
_Z12convert_int4Dv4_l=0x852d6160;
_Z12convert_int4Dv4_m=0x852d6180;
_Z12convert_int4Dv4_s=0x852d61a0;
_Z12convert_int4Dv4_t=0x852d61c0;
_Z12convert_int8Dv8_c=0x85289220;
_Z12convert_int8Dv8_d=0x852743c0;
_Z12convert_int8Dv8_f=0x852892a0;
_Z12convert_int8Dv8_h=0x85289320;
_Z12convert_int8Dv8_i=0x852a5520;
_Z12convert_int8Dv8_j=0x852a5580;
_Z12convert_int8Dv8_l=0x852a55e0;
_Z12convert_int8Dv8_m=0x852a5640;
_Z12convert_int8Dv8_s=0x852893a0;
_Z12convert_int8Dv8_t=0x85289420;
_Z12convert_longc=0x852d61e0;
_Z12convert_longd=0x852d6200;
_Z12convert_longf=0x852d6220;
_Z12convert_longh=0x852d6240;
_Z12convert_longi=0x852d6260;
_Z12convert_longj=0x852d6280;
_Z12convert_longl=0x852d62a0;
_Z12convert_longm=0x852d62c0;
_Z12convert_longs=0x852d62e0;
_Z12convert_longt=0x852d6300;
_Z12convert_uintc=0x852d6320;
_Z12convert_uintd=0x852d6340;
_Z12convert_uintf=0x852d6360;
_Z12convert_uinth=0x852d6380;
_Z12convert_uinti=0x852d63a0;
_Z12convert_uintj=0x852d63c0;
_Z12convert_uintl=0x852d63e0;
_Z12convert_uintm=0x852d6400;
_Z12convert_uints=0x852d6420;
_Z12convert_uintt=0x852d6440;
_Z12native_recipDv16_d=0x850e5b20;
_Z12native_recipDv16_f=0x85185d80;
_Z12native_recipDv2_d=0x852c4180;
_Z12native_recipDv2_f=0x852c41c0;
_Z12native_recipDv3_d=0x8525bc40;
_Z12native_recipDv3_f=0x852a56a0;
_Z12native_recipDv4_d=0x8523e3c0;
_Z12native_recipDv4_f=0x852a5700;
_Z12native_recipDv8_d=0x851dd180;
_Z12native_recipDv8_f=0x852286a0;
_Z12native_rsqrtDv16_d=0x850e5ec0;
_Z12native_rsqrtDv16_f=0x85185f60;
_Z12native_rsqrtDv2_d=0x852c4200;
_Z12native_rsqrtDv2_f=0x852c4240;
_Z12native_rsqrtDv3_d=0x8525bd00;
_Z12native_rsqrtDv3_f=0x852a5760;
_Z12native_rsqrtDv4_d=0x8523e4a0;
_Z12native_rsqrtDv4_f=0x852a57c0;
_Z12native_rsqrtDv8_d=0x851dd2e0;
_Z12native_rsqrtDv8_f=0x852287a0;
_Z12vloada_half3jPKDh=0x851251e0;
_Z12vloada_half3jPKU10CLconstantDh=0x851254c0;
_Z12vloada_half3jPKU7CLlocalDh=0x851257a0;
_Z12vloada_half3jPKU8CLglobalDh=0x85125a80;
_Z12vload_half16jPKDh=0x851f92c0;
_Z12vload_half16jPKU10CLconstantDh=0x851f9400;
_Z12vload_half16jPKU7CLlocalDh=0x851f9540;
_Z12vload_half16jPKU8CLglobalDh=0x851f9680;
_Z12vstorea_halffjPDh=0x8525bdc0;
_Z12vstorea_halffjPU7CLlocalDh=0x8525be80;
_Z12vstorea_halffjPU8CLglobalDh=0x8525bf40;
_Z12vstore_half2Dv2_fjPDh=0x851c4840;
_Z12vstore_half2Dv2_fjPU7CLlocalDh=0x851c49c0;
_Z12vstore_half2Dv2_fjPU8CLglobalDh=0x851c4b40;
_Z12vstore_half3Dv3_fjPDh=0x85169d00;
_Z12vstore_half3Dv3_fjPU7CLlocalDh=0x85169f20;
_Z12vstore_half3Dv3_fjPU8CLglobalDh=0x8516a140;
_Z12vstore_half4Dv4_fjPDh=0x851c4cc0;
_Z12vstore_half4Dv4_fjPU7CLlocalDh=0x852c4280;
_Z12vstore_half4Dv4_fjPU8CLglobalDh=0x852c42c0;
_Z12vstore_half8Dv8_fjPDh=0x85274460;
_Z12vstore_half8Dv8_fjPU7CLlocalDh=0x85274500;
_Z12vstore_half8Dv8_fjPU8CLglobalDh=0x852745a0;
_Z13convert_char2Dv2_c=0x852d6460;
_Z13convert_char2Dv2_d=0x852d6480;
_Z13convert_char2Dv2_f=0x852d64a0;
_Z13convert_char2Dv2_h=0x852d64c0;
_Z13convert_char2Dv2_i=0x852d64e0;
_Z13convert_char2Dv2_j=0x852d6500;
_Z13convert_char2Dv2_l=0x852d6520;
_Z13convert_char2Dv2_m=0x852d6540;
_Z13convert_char2Dv2_s=0x852d6560;
_Z13convert_char2Dv2_t=0x852d6580;
_Z13convert_char3Dv3_c=0x852d65a0;
_Z13convert_char3Dv3_d=0x852a5820;
_Z13convert_char3Dv3_f=0x852d65c0;
_Z13convert_char3Dv3_h=0x852d65e0;
_Z13convert_char3Dv3_i=0x852d6600;
_Z13convert_char3Dv3_j=0x852d6620;
_Z13convert_char3Dv3_l=0x852a5880;
_Z13convert_char3Dv3_m=0x852a58e0;
_Z13convert_char3Dv3_s=0x852d6640;
_Z13convert_char3Dv3_t=0x852d6660;
_Z13convert_char4Dv4_c=0x852d6680;
_Z13convert_char4Dv4_d=0x852a5940;
_Z13convert_char4Dv4_f=0x852d66a0;
_Z13convert_char4Dv4_h=0x852d66c0;
_Z13convert_char4Dv4_i=0x852d66e0;
_Z13convert_char4Dv4_j=0x852d6700;
_Z13convert_char4Dv4_l=0x852a59a0;
_Z13convert_char4Dv4_m=0x852a5a00;
_Z13convert_char4Dv4_s=0x852d6720;
_Z13convert_char4Dv4_t=0x852d6740;
_Z13convert_char8Dv8_c=0x852d6760;
_Z13convert_char8Dv8_d=0x85274640;
_Z13convert_char8Dv8_f=0x852894a0;
_Z13convert_char8Dv8_h=0x852d6780;
_Z13convert_char8Dv8_i=0x852a5a60;
_Z13convert_char8Dv8_j=0x852a5ac0;
_Z13convert_char8Dv8_l=0x85289520;
_Z13convert_char8Dv8_m=0x852895a0;
_Z13convert_char8Dv8_s=0x852d67a0;
_Z13convert_char8Dv8_t=0x852d67c0;
_Z13convert_floatc=0x852d67e0;
_Z13convert_floatd=0x852a5b20;
_Z13convert_floatf=0x852d6800;
_Z13convert_floath=0x852d6820;
_Z13convert_floati=0x852d6840;
_Z13convert_floatj=0x852d6860;
_Z13convert_floatl=0x852d6880;
_Z13convert_floatm=0x852d68a0;
_Z13convert_floats=0x852d68c0;
_Z13convert_floatt=0x852d68e0;
_Z13convert_int16Dv16_c=0x8523e580;
_Z13convert_int16Dv16_d=0x852288a0;
_Z13convert_int16Dv16_f=0x8523e660;
_Z13convert_int16Dv16_h=0x8523e740;
_Z13convert_int16Dv16_i=0x852a5b80;
_Z13convert_int16Dv16_j=0x852746e0;
_Z13convert_int16Dv16_l=0x8525c000;
_Z13convert_int16Dv16_m=0x8525c0c0;
_Z13convert_int16Dv16_s=0x8525c180;
_Z13convert_int16Dv16_t=0x8525c240;
_Z13convert_long2Dv2_c=0x852c4300;
_Z13convert_long2Dv2_d=0x852a5be0;
_Z13convert_long2Dv2_f=0x852a5c40;
_Z13convert_long2Dv2_h=0x852d6900;
_Z13convert_long2Dv2_i=0x852d6920;
_Z13convert_long2Dv2_j=0x852d6940;
_Z13convert_long2Dv2_l=0x852d6960;
_Z13convert_long2Dv2_m=0x852d6980;
_Z13convert_long2Dv2_s=0x852d69a0;
_Z13convert_long2Dv2_t=0x852d69c0;
_Z13convert_long3Dv3_c=0x85289620;
_Z13convert_long3Dv3_d=0x8525c300;
_Z13convert_long3Dv3_f=0x8525c3c0;
_Z13convert_long3Dv3_h=0x852896a0;
_Z13convert_long3Dv3_i=0x852a5ca0;
_Z13convert_long3Dv3_j=0x852a5d00;
_Z13convert_long3Dv3_l=0x852a5d60;
_Z13convert_long3Dv3_m=0x852a5dc0;
_Z13convert_long3Dv3_s=0x852a5e20;
_Z13convert_long3Dv3_t=0x852a5e80;
_Z13convert_long4Dv4_c=0x85289720;
_Z13convert_long4Dv4_d=0x8523e820;
_Z13convert_long4Dv4_f=0x852289a0;
_Z13convert_long4Dv4_h=0x852897a0;
_Z13convert_long4Dv4_i=0x85289820;
_Z13convert_long4Dv4_j=0x852898a0;
_Z13convert_long4Dv4_l=0x852a5ee0;
_Z13convert_long4Dv4_m=0x852a5f40;
_Z13convert_long4Dv4_s=0x85289920;
_Z13convert_long4Dv4_t=0x852899a0;
_Z13convert_long8Dv8_c=0x8523e900;
_Z13convert_long8Dv8_d=0x851dd440;
_Z13convert_long8Dv8_f=0x851dd5a0;
_Z13convert_long8Dv8_h=0x8523e9e0;
_Z13convert_long8Dv8_i=0x8525c480;
_Z13convert_long8Dv8_j=0x8523eac0;
_Z13convert_long8Dv8_l=0x852a5fa0;
_Z13convert_long8Dv8_m=0x85228aa0;
_Z13convert_long8Dv8_s=0x8523eba0;
_Z13convert_long8Dv8_t=0x8525c540;
_Z13convert_shortc=0x852d69e0;
_Z13convert_shortd=0x852d6a00;
_Z13convert_shortf=0x852d6a20;
_Z13convert_shorth=0x852d6a40;
_Z13convert_shorti=0x852d6a60;
_Z13convert_shortj=0x852d6a80;
_Z13convert_shortl=0x852d6aa0;
_Z13convert_shortm=0x852d6ac0;
_Z13convert_shorts=0x852d6ae0;
_Z13convert_shortt=0x852d6b00;
_Z13convert_ucharc=0x852d6b20;
_Z13convert_uchard=0x852d6b40;
_Z13convert_ucharf=0x852d6b60;
_Z13convert_ucharh=0x852d6b80;
_Z13convert_uchari=0x852d6ba0;
_Z13convert_ucharj=0x852d6bc0;
_Z13convert_ucharl=0x852d6be0;
_Z13convert_ucharm=0x852d6c00;
_Z13convert_uchars=0x852d6c20;
_Z13convert_uchart=0x852d6c40;
_Z13convert_uint2Dv2_c=0x852d6c60;
_Z13convert_uint2Dv2_d=0x852a6000;
_Z13convert_uint2Dv2_f=0x852a6060;
_Z13convert_uint2Dv2_h=0x852d6c80;
_Z13convert_uint2Dv2_i=0x852d6ca0;
_Z13convert_uint2Dv2_j=0x852d6cc0;
_Z13convert_uint2Dv2_l=0x852d6ce0;
_Z13convert_uint2Dv2_m=0x852d6d00;
_Z13convert_uint2Dv2_s=0x852d6d20;
_Z13convert_uint2Dv2_t=0x852d6d40;
_Z13convert_uint3Dv3_c=0x852d6d60;
_Z13convert_uint3Dv3_d=0x852a60c0;
_Z13convert_uint3Dv3_f=0x85289a20;
_Z13convert_uint3Dv3_h=0x852d6d80;
_Z13convert_uint3Dv3_i=0x852d6da0;
_Z13convert_uint3Dv3_j=0x852d6dc0;
_Z13convert_uint3Dv3_l=0x852d6de0;
_Z13convert_uint3Dv3_m=0x852d6e00;
_Z13convert_uint3Dv3_s=0x852d6e20;
_Z13convert_uint3Dv3_t=0x852d6e40;
_Z13convert_uint4Dv4_c=0x852c4340;
_Z13convert_uint4Dv4_d=0x85289aa0;
_Z13convert_uint4Dv4_f=0x85289b20;
_Z13convert_uint4Dv4_h=0x852c4380;
_Z13convert_uint4Dv4_i=0x852d6e60;
_Z13convert_uint4Dv4_j=0x852d6e80;
_Z13convert_uint4Dv4_l=0x852d6ea0;
_Z13convert_uint4Dv4_m=0x852d6ec0;
_Z13convert_uint4Dv4_s=0x852d6ee0;
_Z13convert_uint4Dv4_t=0x852d6f00;
_Z13convert_uint8Dv8_c=0x85289ba0;
_Z13convert_uint8Dv8_d=0x852127c0;
_Z13convert_uint8Dv8_f=0x852128e0;
_Z13convert_uint8Dv8_h=0x85289c20;
_Z13convert_uint8Dv8_i=0x852a6120;
_Z13convert_uint8Dv8_j=0x852a6180;
_Z13convert_uint8Dv8_l=0x852a61e0;
_Z13convert_uint8Dv8_m=0x852a6240;
_Z13convert_uint8Dv8_s=0x85289ca0;
_Z13convert_uint8Dv8_t=0x85289d20;
_Z13convert_ulongc=0x852d6f20;
_Z13convert_ulongd=0x852d6f40;
_Z13convert_ulongf=0x852d6f60;
_Z13convert_ulongh=0x852d6f80;
_Z13convert_ulongi=0x852d6fa0;
_Z13convert_ulongj=0x852d6fc0;
_Z13convert_ulongl=0x852d6fe0;
_Z13convert_ulongm=0x852d7000;
_Z13convert_ulongs=0x852d7020;
_Z13convert_ulongt=0x852d7040;
_Z13islessgreaterDv16_dS_=0x850099e0;
_Z13islessgreaterDv16_fS_=0x85132200;
_Z13islessgreaterDv2_dS_=0x850fe900;
_Z13islessgreaterDv2_fS_=0x852c43c0;
_Z13islessgreaterDv3_dS_=0x85090880;
_Z13islessgreaterDv3_fS_=0x852a62a0;
_Z13islessgreaterDv4_dS_=0x8506a620;
_Z13islessgreaterDv4_fS_=0x85274780;
_Z13islessgreaterDv8_dS_=0x8502af60;
_Z13islessgreaterDv8_fS_=0x851b2c40;
_Z13native_divideDv16_d=0x850e6260;
_Z13native_divideDv16_f=0x85186140;
_Z13native_divideDv2_d=0x852c4400;
_Z13native_divideDv2_f=0x852c4440;
_Z13native_divideDv3_d=0x8525c600;
_Z13native_divideDv3_f=0x852a6300;
_Z13native_divideDv4_d=0x8523ec80;
_Z13native_divideDv4_f=0x852a6360;
_Z13native_divideDv8_d=0x851dd700;
_Z13native_divideDv8_f=0x85228ba0;
_Z13vstorea_half2Dv2_fjPDh=0x852d7060;
_Z13vstorea_half2Dv2_fjPU7CLlocalDh=0x852d7080;
_Z13vstorea_half2Dv2_fjPU8CLglobalDh=0x852d70a0;
_Z13vstorea_half3Dv3_fjPDh=0x8516a360;
_Z13vstorea_half3Dv3_fjPU7CLlocalDh=0x8516a580;
_Z13vstorea_half3Dv3_fjPU8CLglobalDh=0x8516a7a0;
_Z13vstorea_half4Dv4_fjPDh=0x852c4480;
_Z13vstorea_half4Dv4_fjPU7CLlocalDh=0x852c44c0;
_Z13vstorea_half4Dv4_fjPU8CLglobalDh=0x852c4500;
_Z13vstorea_half8Dv8_fjPDh=0x85274820;
_Z13vstorea_half8Dv8_fjPU7CLlocalDh=0x852748c0;
_Z13vstorea_half8Dv8_fjPU8CLglobalDh=0x85274960;
_Z13vstore_half16Dv16_fjPDh=0x851f97c0;
_Z13vstore_half16Dv16_fjPU7CLlocalDh=0x851f9900;
_Z13vstore_half16Dv16_fjPU8CLglobalDh=0x851f9a40;
_Z14atomic_cmpxchgPVU7CLlocaliii=0x852d70c0;
_Z14atomic_cmpxchgPVU7CLlocaljjj=0x852d70e0;
_Z14atomic_cmpxchgPVU8CLglobaliii=0x852a63c0;
_Z14atomic_cmpxchgPVU8CLglobaljjj=0x852a6420;
_Z14convert_char16Dv16_c=0x852d7100;
_Z14convert_char16Dv16_d=0x8525c6c0;
_Z14convert_char16Dv16_f=0x85274a00;
_Z14convert_char16Dv16_h=0x852d7120;
_Z14convert_char16Dv16_i=0x852a6480;
_Z14convert_char16Dv16_j=0x852a64e0;
_Z14convert_char16Dv16_l=0x85274aa0;
_Z14convert_char16Dv16_m=0x85274b40;
_Z14convert_char16Dv16_s=0x85289da0;
_Z14convert_char16Dv16_t=0x85289e20;
_Z14convert_doublec=0x852d7140;
_Z14convert_doubled=0x852d7160;
_Z14convert_doublef=0x852d7180;
_Z14convert_doubleh=0x852d71a0;
_Z14convert_doublei=0x852d71c0;
_Z14convert_doublej=0x852d71e0;
_Z14convert_doublel=0x852d7200;
_Z14convert_doublem=0x852d7220;
_Z14convert_doubles=0x852d7240;
_Z14convert_doublet=0x852d7260;
_Z14convert_float2Dv2_c=0x852d7280;
_Z14convert_float2Dv2_d=0x8525c780;
_Z14convert_float2Dv2_f=0x852d72a0;
_Z14convert_float2Dv2_h=0x852d72c0;
_Z14convert_float2Dv2_i=0x852d72e0;
_Z14convert_float2Dv2_j=0x852d7300;
_Z14convert_float2Dv2_l=0x852c4540;
_Z14convert_float2Dv2_m=0x852c4580;
_Z14convert_float2Dv2_s=0x852d7320;
_Z14convert_float2Dv2_t=0x852d7340;
_Z14convert_float3Dv3_c=0x852c45c0;
_Z14convert_float3Dv3_d=0x851dd860;
_Z14convert_float3Dv3_f=0x852d7360;
_Z14convert_float3Dv3_h=0x852c4600;
_Z14convert_float3Dv3_i=0x852d7380;
_Z14convert_float3Dv3_j=0x852d73a0;
_Z14convert_float3Dv3_l=0x852a6540;
_Z14convert_float3Dv3_m=0x852a65a0;
_Z14convert_float3Dv3_s=0x852d73c0;
_Z14convert_float3Dv3_t=0x852d73e0;
_Z14convert_float4Dv4_c=0x852c4640;
_Z14convert_float4Dv4_d=0x85177fa0;
_Z14convert_float4Dv4_f=0x852d7400;
_Z14convert_float4Dv4_h=0x852c4680;
_Z14convert_float4Dv4_i=0x852c46c0;
_Z14convert_float4Dv4_j=0x852c4700;
_Z14convert_float4Dv4_l=0x85289ea0;
_Z14convert_float4Dv4_m=0x85289f20;
_Z14convert_float4Dv4_s=0x852c4740;
_Z14convert_float4Dv4_t=0x852c4780;
_Z14convert_float8Dv8_c=0x85274be0;
_Z14convert_float8Dv8_d=0x85080f40;
_Z14convert_float8Dv8_f=0x852a6600;
_Z14convert_float8Dv8_h=0x85274c80;
_Z14convert_float8Dv8_i=0x85289fa0;
_Z14convert_float8Dv8_j=0x8528a020;
_Z14convert_float8Dv8_l=0x851f9b80;
_Z14convert_float8Dv8_m=0x851f9cc0;
_Z14convert_float8Dv8_s=0x8528a0a0;
_Z14convert_float8Dv8_t=0x85274d20;
_Z14convert_long16Dv16_c=0x8519ade0;
_Z14convert_long16Dv16_d=0x85112760;
_Z14convert_long16Dv16_f=0x850fec60;
_Z14convert_long16Dv16_h=0x8519afa0;
_Z14convert_long16Dv16_i=0x851c4e40;
_Z14convert_long16Dv16_j=0x851c4fc0;
_Z14convert_long16Dv16_l=0x852a6660;
_Z14convert_long16Dv16_m=0x85186320;
_Z14convert_long16Dv16_s=0x851c5140;
_Z14convert_long16Dv16_t=0x851dd9c0;
_Z14convert_short2Dv2_c=0x852d7420;
_Z14convert_short2Dv2_d=0x852d7440;
_Z14convert_short2Dv2_f=0x852d7460;
_Z14convert_short2Dv2_h=0x852d7480;
_Z14convert_short2Dv2_i=0x852d74a0;
_Z14convert_short2Dv2_j=0x852d74c0;
_Z14convert_short2Dv2_l=0x852d74e0;
_Z14convert_short2Dv2_m=0x852d7500;
_Z14convert_short2Dv2_s=0x852d7520;
_Z14convert_short2Dv2_t=0x852d7540;
_Z14convert_short3Dv3_c=0x852d7560;
_Z14convert_short3Dv3_d=0x852a66c0;
_Z14convert_short3Dv3_f=0x852d7580;
_Z14convert_short3Dv3_h=0x852d75a0;
_Z14convert_short3Dv3_i=0x852d75c0;
_Z14convert_short3Dv3_j=0x852d75e0;
_Z14convert_short3Dv3_l=0x852c47c0;
_Z14convert_short3Dv3_m=0x852c4800;
_Z14convert_short3Dv3_s=0x852d7600;
_Z14convert_short3Dv3_t=0x852d7620;
_Z14convert_short4Dv4_c=0x852d7640;
_Z14convert_short4Dv4_d=0x852a6720;
_Z14convert_short4Dv4_f=0x852d7660;
_Z14convert_short4Dv4_h=0x852d7680;
_Z14convert_short4Dv4_i=0x852d76a0;
_Z14convert_short4Dv4_j=0x852d76c0;
_Z14convert_short4Dv4_l=0x852c4840;
_Z14convert_short4Dv4_m=0x852c4880;
_Z14convert_short4Dv4_s=0x852d76e0;
_Z14convert_short4Dv4_t=0x852d7700;
_Z14convert_short8Dv8_c=0x852a6780;
_Z14convert_short8Dv8_d=0x852a67e0;
_Z14convert_short8Dv8_f=0x852a6840;
_Z14convert_short8Dv8_h=0x852a68a0;
_Z14convert_short8Dv8_i=0x852c48c0;
_Z14convert_short8Dv8_j=0x852c4900;
_Z14convert_short8Dv8_l=0x852c4940;
_Z14convert_short8Dv8_m=0x852c4980;
_Z14convert_short8Dv8_s=0x852d7720;
_Z14convert_short8Dv8_t=0x852d7740;
_Z14convert_uchar2Dv2_c=0x852d7760;
_Z14convert_uchar2Dv2_d=0x852a6900;
_Z14convert_uchar2Dv2_f=0x852a6960;
_Z14convert_uchar2Dv2_h=0x852d7780;
_Z14convert_uchar2Dv2_i=0x852d77a0;
_Z14convert_uchar2Dv2_j=0x852d77c0;
_Z14convert_uchar2Dv2_l=0x852d77e0;
_Z14convert_uchar2Dv2_m=0x852d7800;
_Z14convert_uchar2Dv2_s=0x852d7820;
_Z14convert_uchar2Dv2_t=0x852d7840;
_Z14convert_uchar3Dv3_c=0x852d7860;
_Z14convert_uchar3Dv3_d=0x85274dc0;
_Z14convert_uchar3Dv3_f=0x8528a120;
_Z14convert_uchar3Dv3_h=0x852d7880;
_Z14convert_uchar3Dv3_i=0x852d78a0;
_Z14convert_uchar3Dv3_j=0x852d78c0;
_Z14convert_uchar3Dv3_l=0x852a69c0;
_Z14convert_uchar3Dv3_m=0x852a6a20;
_Z14convert_uchar3Dv3_s=0x852d78e0;
_Z14convert_uchar3Dv3_t=0x852d7900;
_Z14convert_uchar4Dv4_c=0x852d7920;
_Z14convert_uchar4Dv4_d=0x85274e60;
_Z14convert_uchar4Dv4_f=0x85274f00;
_Z14convert_uchar4Dv4_h=0x852d7940;
_Z14convert_uchar4Dv4_i=0x852d7960;
_Z14convert_uchar4Dv4_j=0x852d7980;
_Z14convert_uchar4Dv4_l=0x852a6a80;
_Z14convert_uchar4Dv4_m=0x852a6ae0;
_Z14convert_uchar4Dv4_s=0x852d79a0;
_Z14convert_uchar4Dv4_t=0x852d79c0;
_Z14convert_uchar8Dv8_c=0x852d79e0;
_Z14convert_uchar8Dv8_d=0x851f9e00;
_Z14convert_uchar8Dv8_f=0x851ddb20;
_Z14convert_uchar8Dv8_h=0x852d7a00;
_Z14convert_uchar8Dv8_i=0x852a6b40;
_Z14convert_uchar8Dv8_j=0x852a6ba0;
_Z14convert_uchar8Dv8_l=0x8528a1a0;
_Z14convert_uchar8Dv8_m=0x8528a220;
_Z14convert_uchar8Dv8_s=0x852d7a20;
_Z14convert_uchar8Dv8_t=0x852d7a40;
_Z14convert_uint16Dv16_c=0x8523ed60;
_Z14convert_uint16Dv16_d=0x851781a0;
_Z14convert_uint16Dv16_f=0x851783a0;
_Z14convert_uint16Dv16_h=0x8523ee40;
_Z14convert_uint16Dv16_i=0x85274fa0;
_Z14convert_uint16Dv16_j=0x852a6c00;
_Z14convert_uint16Dv16_l=0x8525c840;
_Z14convert_uint16Dv16_m=0x8525c900;
_Z14convert_uint16Dv16_s=0x8525c9c0;
_Z14convert_uint16Dv16_t=0x8525ca80;
_Z14convert_ulong2Dv2_c=0x852c49c0;
_Z14convert_ulong2Dv2_d=0x852a6c60;
_Z14convert_ulong2Dv2_f=0x852a6cc0;
_Z14convert_ulong2Dv2_h=0x852d7a60;
_Z14convert_ulong2Dv2_i=0x852d7a80;
_Z14convert_ulong2Dv2_j=0x852d7aa0;
_Z14convert_ulong2Dv2_l=0x852d7ac0;
_Z14convert_ulong2Dv2_m=0x852d7ae0;
_Z14convert_ulong2Dv2_s=0x852d7b00;
_Z14convert_ulong2Dv2_t=0x852d7b20;
_Z14convert_ulong3Dv3_c=0x8528a2a0;
_Z14convert_ulong3Dv3_d=0x8525cb40;
_Z14convert_ulong3Dv3_f=0x8525cc00;
_Z14convert_ulong3Dv3_h=0x8528a320;
_Z14convert_ulong3Dv3_i=0x852a6d20;
_Z14convert_ulong3Dv3_j=0x852a6d80;
_Z14convert_ulong3Dv3_l=0x852a6de0;
_Z14convert_ulong3Dv3_m=0x852a6e40;
_Z14convert_ulong3Dv3_s=0x852a6ea0;
_Z14convert_ulong3Dv3_t=0x852a6f00;
_Z14convert_ulong4Dv4_c=0x8528a3a0;
_Z14convert_ulong4Dv4_d=0x8523ef20;
_Z14convert_ulong4Dv4_f=0x85228ca0;
_Z14convert_ulong4Dv4_h=0x8528a420;
_Z14convert_ulong4Dv4_i=0x8528a4a0;
_Z14convert_ulong4Dv4_j=0x8528a520;
_Z14convert_ulong4Dv4_l=0x852a6f60;
_Z14convert_ulong4Dv4_m=0x852a6fc0;
_Z14convert_ulong4Dv4_s=0x8528a5a0;
_Z14convert_ulong4Dv4_t=0x8528a620;
_Z14convert_ulong8Dv8_c=0x8523f000;
_Z14convert_ulong8Dv8_d=0x851ddc80;
_Z14convert_ulong8Dv8_f=0x851ddde0;
_Z14convert_ulong8Dv8_h=0x8523f0e0;
_Z14convert_ulong8Dv8_i=0x8525ccc0;
_Z14convert_ulong8Dv8_j=0x8523f1c0;
_Z14convert_ulong8Dv8_l=0x85228da0;
_Z14convert_ulong8Dv8_m=0x852a7020;
_Z14convert_ulong8Dv8_s=0x8523f2a0;
_Z14convert_ulong8Dv8_t=0x8525cd80;
_Z14convert_ushortc=0x852d7b40;
_Z14convert_ushortd=0x852d7b60;
_Z14convert_ushortf=0x852d7b80;
_Z14convert_ushorth=0x852d7ba0;
_Z14convert_ushorti=0x852d7bc0;
_Z14convert_ushortj=0x852d7be0;
_Z14convert_ushortl=0x852d7c00;
_Z14convert_ushortm=0x852d7c20;
_Z14convert_ushorts=0x852d7c40;
_Z14convert_ushortt=0x852d7c60;
_Z14isgreaterequalDv16_dS_=0x8501f240;
_Z14isgreaterequalDv16_fS_=0x851b2de0;
_Z14isgreaterequalDv2_dS_=0x85186500;
_Z14isgreaterequalDv2_fS_=0x852d7c80;
_Z14isgreaterequalDv3_dS_=0x850fefc0;
_Z14isgreaterequalDv3_fS_=0x852c4a00;
_Z14isgreaterequalDv4_dS_=0x850c0520;
_Z14isgreaterequalDv4_fS_=0x852c4a40;
_Z14isgreaterequalDv8_dS_=0x8505ece0;
_Z14isgreaterequalDv8_fS_=0x85228ea0;
_Z14vstorea_half16Dv16_fjPDh=0x851f9f40;
_Z14vstorea_half16Dv16_fjPU7CLlocalDh=0x851fa080;
_Z14vstorea_half16Dv16_fjPU8CLglobalDh=0x851fa1c0;
_Z15convert_double2Dv2_c=0x852d7ca0;
_Z15convert_double2Dv2_d=0x852d7cc0;
_Z15convert_double2Dv2_f=0x852d7ce0;
_Z15convert_double2Dv2_h=0x852d7d00;
_Z15convert_double2Dv2_i=0x852d7d20;
_Z15convert_double2Dv2_j=0x852d7d40;
_Z15convert_double2Dv2_l=0x852c4a80;
_Z15convert_double2Dv2_m=0x852c4ac0;
_Z15convert_double2Dv2_s=0x852d7d60;
_Z15convert_double2Dv2_t=0x852d7d80;
_Z15convert_double3Dv3_c=0x8528a6a0;
_Z15convert_double3Dv3_d=0x852a7080;
_Z15convert_double3Dv3_f=0x852a70e0;
_Z15convert_double3Dv3_h=0x8528a720;
_Z15convert_double3Dv3_i=0x852a7140;
_Z15convert_double3Dv3_j=0x852a71a0;
_Z15convert_double3Dv3_l=0x8525ce40;
_Z15convert_double3Dv3_m=0x8525cf00;
_Z15convert_double3Dv3_s=0x852a7200;
_Z15convert_double3Dv3_t=0x852a7260;
_Z15convert_double4Dv4_c=0x8528a7a0;
_Z15convert_double4Dv4_d=0x852a72c0;
_Z15convert_double4Dv4_f=0x8528a820;
_Z15convert_double4Dv4_h=0x8528a8a0;
_Z15convert_double4Dv4_i=0x8528a920;
_Z15convert_double4Dv4_j=0x8528a9a0;
_Z15convert_double4Dv4_l=0x8523f380;
_Z15convert_double4Dv4_m=0x8523f460;
_Z15convert_double4Dv4_s=0x8528aa20;
_Z15convert_double4Dv4_t=0x8528aaa0;
_Z15convert_double8Dv8_c=0x8523f540;
_Z15convert_double8Dv8_d=0x852a7320;
_Z15convert_double8Dv8_f=0x8525cfc0;
_Z15convert_double8Dv8_h=0x8523f620;
_Z15convert_double8Dv8_i=0x8525d080;
_Z15convert_double8Dv8_j=0x8525d140;
_Z15convert_double8Dv8_l=0x851ddf40;
_Z15convert_double8Dv8_m=0x851de0a0;
_Z15convert_double8Dv8_s=0x8523f700;
_Z15convert_double8Dv8_t=0x8523f7e0;
_Z15convert_float16Dv16_c=0x85212a00;
_Z15convert_float16Dv16_d=0x85027980;
_Z15convert_float16Dv16_f=0x852a7380;
_Z15convert_float16Dv16_h=0x85212b20;
_Z15convert_float16Dv16_i=0x8523f8c0;
_Z15convert_float16Dv16_j=0x8523f9a0;
_Z15convert_float16Dv16_l=0x851785a0;
_Z15convert_float16Dv16_m=0x851787a0;
_Z15convert_float16Dv16_s=0x85228fa0;
_Z15convert_float16Dv16_t=0x852290a0;
_Z15convert_int_rtec=0x852d7da0;
_Z15convert_int_rted=0x852d7dc0;
_Z15convert_int_rtef=0x852d7de0;
_Z15convert_int_rteh=0x852d7e00;
_Z15convert_int_rtei=0x852d7e20;
_Z15convert_int_rtej=0x852d7e40;
_Z15convert_int_rtel=0x852d7e60;
_Z15convert_int_rtem=0x852d7e80;
_Z15convert_int_rtes=0x852d7ea0;
_Z15convert_int_rtet=0x852d7ec0;
_Z15convert_int_rtnc=0x852d7ee0;
_Z15convert_int_rtnd=0x852d7f00;
_Z15convert_int_rtnf=0x852d7f20;
_Z15convert_int_rtnh=0x852d7f40;
_Z15convert_int_rtni=0x852d7f60;
_Z15convert_int_rtnj=0x852d7f80;
_Z15convert_int_rtnl=0x852d7fa0;
_Z15convert_int_rtnm=0x852d7fc0;
_Z15convert_int_rtns=0x852d7fe0;
_Z15convert_int_rtnt=0x852d8000;
_Z15convert_int_rtpc=0x852d8020;
_Z15convert_int_rtpd=0x852d8040;
_Z15convert_int_rtpf=0x852d8060;
_Z15convert_int_rtph=0x852d8080;
_Z15convert_int_rtpi=0x852d80a0;
_Z15convert_int_rtpj=0x852d80c0;
_Z15convert_int_rtpl=0x852d80e0;
_Z15convert_int_rtpm=0x852d8100;
_Z15convert_int_rtps=0x852d8120;
_Z15convert_int_rtpt=0x852d8140;
_Z15convert_int_rtzc=0x852d8160;
_Z15convert_int_rtzd=0x852d8180;
_Z15convert_int_rtzf=0x852d81a0;
_Z15convert_int_rtzh=0x852d81c0;
_Z15convert_int_rtzi=0x852d81e0;
_Z15convert_int_rtzj=0x852d8200;
_Z15convert_int_rtzl=0x852d8220;
_Z15convert_int_rtzm=0x852d8240;
_Z15convert_int_rtzs=0x852d8260;
_Z15convert_int_rtzt=0x852d8280;
_Z15convert_int_satc=0x852d82a0;
_Z15convert_int_satd=0x852c4b00;
_Z15convert_int_satf=0x852c4b40;
_Z15convert_int_sath=0x852d82c0;
_Z15convert_int_sati=0x852d82e0;
_Z15convert_int_satj=0x852d8300;
_Z15convert_int_satl=0x852c4b80;
_Z15convert_int_satm=0x852d8320;
_Z15convert_int_sats=0x852d8340;
_Z15convert_int_satt=0x852d8360;
_Z15convert_short16Dv16_c=0x8523fa80;
_Z15convert_short16Dv16_d=0x8523fb60;
_Z15convert_short16Dv16_f=0x8525d200;
_Z15convert_short16Dv16_h=0x8523fc40;
_Z15convert_short16Dv16_i=0x8528ab20;
_Z15convert_short16Dv16_j=0x8528aba0;
_Z15convert_short16Dv16_l=0x8525d2c0;
_Z15convert_short16Dv16_m=0x8525d380;
_Z15convert_short16Dv16_s=0x852a73e0;
_Z15convert_short16Dv16_t=0x8528ac20;
_Z15convert_uchar16Dv16_c=0x852d8380;
_Z15convert_uchar16Dv16_d=0x8519b160;
_Z15convert_uchar16Dv16_f=0x8519b320;
_Z15convert_uchar16Dv16_h=0x852d83a0;
_Z15convert_uchar16Dv16_i=0x852a7440;
_Z15convert_uchar16Dv16_j=0x852a74a0;
_Z15convert_uchar16Dv16_l=0x85275040;
_Z15convert_uchar16Dv16_m=0x852750e0;
_Z15convert_uchar16Dv16_s=0x8528aca0;
_Z15convert_uchar16Dv16_t=0x8528ad20;
_Z15convert_ulong16Dv16_c=0x8519b4e0;
_Z15convert_ulong16Dv16_d=0x85112a80;
_Z15convert_ulong16Dv16_f=0x850ff320;
_Z15convert_ulong16Dv16_h=0x8519b6a0;
_Z15convert_ulong16Dv16_i=0x851c52c0;
_Z15convert_ulong16Dv16_j=0x851c5440;
_Z15convert_ulong16Dv16_l=0x851866e0;
_Z15convert_ulong16Dv16_m=0x852a7500;
_Z15convert_ulong16Dv16_s=0x851c55c0;
_Z15convert_ulong16Dv16_t=0x851de200;
_Z15convert_ushort2Dv2_c=0x852d83c0;
_Z15convert_ushort2Dv2_d=0x852a7560;
_Z15convert_ushort2Dv2_f=0x852a75c0;
_Z15convert_ushort2Dv2_h=0x852d83e0;
_Z15convert_ushort2Dv2_i=0x852d8400;
_Z15convert_ushort2Dv2_j=0x852d8420;
_Z15convert_ushort2Dv2_l=0x852d8440;
_Z15convert_ushort2Dv2_m=0x852d8460;
_Z15convert_ushort2Dv2_s=0x852d8480;
_Z15convert_ushort2Dv2_t=0x852d84a0;
_Z15convert_ushort3Dv3_c=0x852d84c0;
_Z15convert_ushort3Dv3_d=0x85275180;
_Z15convert_ushort3Dv3_f=0x8528ada0;
_Z15convert_ushort3Dv3_h=0x852d84e0;
_Z15convert_ushort3Dv3_i=0x852d8500;
_Z15convert_ushort3Dv3_j=0x852d8520;
_Z15convert_ushort3Dv3_l=0x852c4bc0;
_Z15convert_ushort3Dv3_m=0x852c4c00;
_Z15convert_ushort3Dv3_s=0x852d8540;
_Z15convert_ushort3Dv3_t=0x852d8560;
_Z15convert_ushort4Dv4_c=0x852d8580;
_Z15convert_ushort4Dv4_d=0x85275220;
_Z15convert_ushort4Dv4_f=0x8528ae20;
_Z15convert_ushort4Dv4_h=0x852d85a0;
_Z15convert_ushort4Dv4_i=0x852d85c0;
_Z15convert_ushort4Dv4_j=0x852d85e0;
_Z15convert_ushort4Dv4_l=0x852c4c40;
_Z15convert_ushort4Dv4_m=0x852c4c80;
_Z15convert_ushort4Dv4_s=0x852d8600;
_Z15convert_ushort4Dv4_t=0x852d8620;
_Z15convert_ushort8Dv8_c=0x852a7620;
_Z15convert_ushort8Dv8_d=0x85212c40;
_Z15convert_ushort8Dv8_f=0x85212d60;
_Z15convert_ushort8Dv8_h=0x852a7680;
_Z15convert_ushort8Dv8_i=0x852c4cc0;
_Z15convert_ushort8Dv8_j=0x852c4d00;
_Z15convert_ushort8Dv8_l=0x852c4d40;
_Z15convert_ushort8Dv8_m=0x852c4d80;
_Z15convert_ushort8Dv8_s=0x852d8640;
_Z15convert_ushort8Dv8_t=0x852d8660;
_Z15vstore_half_rtefjPDh=0x8525d440;
_Z15vstore_half_rtefjPU7CLlocalDh=0x8525d500;
_Z15vstore_half_rtefjPU8CLglobalDh=0x8525d5c0;
_Z15vstore_half_rtnfjPDh=0x8523fd20;
_Z15vstore_half_rtnfjPU7CLlocalDh=0x8523fe00;
_Z15vstore_half_rtnfjPU8CLglobalDh=0x8523fee0;
_Z15vstore_half_rtpfjPDh=0x8523ffc0;
_Z15vstore_half_rtpfjPU7CLlocalDh=0x852400a0;
_Z15vstore_half_rtpfjPU8CLglobalDh=0x85240180;
_Z15vstore_half_rtzfjPDh=0x8528aea0;
_Z15vstore_half_rtzfjPU7CLlocalDh=0x8528af20;
_Z15vstore_half_rtzfjPU8CLglobalDh=0x8528afa0;
_Z16convert_char_rtec=0x852d8680;
_Z16convert_char_rted=0x852d86a0;
_Z16convert_char_rtef=0x852d86c0;
_Z16convert_char_rteh=0x852d86e0;
_Z16convert_char_rtei=0x852d8700;
_Z16convert_char_rtej=0x852d8720;
_Z16convert_char_rtel=0x852d8740;
_Z16convert_char_rtem=0x852d8760;
_Z16convert_char_rtes=0x852d8780;
_Z16convert_char_rtet=0x852d87a0;
_Z16convert_char_rtnc=0x852d87c0;
_Z16convert_char_rtnd=0x852d87e0;
_Z16convert_char_rtnf=0x852d8800;
_Z16convert_char_rtnh=0x852d8820;
_Z16convert_char_rtni=0x852d8840;
_Z16convert_char_rtnj=0x852d8860;
_Z16convert_char_rtnl=0x852d8880;
_Z16convert_char_rtnm=0x852d88a0;
_Z16convert_char_rtns=0x852d88c0;
_Z16convert_char_rtnt=0x852d88e0;
_Z16convert_char_rtpc=0x852d8900;
_Z16convert_char_rtpd=0x852d8920;
_Z16convert_char_rtpf=0x852d8940;
_Z16convert_char_rtph=0x852d8960;
_Z16convert_char_rtpi=0x852d8980;
_Z16convert_char_rtpj=0x852d89a0;
_Z16convert_char_rtpl=0x852d89c0;
_Z16convert_char_rtpm=0x852d89e0;
_Z16convert_char_rtps=0x852d8a00;
_Z16convert_char_rtpt=0x852d8a20;
_Z16convert_char_rtzc=0x852d8a40;
_Z16convert_char_rtzd=0x852d8a60;
_Z16convert_char_rtzf=0x852d8a80;
_Z16convert_char_rtzh=0x852d8aa0;
_Z16convert_char_rtzi=0x852d8ac0;
_Z16convert_char_rtzj=0x852d8ae0;
_Z16convert_char_rtzl=0x852d8b00;
_Z16convert_char_rtzm=0x852d8b20;
_Z16convert_char_rtzs=0x852d8b40;
_Z16convert_char_rtzt=0x852d8b60;
_Z16convert_char_satc=0x852d8b80;
_Z16convert_char_satd=0x852c4dc0;
_Z16convert_char_satf=0x852c4e00;
_Z16convert_char_sath=0x852d8ba0;
_Z16convert_char_sati=0x852d8bc0;
_Z16convert_char_satj=0x852d8be0;
_Z16convert_char_satl=0x852c4e40;
_Z16convert_char_satm=0x852d8c00;
_Z16convert_char_sats=0x852d8c20;
_Z16convert_char_satt=0x852d8c40;
_Z16convert_double16Dv16_c=0x8519b860;
_Z16convert_double16Dv16_d=0x852a7740;
_Z16convert_double16Dv16_f=0x851de360;
_Z16convert_double16Dv16_h=0x8519ba20;
_Z16convert_double16Dv16_i=0x851c5740;
_Z16convert_double16Dv16_j=0x851c58c0;
_Z16convert_double16Dv16_l=0x850e6600;
_Z16convert_double16Dv16_m=0x850e69a0;
_Z16convert_double16Dv16_s=0x851b2f80;
_Z16convert_double16Dv16_t=0x851b3120;
_Z16convert_int2_rteDv2_c=0x852d8c60;
_Z16convert_int2_rteDv2_d=0x852c4e80;
_Z16convert_int2_rteDv2_f=0x852c4ec0;
_Z16convert_int2_rteDv2_h=0x852d8c80;
_Z16convert_int2_rteDv2_i=0x852d8ca0;
_Z16convert_int2_rteDv2_j=0x852d8cc0;
_Z16convert_int2_rteDv2_l=0x852d8ce0;
_Z16convert_int2_rteDv2_m=0x852d8d00;
_Z16convert_int2_rteDv2_s=0x852d8d20;
_Z16convert_int2_rteDv2_t=0x852d8d40;
_Z16convert_int2_rtnDv2_c=0x852d8d60;
_Z16convert_int2_rtnDv2_d=0x852c4f00;
_Z16convert_int2_rtnDv2_f=0x852c4f40;
_Z16convert_int2_rtnDv2_h=0x852d8d80;
_Z16convert_int2_rtnDv2_i=0x852d8da0;
_Z16convert_int2_rtnDv2_j=0x852d8dc0;
_Z16convert_int2_rtnDv2_l=0x852d8de0;
_Z16convert_int2_rtnDv2_m=0x852d8e00;
_Z16convert_int2_rtnDv2_s=0x852d8e20;
_Z16convert_int2_rtnDv2_t=0x852d8e40;
_Z16convert_int2_rtpDv2_c=0x852d8e60;
_Z16convert_int2_rtpDv2_d=0x852c4f80;
_Z16convert_int2_rtpDv2_f=0x852c4fc0;
_Z16convert_int2_rtpDv2_h=0x852d8e80;
_Z16convert_int2_rtpDv2_i=0x852d8ea0;
_Z16convert_int2_rtpDv2_j=0x852d8ec0;
_Z16convert_int2_rtpDv2_l=0x852d8ee0;
_Z16convert_int2_rtpDv2_m=0x852d8f00;
_Z16convert_int2_rtpDv2_s=0x852d8f20;
_Z16convert_int2_rtpDv2_t=0x852d8f40;
_Z16convert_int2_rtzDv2_c=0x852d8f60;
_Z16convert_int2_rtzDv2_d=0x852d8f80;
_Z16convert_int2_rtzDv2_f=0x852d8fa0;
_Z16convert_int2_rtzDv2_h=0x852d8fc0;
_Z16convert_int2_rtzDv2_i=0x852d8fe0;
_Z16convert_int2_rtzDv2_j=0x852d9000;
_Z16convert_int2_rtzDv2_l=0x852d9020;
_Z16convert_int2_rtzDv2_m=0x852d9040;
_Z16convert_int2_rtzDv2_s=0x852d9060;
_Z16convert_int2_rtzDv2_t=0x852d9080;
_Z16convert_int2_satDv2_c=0x852d90a0;
_Z16convert_int2_satDv2_d=0x8528b020;
_Z16convert_int2_satDv2_f=0x852a77a0;
_Z16convert_int2_satDv2_h=0x852d90c0;
_Z16convert_int2_satDv2_i=0x852d90e0;
_Z16convert_int2_satDv2_j=0x852d9100;
_Z16convert_int2_satDv2_l=0x852752c0;
_Z16convert_int2_satDv2_m=0x852c5000;
_Z16convert_int2_satDv2_s=0x852d9120;
_Z16convert_int2_satDv2_t=0x852d9140;
_Z16convert_int3_rteDv3_c=0x852d9160;
_Z16convert_int3_rteDv3_d=0x8528b0a0;
_Z16convert_int3_rteDv3_f=0x852a7800;
_Z16convert_int3_rteDv3_h=0x852d9180;
_Z16convert_int3_rteDv3_i=0x852d91a0;
_Z16convert_int3_rteDv3_j=0x852d91c0;
_Z16convert_int3_rteDv3_l=0x852d91e0;
_Z16convert_int3_rteDv3_m=0x852d9200;
_Z16convert_int3_rteDv3_s=0x852d9220;
_Z16convert_int3_rteDv3_t=0x852d9240;
_Z16convert_int3_rtnDv3_c=0x852d9260;
_Z16convert_int3_rtnDv3_d=0x8528b120;
_Z16convert_int3_rtnDv3_f=0x852a7860;
_Z16convert_int3_rtnDv3_h=0x852d9280;
_Z16convert_int3_rtnDv3_i=0x852d92a0;
_Z16convert_int3_rtnDv3_j=0x852d92c0;
_Z16convert_int3_rtnDv3_l=0x852d92e0;
_Z16convert_int3_rtnDv3_m=0x852d9300;
_Z16convert_int3_rtnDv3_s=0x852d9320;
_Z16convert_int3_rtnDv3_t=0x852d9340;
_Z16convert_int3_rtpDv3_c=0x852d9360;
_Z16convert_int3_rtpDv3_d=0x8528b1a0;
_Z16convert_int3_rtpDv3_f=0x852a78c0;
_Z16convert_int3_rtpDv3_h=0x852d9380;
_Z16convert_int3_rtpDv3_i=0x852d93a0;
_Z16convert_int3_rtpDv3_j=0x852d93c0;
_Z16convert_int3_rtpDv3_l=0x852d93e0;
_Z16convert_int3_rtpDv3_m=0x852d9400;
_Z16convert_int3_rtpDv3_s=0x852d9420;
_Z16convert_int3_rtpDv3_t=0x852d9440;
_Z16convert_int3_rtzDv3_c=0x852d9460;
_Z16convert_int3_rtzDv3_d=0x852c5040;
_Z16convert_int3_rtzDv3_f=0x852d9480;
_Z16convert_int3_rtzDv3_h=0x852d94a0;
_Z16convert_int3_rtzDv3_i=0x852d94c0;
_Z16convert_int3_rtzDv3_j=0x852d94e0;
_Z16convert_int3_rtzDv3_l=0x852d9500;
_Z16convert_int3_rtzDv3_m=0x852d9520;
_Z16convert_int3_rtzDv3_s=0x852d9540;
_Z16convert_int3_rtzDv3_t=0x852d9560;
_Z16convert_int3_satDv3_c=0x852d9580;
_Z16convert_int3_satDv3_d=0x85275360;
_Z16convert_int3_satDv3_f=0x8528b220;
_Z16convert_int3_satDv3_h=0x852d95a0;
_Z16convert_int3_satDv3_i=0x852d95c0;
_Z16convert_int3_satDv3_j=0x852c5080;
_Z16convert_int3_satDv3_l=0x852291a0;
_Z16convert_int3_satDv3_m=0x8528b2a0;
_Z16convert_int3_satDv3_s=0x852d95e0;
_Z16convert_int3_satDv3_t=0x852d9600;
_Z16convert_int4_rteDv4_c=0x852c50c0;
_Z16convert_int4_rteDv4_d=0x85275400;
_Z16convert_int4_rteDv4_f=0x8528b320;
_Z16convert_int4_rteDv4_h=0x852c5100;
_Z16convert_int4_rteDv4_i=0x852d9620;
_Z16convert_int4_rteDv4_j=0x852d9640;
_Z16convert_int4_rteDv4_l=0x852d9660;
_Z16convert_int4_rteDv4_m=0x852d9680;
_Z16convert_int4_rteDv4_s=0x852d96a0;
_Z16convert_int4_rteDv4_t=0x852d96c0;
_Z16convert_int4_rtnDv4_c=0x852c5140;
_Z16convert_int4_rtnDv4_d=0x852754a0;
_Z16convert_int4_rtnDv4_f=0x8528b3a0;
_Z16convert_int4_rtnDv4_h=0x852c5180;
_Z16convert_int4_rtnDv4_i=0x852d96e0;
_Z16convert_int4_rtnDv4_j=0x852d9700;
_Z16convert_int4_rtnDv4_l=0x852d9720;
_Z16convert_int4_rtnDv4_m=0x852d9740;
_Z16convert_int4_rtnDv4_s=0x852d9760;
_Z16convert_int4_rtnDv4_t=0x852d9780;
_Z16convert_int4_rtpDv4_c=0x852c51c0;
_Z16convert_int4_rtpDv4_d=0x85275540;
_Z16convert_int4_rtpDv4_f=0x8528b420;
_Z16convert_int4_rtpDv4_h=0x852c5200;
_Z16convert_int4_rtpDv4_i=0x852d97a0;
_Z16convert_int4_rtpDv4_j=0x852d97c0;
_Z16convert_int4_rtpDv4_l=0x852d97e0;
_Z16convert_int4_rtpDv4_m=0x852d9800;
_Z16convert_int4_rtpDv4_s=0x852d9820;
_Z16convert_int4_rtpDv4_t=0x852d9840;
_Z16convert_int4_rtzDv4_c=0x852c5240;
_Z16convert_int4_rtzDv4_d=0x852c5280;
_Z16convert_int4_rtzDv4_f=0x852c52c0;
_Z16convert_int4_rtzDv4_h=0x852c5300;
_Z16convert_int4_rtzDv4_i=0x852d9860;
_Z16convert_int4_rtzDv4_j=0x852d9880;
_Z16convert_int4_rtzDv4_l=0x852d98a0;
_Z16convert_int4_rtzDv4_m=0x852d98c0;
_Z16convert_int4_rtzDv4_s=0x852d98e0;
_Z16convert_int4_rtzDv4_t=0x852d9900;
_Z16convert_int4_satDv4_c=0x852c5340;
_Z16convert_int4_satDv4_d=0x85240260;
_Z16convert_int4_satDv4_f=0x852755e0;
_Z16convert_int4_satDv4_h=0x852c5380;
_Z16convert_int4_satDv4_i=0x852d9920;
_Z16convert_int4_satDv4_j=0x852a7920;
_Z16convert_int4_satDv4_l=0x851de4c0;
_Z16convert_int4_satDv4_m=0x85275680;
_Z16convert_int4_satDv4_s=0x852d9940;
_Z16convert_int4_satDv4_t=0x852d9960;
_Z16convert_int8_rteDv8_c=0x8528b4a0;
_Z16convert_int8_rteDv8_d=0x851c5a40;
_Z16convert_int8_rteDv8_f=0x85212e80;
_Z16convert_int8_rteDv8_h=0x8528b520;
_Z16convert_int8_rteDv8_i=0x852a7980;
_Z16convert_int8_rteDv8_j=0x852a79e0;
_Z16convert_int8_rteDv8_l=0x852a7a40;
_Z16convert_int8_rteDv8_m=0x852a7aa0;
_Z16convert_int8_rteDv8_s=0x8528b5a0;
_Z16convert_int8_rteDv8_t=0x8528b620;
_Z16convert_int8_rtnDv8_c=0x8528b6a0;
_Z16convert_int8_rtnDv8_d=0x851c5bc0;
_Z16convert_int8_rtnDv8_f=0x85212fa0;
_Z16convert_int8_rtnDv8_h=0x8528b720;
_Z16convert_int8_rtnDv8_i=0x852a7b00;
_Z16convert_int8_rtnDv8_j=0x852a7b60;
_Z16convert_int8_rtnDv8_l=0x852a7bc0;
_Z16convert_int8_rtnDv8_m=0x852a7c20;
_Z16convert_int8_rtnDv8_s=0x8528b7a0;
_Z16convert_int8_rtnDv8_t=0x8528b820;
_Z16convert_int8_rtpDv8_c=0x8528b8a0;
_Z16convert_int8_rtpDv8_d=0x851c5d40;
_Z16convert_int8_rtpDv8_f=0x852130c0;
_Z16convert_int8_rtpDv8_h=0x8528b920;
_Z16convert_int8_rtpDv8_i=0x852a7c80;
_Z16convert_int8_rtpDv8_j=0x852a7ce0;
_Z16convert_int8_rtpDv8_l=0x852a7d40;
_Z16convert_int8_rtpDv8_m=0x852a7da0;
_Z16convert_int8_rtpDv8_s=0x8528b9a0;
_Z16convert_int8_rtpDv8_t=0x8528ba20;
_Z16convert_int8_rtzDv8_c=0x8528baa0;
_Z16convert_int8_rtzDv8_d=0x85275720;
_Z16convert_int8_rtzDv8_f=0x8528bb20;
_Z16convert_int8_rtzDv8_h=0x8528bba0;
_Z16convert_int8_rtzDv8_i=0x852a7e00;
_Z16convert_int8_rtzDv8_j=0x852a7e60;
_Z16convert_int8_rtzDv8_l=0x852a7ec0;
_Z16convert_int8_rtzDv8_m=0x852a7f20;
_Z16convert_int8_rtzDv8_s=0x8528bc20;
_Z16convert_int8_rtzDv8_t=0x8528bca0;
_Z16convert_int8_satDv8_c=0x8528bd20;
_Z16convert_int8_satDv8_d=0x851868c0;
_Z16convert_int8_satDv8_f=0x851c5ec0;
_Z16convert_int8_satDv8_h=0x8528bda0;
_Z16convert_int8_satDv8_i=0x852a7f80;
_Z16convert_int8_satDv8_j=0x85240340;
_Z16convert_int8_satDv8_l=0x850f8040;
_Z16convert_int8_satDv8_m=0x851de620;
_Z16convert_int8_satDv8_s=0x8528be20;
_Z16convert_int8_satDv8_t=0x8528bea0;
_Z16convert_long_rtec=0x852d9980;
_Z16convert_long_rted=0x852d99a0;
_Z16convert_long_rtef=0x852d99c0;
_Z16convert_long_rteh=0x852d99e0;
_Z16convert_long_rtei=0x852d9a00;
_Z16convert_long_rtej=0x852d9a20;
_Z16convert_long_rtel=0x852d9a40;
_Z16convert_long_rtem=0x852d9a60;
_Z16convert_long_rtes=0x852d9a80;
_Z16convert_long_rtet=0x852d9aa0;
_Z16convert_long_rtnc=0x852d9ac0;
_Z16convert_long_rtnd=0x852d9ae0;
_Z16convert_long_rtnf=0x852d9b00;
_Z16convert_long_rtnh=0x852d9b20;
_Z16convert_long_rtni=0x852d9b40;
_Z16convert_long_rtnj=0x852d9b60;
_Z16convert_long_rtnl=0x852d9b80;
_Z16convert_long_rtnm=0x852d9ba0;
_Z16convert_long_rtns=0x852d9bc0;
_Z16convert_long_rtnt=0x852d9be0;
_Z16convert_long_rtpc=0x852d9c00;
_Z16convert_long_rtpd=0x852d9c20;
_Z16convert_long_rtpf=0x852d9c40;
_Z16convert_long_rtph=0x852d9c60;
_Z16convert_long_rtpi=0x852d9c80;
_Z16convert_long_rtpj=0x852d9ca0;
_Z16convert_long_rtpl=0x852d9cc0;
_Z16convert_long_rtpm=0x852d9ce0;
_Z16convert_long_rtps=0x852d9d00;
_Z16convert_long_rtpt=0x852d9d20;
_Z16convert_long_rtzc=0x852d9d40;
_Z16convert_long_rtzd=0x852d9d60;
_Z16convert_long_rtzf=0x852d9d80;
_Z16convert_long_rtzh=0x852d9da0;
_Z16convert_long_rtzi=0x852d9dc0;
_Z16convert_long_rtzj=0x852d9de0;
_Z16convert_long_rtzl=0x852d9e00;
_Z16convert_long_rtzm=0x852d9e20;
_Z16convert_long_rtzs=0x852d9e40;
_Z16convert_long_rtzt=0x852d9e60;
_Z16convert_long_satc=0x852d9e80;
_Z16convert_long_satd=0x8528bf20;
_Z16convert_long_satf=0x852757c0;
_Z16convert_long_sath=0x852d9ea0;
_Z16convert_long_sati=0x852d9ec0;
_Z16convert_long_satj=0x852d9ee0;
_Z16convert_long_satl=0x852d9f00;
_Z16convert_long_satm=0x852d9f20;
_Z16convert_long_sats=0x852d9f40;
_Z16convert_long_satt=0x852d9f60;
_Z16convert_uint_rtec=0x852d9f80;
_Z16convert_uint_rted=0x852d9fa0;
_Z16convert_uint_rtef=0x852d9fc0;
_Z16convert_uint_rteh=0x852d9fe0;
_Z16convert_uint_rtei=0x852da000;
_Z16convert_uint_rtej=0x852da020;
_Z16convert_uint_rtel=0x852da040;
_Z16convert_uint_rtem=0x852da060;
_Z16convert_uint_rtes=0x852da080;
_Z16convert_uint_rtet=0x852da0a0;
_Z16convert_uint_rtnc=0x852da0c0;
_Z16convert_uint_rtnd=0x852da0e0;
_Z16convert_uint_rtnf=0x852da100;
_Z16convert_uint_rtnh=0x852da120;
_Z16convert_uint_rtni=0x852da140;
_Z16convert_uint_rtnj=0x852da160;
_Z16convert_uint_rtnl=0x852da180;
_Z16convert_uint_rtnm=0x852da1a0;
_Z16convert_uint_rtns=0x852da1c0;
_Z16convert_uint_rtnt=0x852da1e0;
_Z16convert_uint_rtpc=0x852da200;
_Z16convert_uint_rtpd=0x852da220;
_Z16convert_uint_rtpf=0x852da240;
_Z16convert_uint_rtph=0x852da260;
_Z16convert_uint_rtpi=0x852da280;
_Z16convert_uint_rtpj=0x852da2a0;
_Z16convert_uint_rtpl=0x852da2c0;
_Z16convert_uint_rtpm=0x852da2e0;
_Z16convert_uint_rtps=0x852da300;
_Z16convert_uint_rtpt=0x852da320;
_Z16convert_uint_rtzc=0x852da340;
_Z16convert_uint_rtzd=0x852da360;
_Z16convert_uint_rtzf=0x852da380;
_Z16convert_uint_rtzh=0x852da3a0;
_Z16convert_uint_rtzi=0x852da3c0;
_Z16convert_uint_rtzj=0x852da3e0;
_Z16convert_uint_rtzl=0x852da400;
_Z16convert_uint_rtzm=0x852da420;
_Z16convert_uint_rtzs=0x852da440;
_Z16convert_uint_rtzt=0x852da460;
_Z16convert_uint_satc=0x852da480;
_Z16convert_uint_satd=0x8528bfa0;
_Z16convert_uint_satf=0x8528c020;
_Z16convert_uint_sath=0x852da4a0;
_Z16convert_uint_sati=0x852da4c0;
_Z16convert_uint_satj=0x852da4e0;
_Z16convert_uint_satl=0x852c53c0;
_Z16convert_uint_satm=0x852da500;
_Z16convert_uint_sats=0x852da520;
_Z16convert_uint_satt=0x852da540;
_Z16convert_ushort16Dv16_c=0x85240420;
_Z16convert_ushort16Dv16_d=0x85186aa0;
_Z16convert_ushort16Dv16_f=0x8516a9c0;
_Z16convert_ushort16Dv16_h=0x85240500;
_Z16convert_ushort16Dv16_i=0x8528c0a0;
_Z16convert_ushort16Dv16_j=0x8528c120;
_Z16convert_ushort16Dv16_l=0x8525d680;
_Z16convert_ushort16Dv16_m=0x8525d740;
_Z16convert_ushort16Dv16_s=0x8528c1a0;
_Z16convert_ushort16Dv16_t=0x852a7fe0;
_Z16vstorea_half_rtefjPDh=0x8525d800;
_Z16vstorea_half_rtefjPU7CLlocalDh=0x8525d8c0;
_Z16vstorea_half_rtefjPU8CLglobalDh=0x8525d980;
_Z16vstorea_half_rtnfjPDh=0x852405e0;
_Z16vstorea_half_rtnfjPU7CLlocalDh=0x852406c0;
_Z16vstorea_half_rtnfjPU8CLglobalDh=0x852407a0;
_Z16vstorea_half_rtpfjPDh=0x85240880;
_Z16vstorea_half_rtpfjPU7CLlocalDh=0x85240960;
_Z16vstorea_half_rtpfjPU8CLglobalDh=0x85240a40;
_Z16vstorea_half_rtzfjPDh=0x8528c220;
_Z16vstorea_half_rtzfjPU7CLlocalDh=0x8528c2a0;
_Z16vstorea_half_rtzfjPU8CLglobalDh=0x8528c320;
_Z16vstore_half2_rteDv2_fjPDh=0x851c6040;
_Z16vstore_half2_rteDv2_fjPU7CLlocalDh=0x851c61c0;
_Z16vstore_half2_rteDv2_fjPU8CLglobalDh=0x851c6340;
_Z16vstore_half2_rtnDv2_fjPDh=0x851c64c0;
_Z16vstore_half2_rtnDv2_fjPU7CLlocalDh=0x851c6640;
_Z16vstore_half2_rtnDv2_fjPU8CLglobalDh=0x851c67c0;
_Z16vstore_half2_rtpDv2_fjPDh=0x851c6940;
_Z16vstore_half2_rtpDv2_fjPU7CLlocalDh=0x851c6ac0;
_Z16vstore_half2_rtpDv2_fjPU8CLglobalDh=0x851c6c40;
_Z16vstore_half2_rtzDv2_fjPDh=0x852292a0;
_Z16vstore_half2_rtzDv2_fjPU7CLlocalDh=0x852293a0;
_Z16vstore_half2_rtzDv2_fjPU8CLglobalDh=0x852294a0;
_Z16vstore_half3_rteDv3_fjPDh=0x8516abe0;
_Z16vstore_half3_rteDv3_fjPU7CLlocalDh=0x8516ae00;
_Z16vstore_half3_rteDv3_fjPU8CLglobalDh=0x8516b020;
_Z16vstore_half3_rtnDv3_fjPDh=0x8516b240;
_Z16vstore_half3_rtnDv3_fjPU7CLlocalDh=0x8516b460;
_Z16vstore_half3_rtnDv3_fjPU8CLglobalDh=0x8516b680;
_Z16vstore_half3_rtpDv3_fjPDh=0x8516b8a0;
_Z16vstore_half3_rtpDv3_fjPU7CLlocalDh=0x8516bac0;
_Z16vstore_half3_rtpDv3_fjPU8CLglobalDh=0x8516bce0;
_Z16vstore_half3_rtzDv3_fjPDh=0x851de780;
_Z16vstore_half3_rtzDv3_fjPU7CLlocalDh=0x851de8e0;
_Z16vstore_half3_rtzDv3_fjPU8CLglobalDh=0x851dea40;
_Z16vstore_half4_rteDv4_fjPDh=0x852c5400;
_Z16vstore_half4_rteDv4_fjPU7CLlocalDh=0x852c5440;
_Z16vstore_half4_rteDv4_fjPU8CLglobalDh=0x852c5480;
_Z16vstore_half4_rtnDv4_fjPDh=0x852c54c0;
_Z16vstore_half4_rtnDv4_fjPU7CLlocalDh=0x852c5500;
_Z16vstore_half4_rtnDv4_fjPU8CLglobalDh=0x852c5540;
_Z16vstore_half4_rtpDv4_fjPDh=0x852c5580;
_Z16vstore_half4_rtpDv4_fjPU7CLlocalDh=0x852c55c0;
_Z16vstore_half4_rtpDv4_fjPU8CLglobalDh=0x852c5600;
_Z16vstore_half4_rtzDv4_fjPDh=0x85186c80;
_Z16vstore_half4_rtzDv4_fjPU7CLlocalDh=0x85186e60;
_Z16vstore_half4_rtzDv4_fjPU8CLglobalDh=0x85187040;
_Z16vstore_half8_rteDv8_fjPDh=0x85275860;
_Z16vstore_half8_rteDv8_fjPU7CLlocalDh=0x85275900;
_Z16vstore_half8_rteDv8_fjPU8CLglobalDh=0x852759a0;
_Z16vstore_half8_rtnDv8_fjPDh=0x85275a40;
_Z16vstore_half8_rtnDv8_fjPU7CLlocalDh=0x85275ae0;
_Z16vstore_half8_rtnDv8_fjPU8CLglobalDh=0x85275b80;
_Z16vstore_half8_rtpDv8_fjPDh=0x85275c20;
_Z16vstore_half8_rtpDv8_fjPU7CLlocalDh=0x85275cc0;
_Z16vstore_half8_rtpDv8_fjPU8CLglobalDh=0x85275d60;
_Z16vstore_half8_rtzDv8_fjPDh=0x850e6d40;
_Z16vstore_half8_rtzDv8_fjPU7CLlocalDh=0x850e70e0;
_Z16vstore_half8_rtzDv8_fjPU8CLglobalDh=0x850e7480;
_Z17convert_char2_rteDv2_c=0x852da560;
_Z17convert_char2_rteDv2_d=0x852c5640;
_Z17convert_char2_rteDv2_f=0x852a8040;
_Z17convert_char2_rteDv2_h=0x852da580;
_Z17convert_char2_rteDv2_i=0x852da5a0;
_Z17convert_char2_rteDv2_j=0x852da5c0;
_Z17convert_char2_rteDv2_l=0x852da5e0;
_Z17convert_char2_rteDv2_m=0x852da600;
_Z17convert_char2_rteDv2_s=0x852da620;
_Z17convert_char2_rteDv2_t=0x852da640;
_Z17convert_char2_rtnDv2_c=0x852da660;
_Z17convert_char2_rtnDv2_d=0x852c5680;
_Z17convert_char2_rtnDv2_f=0x852a80a0;
_Z17convert_char2_rtnDv2_h=0x852da680;
_Z17convert_char2_rtnDv2_i=0x852da6a0;
_Z17convert_char2_rtnDv2_j=0x852da6c0;
_Z17convert_char2_rtnDv2_l=0x852da6e0;
_Z17convert_char2_rtnDv2_m=0x852da700;
_Z17convert_char2_rtnDv2_s=0x852da720;
_Z17convert_char2_rtnDv2_t=0x852da740;
_Z17convert_char2_rtpDv2_c=0x852da760;
_Z17convert_char2_rtpDv2_d=0x852c56c0;
_Z17convert_char2_rtpDv2_f=0x852a8100;
_Z17convert_char2_rtpDv2_h=0x852da780;
_Z17convert_char2_rtpDv2_i=0x852da7a0;
_Z17convert_char2_rtpDv2_j=0x852da7c0;
_Z17convert_char2_rtpDv2_l=0x852da7e0;
_Z17convert_char2_rtpDv2_m=0x852da800;
_Z17convert_char2_rtpDv2_s=0x852da820;
_Z17convert_char2_rtpDv2_t=0x852da840;
_Z17convert_char2_rtzDv2_c=0x852da860;
_Z17convert_char2_rtzDv2_d=0x852da880;
_Z17convert_char2_rtzDv2_f=0x852da8a0;
_Z17convert_char2_rtzDv2_h=0x852da8c0;
_Z17convert_char2_rtzDv2_i=0x852da8e0;
_Z17convert_char2_rtzDv2_j=0x852da900;
_Z17convert_char2_rtzDv2_l=0x852da920;
_Z17convert_char2_rtzDv2_m=0x852da940;
_Z17convert_char2_rtzDv2_s=0x852da960;
_Z17convert_char2_rtzDv2_t=0x852da980;
_Z17convert_char2_satDv2_c=0x852da9a0;
_Z17convert_char2_satDv2_d=0x8528c3a0;
_Z17convert_char2_satDv2_f=0x852a8160;
_Z17convert_char2_satDv2_h=0x852c5700;
_Z17convert_char2_satDv2_i=0x852c5740;
_Z17convert_char2_satDv2_j=0x852da9c0;
_Z17convert_char2_satDv2_l=0x8528c420;
_Z17convert_char2_satDv2_m=0x852c5780;
_Z17convert_char2_satDv2_s=0x852c57c0;
_Z17convert_char2_satDv2_t=0x852c5800;
_Z17convert_char3_rteDv3_c=0x852da9e0;
_Z17convert_char3_rteDv3_d=0x85275e00;
_Z17convert_char3_rteDv3_f=0x852a81c0;
_Z17convert_char3_rteDv3_h=0x852daa00;
_Z17convert_char3_rteDv3_i=0x852daa20;
_Z17convert_char3_rteDv3_j=0x852daa40;
_Z17convert_char3_rteDv3_l=0x852a8220;
_Z17convert_char3_rteDv3_m=0x852a8280;
_Z17convert_char3_rteDv3_s=0x852daa60;
_Z17convert_char3_rteDv3_t=0x852daa80;
_Z17convert_char3_rtnDv3_c=0x852daaa0;
_Z17convert_char3_rtnDv3_d=0x85275ea0;
_Z17convert_char3_rtnDv3_f=0x852a82e0;
_Z17convert_char3_rtnDv3_h=0x852daac0;
_Z17convert_char3_rtnDv3_i=0x852daae0;
_Z17convert_char3_rtnDv3_j=0x852dab00;
_Z17convert_char3_rtnDv3_l=0x852a8340;
_Z17convert_char3_rtnDv3_m=0x852a83a0;
_Z17convert_char3_rtnDv3_s=0x852dab20;
_Z17convert_char3_rtnDv3_t=0x852dab40;
_Z17convert_char3_rtpDv3_c=0x852dab60;
_Z17convert_char3_rtpDv3_d=0x85275f40;
_Z17convert_char3_rtpDv3_f=0x852a8400;
_Z17convert_char3_rtpDv3_h=0x852dab80;
_Z17convert_char3_rtpDv3_i=0x852daba0;
_Z17convert_char3_rtpDv3_j=0x852dabc0;
_Z17convert_char3_rtpDv3_l=0x852a8460;
_Z17convert_char3_rtpDv3_m=0x852a84c0;
_Z17convert_char3_rtpDv3_s=0x852dabe0;
_Z17convert_char3_rtpDv3_t=0x852dac00;
_Z17convert_char3_rtzDv3_c=0x852dac20;
_Z17convert_char3_rtzDv3_d=0x852a8520;
_Z17convert_char3_rtzDv3_f=0x852dac40;
_Z17convert_char3_rtzDv3_h=0x852dac60;
_Z17convert_char3_rtzDv3_i=0x852dac80;
_Z17convert_char3_rtzDv3_j=0x852daca0;
_Z17convert_char3_rtzDv3_l=0x852a8580;
_Z17convert_char3_rtzDv3_m=0x852a85e0;
_Z17convert_char3_rtzDv3_s=0x852dacc0;
_Z17convert_char3_rtzDv3_t=0x852dace0;
_Z17convert_char3_satDv3_c=0x852dad00;
_Z17convert_char3_satDv3_d=0x8525da40;
_Z17convert_char3_satDv3_f=0x8528c4a0;
_Z17convert_char3_satDv3_h=0x852c5840;
_Z17convert_char3_satDv3_i=0x852a8640;
_Z17convert_char3_satDv3_j=0x852c5880;
_Z17convert_char3_satDv3_l=0x852295a0;
_Z17convert_char3_satDv3_m=0x85275fe0;
_Z17convert_char3_satDv3_s=0x852a86a0;
_Z17convert_char3_satDv3_t=0x852a8700;
_Z17convert_char4_rteDv4_c=0x852dad20;
_Z17convert_char4_rteDv4_d=0x8525db00;
_Z17convert_char4_rteDv4_f=0x8528c520;
_Z17convert_char4_rteDv4_h=0x852dad40;
_Z17convert_char4_rteDv4_i=0x852dad60;
_Z17convert_char4_rteDv4_j=0x852dad80;
_Z17convert_char4_rteDv4_l=0x852a8760;
_Z17convert_char4_rteDv4_m=0x852a87c0;
_Z17convert_char4_rteDv4_s=0x852dada0;
_Z17convert_char4_rteDv4_t=0x852dadc0;
_Z17convert_char4_rtnDv4_c=0x852dade0;
_Z17convert_char4_rtnDv4_d=0x8525dbc0;
_Z17convert_char4_rtnDv4_f=0x8528c5a0;
_Z17convert_char4_rtnDv4_h=0x852dae00;
_Z17convert_char4_rtnDv4_i=0x852dae20;
_Z17convert_char4_rtnDv4_j=0x852dae40;
_Z17convert_char4_rtnDv4_l=0x852a8820;
_Z17convert_char4_rtnDv4_m=0x852a8880;
_Z17convert_char4_rtnDv4_s=0x852dae60;
_Z17convert_char4_rtnDv4_t=0x852dae80;
_Z17convert_char4_rtpDv4_c=0x852daea0;
_Z17convert_char4_rtpDv4_d=0x8525dc80;
_Z17convert_char4_rtpDv4_f=0x8528c620;
_Z17convert_char4_rtpDv4_h=0x852daec0;
_Z17convert_char4_rtpDv4_i=0x852daee0;
_Z17convert_char4_rtpDv4_j=0x852daf00;
_Z17convert_char4_rtpDv4_l=0x852a88e0;
_Z17convert_char4_rtpDv4_m=0x852a8940;
_Z17convert_char4_rtpDv4_s=0x852daf20;
_Z17convert_char4_rtpDv4_t=0x852daf40;
_Z17convert_char4_rtzDv4_c=0x852daf60;
_Z17convert_char4_rtzDv4_d=0x852a89a0;
_Z17convert_char4_rtzDv4_f=0x852daf80;
_Z17convert_char4_rtzDv4_h=0x852dafa0;
_Z17convert_char4_rtzDv4_i=0x852dafc0;
_Z17convert_char4_rtzDv4_j=0x852dafe0;
_Z17convert_char4_rtzDv4_l=0x852a8a00;
_Z17convert_char4_rtzDv4_m=0x852a8a60;
_Z17convert_char4_rtzDv4_s=0x852db000;
_Z17convert_char4_rtzDv4_t=0x852db020;
_Z17convert_char4_satDv4_c=0x852db040;
_Z17convert_char4_satDv4_d=0x852296a0;
_Z17convert_char4_satDv4_f=0x85276080;
_Z17convert_char4_satDv4_h=0x852a8ac0;
_Z17convert_char4_satDv4_i=0x85276120;
_Z17convert_char4_satDv4_j=0x852a8b20;
_Z17convert_char4_satDv4_l=0x851c6dc0;
_Z17convert_char4_satDv4_m=0x8525dd40;
_Z17convert_char4_satDv4_s=0x852761c0;
_Z17convert_char4_satDv4_t=0x852a8b80;
_Z17convert_char8_rteDv8_c=0x852db060;
_Z17convert_char8_rteDv8_d=0x852131e0;
_Z17convert_char8_rteDv8_f=0x852297a0;
_Z17convert_char8_rteDv8_h=0x852db080;
_Z17convert_char8_rteDv8_i=0x852a8be0;
_Z17convert_char8_rteDv8_j=0x852a8c40;
_Z17convert_char8_rteDv8_l=0x8528c6a0;
_Z17convert_char8_rteDv8_m=0x8528c720;
_Z17convert_char8_rteDv8_s=0x852db0a0;
_Z17convert_char8_rteDv8_t=0x852db0c0;
_Z17convert_char8_rtnDv8_c=0x852db0e0;
_Z17convert_char8_rtnDv8_d=0x85213300;
_Z17convert_char8_rtnDv8_f=0x852298a0;
_Z17convert_char8_rtnDv8_h=0x852db100;
_Z17convert_char8_rtnDv8_i=0x852a8ca0;
_Z17convert_char8_rtnDv8_j=0x852a8d00;
_Z17convert_char8_rtnDv8_l=0x8528c7a0;
_Z17convert_char8_rtnDv8_m=0x8528c820;
_Z17convert_char8_rtnDv8_s=0x852db120;
_Z17convert_char8_rtnDv8_t=0x852db140;
_Z17convert_char8_rtpDv8_c=0x852db160;
_Z17convert_char8_rtpDv8_d=0x85213420;
_Z17convert_char8_rtpDv8_f=0x852299a0;
_Z17convert_char8_rtpDv8_h=0x852db180;
_Z17convert_char8_rtpDv8_i=0x852a8d60;
_Z17convert_char8_rtpDv8_j=0x852a8dc0;
_Z17convert_char8_rtpDv8_l=0x8528c8a0;
_Z17convert_char8_rtpDv8_m=0x8528c920;
_Z17convert_char8_rtpDv8_s=0x852db1a0;
_Z17convert_char8_rtpDv8_t=0x852db1c0;
_Z17convert_char8_rtzDv8_c=0x852db1e0;
_Z17convert_char8_rtzDv8_d=0x85276260;
_Z17convert_char8_rtzDv8_f=0x8528c9a0;
_Z17convert_char8_rtzDv8_h=0x852db200;
_Z17convert_char8_rtzDv8_i=0x852a8e20;
_Z17convert_char8_rtzDv8_j=0x852a8e80;
_Z17convert_char8_rtzDv8_l=0x8528ca20;
_Z17convert_char8_rtzDv8_m=0x8528caa0;
_Z17convert_char8_rtzDv8_s=0x852db220;
_Z17convert_char8_rtzDv8_t=0x852db240;
_Z17convert_char8_satDv8_c=0x852db260;
_Z17convert_char8_satDv8_d=0x85187220;
_Z17convert_char8_satDv8_f=0x851c6f40;
_Z17convert_char8_satDv8_h=0x8525de00;
_Z17convert_char8_satDv8_i=0x8519bbe0;
_Z17convert_char8_satDv8_j=0x85240b20;
_Z17convert_char8_satDv8_l=0x85112da0;
_Z17convert_char8_satDv8_m=0x851deba0;
_Z17convert_char8_satDv8_s=0x851fa300;
_Z17convert_char8_satDv8_t=0x85240c00;
_Z17convert_float_rtec=0x852db280;
_Z17convert_float_rted=0x852db2a0;
_Z17convert_float_rtef=0x852db2c0;
_Z17convert_float_rteh=0x852db2e0;
_Z17convert_float_rtei=0x852db300;
_Z17convert_float_rtej=0x852db320;
_Z17convert_float_rtel=0x852db340;
_Z17convert_float_rtem=0x852db360;
_Z17convert_float_rtes=0x852db380;
_Z17convert_float_rtet=0x852db3a0;
_Z17convert_float_rtnc=0x852db3c0;
_Z17convert_float_rtnd=0x852c58c0;
_Z17convert_float_rtnf=0x852db3e0;
_Z17convert_float_rtnh=0x852db400;
_Z17convert_float_rtni=0x852c5900;
_Z17convert_float_rtnj=0x852c5940;
_Z17convert_float_rtnl=0x852db420;
_Z17convert_float_rtnm=0x852db440;
_Z17convert_float_rtns=0x852db460;
_Z17convert_float_rtnt=0x852db480;
_Z17convert_float_rtpc=0x852db4a0;
_Z17convert_float_rtpd=0x852c5980;
_Z17convert_float_rtpf=0x852db4c0;
_Z17convert_float_rtph=0x852db4e0;
_Z17convert_float_rtpi=0x852c59c0;
_Z17convert_float_rtpj=0x852c5a00;
_Z17convert_float_rtpl=0x852db500;
_Z17convert_float_rtpm=0x852db520;
_Z17convert_float_rtps=0x852db540;
_Z17convert_float_rtpt=0x852db560;
_Z17convert_float_rtzc=0x852db580;
_Z17convert_float_rtzd=0x852c5a40;
_Z17convert_float_rtzf=0x852db5a0;
_Z17convert_float_rtzh=0x852db5c0;
_Z17convert_float_rtzi=0x852c5a80;
_Z17convert_float_rtzj=0x852c5ac0;
_Z17convert_float_rtzl=0x852db5e0;
_Z17convert_float_rtzm=0x852db600;
_Z17convert_float_rtzs=0x852db620;
_Z17convert_float_rtzt=0x852db640;
_Z17convert_int16_rteDv16_c=0x85240ce0;
_Z17convert_int16_rteDv16_d=0x85144580;
_Z17convert_int16_rteDv16_f=0x85187400;
_Z17convert_int16_rteDv16_h=0x85240dc0;
_Z17convert_int16_rteDv16_i=0x852a8ee0;
_Z17convert_int16_rteDv16_j=0x85276300;
_Z17convert_int16_rteDv16_l=0x8525dec0;
_Z17convert_int16_rteDv16_m=0x8525df80;
_Z17convert_int16_rteDv16_s=0x8525e040;
_Z17convert_int16_rteDv16_t=0x8525e100;
_Z17convert_int16_rtnDv16_c=0x85240ea0;
_Z17convert_int16_rtnDv16_d=0x85144800;
_Z17convert_int16_rtnDv16_f=0x851875e0;
_Z17convert_int16_rtnDv16_h=0x85240f80;
_Z17convert_int16_rtnDv16_i=0x852a8f40;
_Z17convert_int16_rtnDv16_j=0x852763a0;
_Z17convert_int16_rtnDv16_l=0x8525e1c0;
_Z17convert_int16_rtnDv16_m=0x8525e280;
_Z17convert_int16_rtnDv16_s=0x8525e340;
_Z17convert_int16_rtnDv16_t=0x8525e400;
_Z17convert_int16_rtpDv16_c=0x85241060;
_Z17convert_int16_rtpDv16_d=0x85144a80;
_Z17convert_int16_rtpDv16_f=0x851877c0;
_Z17convert_int16_rtpDv16_h=0x85241140;
_Z17convert_int16_rtpDv16_i=0x852a8fa0;
_Z17convert_int16_rtpDv16_j=0x85276440;
_Z17convert_int16_rtpDv16_l=0x8525e4c0;
_Z17convert_int16_rtpDv16_m=0x8525e580;
_Z17convert_int16_rtpDv16_s=0x8525e640;
_Z17convert_int16_rtpDv16_t=0x8525e700;
_Z17convert_int16_rtzDv16_c=0x85241220;
_Z17convert_int16_rtzDv16_d=0x85229aa0;
_Z17convert_int16_rtzDv16_f=0x85241300;
_Z17convert_int16_rtzDv16_h=0x852413e0;
_Z17convert_int16_rtzDv16_i=0x852a9000;
_Z17convert_int16_rtzDv16_j=0x852764e0;
_Z17convert_int16_rtzDv16_l=0x8525e7c0;
_Z17convert_int16_rtzDv16_m=0x8525e880;
_Z17convert_int16_rtzDv16_s=0x8525e940;
_Z17convert_int16_rtzDv16_t=0x8525ea00;
_Z17convert_int16_satDv16_c=0x852414c0;
_Z17convert_int16_satDv16_d=0x850d0a80;
_Z17convert_int16_satDv16_f=0x85125d60;
_Z17convert_int16_satDv16_h=0x852415a0;
_Z17convert_int16_satDv16_i=0x852a9060;
_Z17convert_int16_satDv16_j=0x851ded00;
_Z17convert_int16_satDv16_l=0x85077f20;
_Z17convert_int16_satDv16_m=0x851130c0;
_Z17convert_int16_satDv16_s=0x8525eac0;
_Z17convert_int16_satDv16_t=0x8525eb80;
_Z17convert_long2_rteDv2_c=0x852c5b00;
_Z17convert_long2_rteDv2_d=0x8528cb20;
_Z17convert_long2_rteDv2_f=0x852a90c0;
_Z17convert_long2_rteDv2_h=0x852db660;
_Z17convert_long2_rteDv2_i=0x852db680;
_Z17convert_long2_rteDv2_j=0x852db6a0;
_Z17convert_long2_rteDv2_l=0x852db6c0;
_Z17convert_long2_rteDv2_m=0x852db6e0;
_Z17convert_long2_rteDv2_s=0x852db700;
_Z17convert_long2_rteDv2_t=0x852db720;
_Z17convert_long2_rtnDv2_c=0x852c5b40;
_Z17convert_long2_rtnDv2_d=0x8528cba0;
_Z17convert_long2_rtnDv2_f=0x852a9120;
_Z17convert_long2_rtnDv2_h=0x852db740;
_Z17convert_long2_rtnDv2_i=0x852db760;
_Z17convert_long2_rtnDv2_j=0x852db780;
_Z17convert_long2_rtnDv2_l=0x852db7a0;
_Z17convert_long2_rtnDv2_m=0x852db7c0;
_Z17convert_long2_rtnDv2_s=0x852db7e0;
_Z17convert_long2_rtnDv2_t=0x852db800;
_Z17convert_long2_rtpDv2_c=0x852c5b80;
_Z17convert_long2_rtpDv2_d=0x8528cc20;
_Z17convert_long2_rtpDv2_f=0x852a9180;
_Z17convert_long2_rtpDv2_h=0x852db820;
_Z17convert_long2_rtpDv2_i=0x852db840;
_Z17convert_long2_rtpDv2_j=0x852db860;
_Z17convert_long2_rtpDv2_l=0x852db880;
_Z17convert_long2_rtpDv2_m=0x852db8a0;
_Z17convert_long2_rtpDv2_s=0x852db8c0;
_Z17convert_long2_rtpDv2_t=0x852db8e0;
_Z17convert_long2_rtzDv2_c=0x852c5bc0;
_Z17convert_long2_rtzDv2_d=0x852a91e0;
_Z17convert_long2_rtzDv2_f=0x852a9240;
_Z17convert_long2_rtzDv2_h=0x852db900;
_Z17convert_long2_rtzDv2_i=0x852db920;
_Z17convert_long2_rtzDv2_j=0x852db940;
_Z17convert_long2_rtzDv2_l=0x852db960;
_Z17convert_long2_rtzDv2_m=0x852db980;
_Z17convert_long2_rtzDv2_s=0x852db9a0;
_Z17convert_long2_rtzDv2_t=0x852db9c0;
_Z17convert_long2_satDv2_c=0x852c5c00;
_Z17convert_long2_satDv2_d=0x85229ba0;
_Z17convert_long2_satDv2_f=0x85241680;
_Z17convert_long2_satDv2_h=0x852db9e0;
_Z17convert_long2_satDv2_i=0x852dba00;
_Z17convert_long2_satDv2_j=0x852dba20;
_Z17convert_long2_satDv2_l=0x852dba40;
_Z17convert_long2_satDv2_m=0x852c5c40;
_Z17convert_long2_satDv2_s=0x852dba60;
_Z17convert_long2_satDv2_t=0x852dba80;
_Z17convert_long3_rteDv3_c=0x8528cca0;
_Z17convert_long3_rteDv3_d=0x85229ca0;
_Z17convert_long3_rteDv3_f=0x85241760;
_Z17convert_long3_rteDv3_h=0x8528cd20;
_Z17convert_long3_rteDv3_i=0x852a92a0;
_Z17convert_long3_rteDv3_j=0x852a9300;
_Z17convert_long3_rteDv3_l=0x852a9360;
_Z17convert_long3_rteDv3_m=0x852a93c0;
_Z17convert_long3_rteDv3_s=0x852a9420;
_Z17convert_long3_rteDv3_t=0x852a9480;
_Z17convert_long3_rtnDv3_c=0x8528cda0;
_Z17convert_long3_rtnDv3_d=0x85229da0;
_Z17convert_long3_rtnDv3_f=0x85241840;
_Z17convert_long3_rtnDv3_h=0x8528ce20;
_Z17convert_long3_rtnDv3_i=0x852a94e0;
_Z17convert_long3_rtnDv3_j=0x852a9540;
_Z17convert_long3_rtnDv3_l=0x852a95a0;
_Z17convert_long3_rtnDv3_m=0x852a9600;
_Z17convert_long3_rtnDv3_s=0x852a9660;
_Z17convert_long3_rtnDv3_t=0x852a96c0;
_Z17convert_long3_rtpDv3_c=0x8528cea0;
_Z17convert_long3_rtpDv3_d=0x85229ea0;
_Z17convert_long3_rtpDv3_f=0x85241920;
_Z17convert_long3_rtpDv3_h=0x8528cf20;
_Z17convert_long3_rtpDv3_i=0x852a9720;
_Z17convert_long3_rtpDv3_j=0x852a9780;
_Z17convert_long3_rtpDv3_l=0x852a97e0;
_Z17convert_long3_rtpDv3_m=0x852a9840;
_Z17convert_long3_rtpDv3_s=0x852a98a0;
_Z17convert_long3_rtpDv3_t=0x852a9900;
_Z17convert_long3_rtzDv3_c=0x8528cfa0;
_Z17convert_long3_rtzDv3_d=0x8525ec40;
_Z17convert_long3_rtzDv3_f=0x8525ed00;
_Z17convert_long3_rtzDv3_h=0x8528d020;
_Z17convert_long3_rtzDv3_i=0x852a9960;
_Z17convert_long3_rtzDv3_j=0x852a99c0;
_Z17convert_long3_rtzDv3_l=0x852a9a20;
_Z17convert_long3_rtzDv3_m=0x852a9a80;
_Z17convert_long3_rtzDv3_s=0x852a9ae0;
_Z17convert_long3_rtzDv3_t=0x852a9b40;
_Z17convert_long3_satDv3_c=0x8528d0a0;
_Z17convert_long3_satDv3_d=0x8519bda0;
_Z17convert_long3_satDv3_f=0x8519bf60;
_Z17convert_long3_satDv3_h=0x8528d120;
_Z17convert_long3_satDv3_i=0x852a9ba0;
_Z17convert_long3_satDv3_j=0x852a9c00;
_Z17convert_long3_satDv3_l=0x852a9c60;
_Z17convert_long3_satDv3_m=0x85276580;
_Z17convert_long3_satDv3_s=0x852a9cc0;
_Z17convert_long3_satDv3_t=0x852a9d20;
_Z17convert_long4_rteDv4_c=0x8528d1a0;
_Z17convert_long4_rteDv4_d=0x85213540;
_Z17convert_long4_rteDv4_f=0x85213660;
_Z17convert_long4_rteDv4_h=0x8528d220;
_Z17convert_long4_rteDv4_i=0x8528d2a0;
_Z17convert_long4_rteDv4_j=0x8528d320;
_Z17convert_long4_rteDv4_l=0x852a9d80;
_Z17convert_long4_rteDv4_m=0x852a9de0;
_Z17convert_long4_rteDv4_s=0x8528d3a0;
_Z17convert_long4_rteDv4_t=0x8528d420;
_Z17convert_long4_rtnDv4_c=0x8528d4a0;
_Z17convert_long4_rtnDv4_d=0x85213780;
_Z17convert_long4_rtnDv4_f=0x852138a0;
_Z17convert_long4_rtnDv4_h=0x8528d520;
_Z17convert_long4_rtnDv4_i=0x8528d5a0;
_Z17convert_long4_rtnDv4_j=0x8528d620;
_Z17convert_long4_rtnDv4_l=0x852a9e40;
_Z17convert_long4_rtnDv4_m=0x852a9ea0;
_Z17convert_long4_rtnDv4_s=0x8528d6a0;
_Z17convert_long4_rtnDv4_t=0x8528d720;
_Z17convert_long4_rtpDv4_c=0x8528d7a0;
_Z17convert_long4_rtpDv4_d=0x852139c0;
_Z17convert_long4_rtpDv4_f=0x85213ae0;
_Z17convert_long4_rtpDv4_h=0x8528d820;
_Z17convert_long4_rtpDv4_i=0x8528d8a0;
_Z17convert_long4_rtpDv4_j=0x8528d920;
_Z17convert_long4_rtpDv4_l=0x852a9f00;
_Z17convert_long4_rtpDv4_m=0x852a9f60;
_Z17convert_long4_rtpDv4_s=0x8528d9a0;
_Z17convert_long4_rtpDv4_t=0x8528da20;
_Z17convert_long4_rtzDv4_c=0x8528daa0;
_Z17convert_long4_rtzDv4_d=0x85241a00;
_Z17convert_long4_rtzDv4_f=0x85229fa0;
_Z17convert_long4_rtzDv4_h=0x8528db20;
_Z17convert_long4_rtzDv4_i=0x8528dba0;
_Z17convert_long4_rtzDv4_j=0x8528dc20;
_Z17convert_long4_rtzDv4_l=0x852a9fc0;
_Z17convert_long4_rtzDv4_m=0x852aa020;
_Z17convert_long4_rtzDv4_s=0x8528dca0;
_Z17convert_long4_rtzDv4_t=0x8528dd20;
_Z17convert_long4_satDv4_c=0x8528dda0;
_Z17convert_long4_satDv4_d=0x8515d380;
_Z17convert_long4_satDv4_f=0x851789a0;
_Z17convert_long4_satDv4_h=0x8528de20;
_Z17convert_long4_satDv4_i=0x8528dea0;
_Z17convert_long4_satDv4_j=0x8528df20;
_Z17convert_long4_satDv4_l=0x852aa080;
_Z17convert_long4_satDv4_m=0x8525edc0;
_Z17convert_long4_satDv4_s=0x8528dfa0;
_Z17convert_long4_satDv4_t=0x8528e020;
_Z17convert_long8_rteDv8_c=0x85241ae0;
_Z17convert_long8_rteDv8_d=0x8515d5c0;
_Z17convert_long8_rteDv8_f=0x8516bf00;
_Z17convert_long8_rteDv8_h=0x85241bc0;
_Z17convert_long8_rteDv8_i=0x8525ee80;
_Z17convert_long8_rteDv8_j=0x85241ca0;
_Z17convert_long8_rteDv8_l=0x852aa0e0;
_Z17convert_long8_rteDv8_m=0x8522a0a0;
_Z17convert_long8_rteDv8_s=0x85241d80;
_Z17convert_long8_rteDv8_t=0x8525ef40;
_Z17convert_long8_rtnDv8_c=0x85241e60;
_Z17convert_long8_rtnDv8_d=0x8515d800;
_Z17convert_long8_rtnDv8_f=0x8516c120;
_Z17convert_long8_rtnDv8_h=0x85241f40;
_Z17convert_long8_rtnDv8_i=0x8525f000;
_Z17convert_long8_rtnDv8_j=0x85242020;
_Z17convert_long8_rtnDv8_l=0x852aa140;
_Z17convert_long8_rtnDv8_m=0x8522a1a0;
_Z17convert_long8_rtnDv8_s=0x85242100;
_Z17convert_long8_rtnDv8_t=0x8525f0c0;
_Z17convert_long8_rtpDv8_c=0x852421e0;
_Z17convert_long8_rtpDv8_d=0x8515da40;
_Z17convert_long8_rtpDv8_f=0x8516c340;
_Z17convert_long8_rtpDv8_h=0x852422c0;
_Z17convert_long8_rtpDv8_i=0x8525f180;
_Z17convert_long8_rtpDv8_j=0x852423a0;
_Z17convert_long8_rtpDv8_l=0x852aa1a0;
_Z17convert_long8_rtpDv8_m=0x8522a2a0;
_Z17convert_long8_rtpDv8_s=0x85242480;
_Z17convert_long8_rtpDv8_t=0x8525f240;
_Z17convert_long8_rtzDv8_c=0x85242560;
_Z17convert_long8_rtzDv8_d=0x851dee60;
_Z17convert_long8_rtzDv8_f=0x851defc0;
_Z17convert_long8_rtzDv8_h=0x85242640;
_Z17convert_long8_rtzDv8_i=0x8525f300;
_Z17convert_long8_rtzDv8_j=0x85242720;
_Z17convert_long8_rtzDv8_l=0x852aa200;
_Z17convert_long8_rtzDv8_m=0x8522a3a0;
_Z17convert_long8_rtzDv8_s=0x85242800;
_Z17convert_long8_rtzDv8_t=0x8525f3c0;
_Z17convert_long8_satDv8_c=0x852428e0;
_Z17convert_long8_satDv8_d=0x850da760;
_Z17convert_long8_satDv8_f=0x850d0ea0;
_Z17convert_long8_satDv8_h=0x852429c0;
_Z17convert_long8_satDv8_i=0x8525f480;
_Z17convert_long8_satDv8_j=0x85242aa0;
_Z17convert_long8_satDv8_l=0x852aa260;
_Z17convert_long8_satDv8_m=0x851fa440;
_Z17convert_long8_satDv8_s=0x85242b80;
_Z17convert_long8_satDv8_t=0x8525f540;
_Z17convert_short_rtec=0x852dbaa0;
_Z17convert_short_rted=0x852dbac0;
_Z17convert_short_rtef=0x852dbae0;
_Z17convert_short_rteh=0x852dbb00;
_Z17convert_short_rtei=0x852dbb20;
_Z17convert_short_rtej=0x852dbb40;
_Z17convert_short_rtel=0x852dbb60;
_Z17convert_short_rtem=0x852dbb80;
_Z17convert_short_rtes=0x852dbba0;
_Z17convert_short_rtet=0x852dbbc0;
_Z17convert_short_rtnc=0x852dbbe0;
_Z17convert_short_rtnd=0x852dbc00;
_Z17convert_short_rtnf=0x852dbc20;
_Z17convert_short_rtnh=0x852dbc40;
_Z17convert_short_rtni=0x852dbc60;
_Z17convert_short_rtnj=0x852dbc80;
_Z17convert_short_rtnl=0x852dbca0;
_Z17convert_short_rtnm=0x852dbcc0;
_Z17convert_short_rtns=0x852dbce0;
_Z17convert_short_rtnt=0x852dbd00;
_Z17convert_short_rtpc=0x852dbd20;
_Z17convert_short_rtpd=0x852dbd40;
_Z17convert_short_rtpf=0x852dbd60;
_Z17convert_short_rtph=0x852dbd80;
_Z17convert_short_rtpi=0x852dbda0;
_Z17convert_short_rtpj=0x852dbdc0;
_Z17convert_short_rtpl=0x852dbde0;
_Z17convert_short_rtpm=0x852dbe00;
_Z17convert_short_rtps=0x852dbe20;
_Z17convert_short_rtpt=0x852dbe40;
_Z17convert_short_rtzc=0x852dbe60;
_Z17convert_short_rtzd=0x852dbe80;
_Z17convert_short_rtzf=0x852dbea0;
_Z17convert_short_rtzh=0x852dbec0;
_Z17convert_short_rtzi=0x852dbee0;
_Z17convert_short_rtzj=0x852dbf00;
_Z17convert_short_rtzl=0x852dbf20;
_Z17convert_short_rtzm=0x852dbf40;
_Z17convert_short_rtzs=0x852dbf60;
_Z17convert_short_rtzt=0x852dbf80;
_Z17convert_short_satc=0x852dbfa0;
_Z17convert_short_satd=0x852c5c80;
_Z17convert_short_satf=0x852c5cc0;
_Z17convert_short_sath=0x852dbfc0;
_Z17convert_short_sati=0x852c5d00;
_Z17convert_short_satj=0x852dbfe0;
_Z17convert_short_satl=0x852c5d40;
_Z17convert_short_satm=0x852c5d80;
_Z17convert_short_sats=0x852dc000;
_Z17convert_short_satt=0x852dc020;
_Z17convert_uchar_rtec=0x852dc040;
_Z17convert_uchar_rted=0x852c5dc0;
_Z17convert_uchar_rtef=0x852c5e00;
_Z17convert_uchar_rteh=0x852dc060;
_Z17convert_uchar_rtei=0x852dc080;
_Z17convert_uchar_rtej=0x852dc0a0;
_Z17convert_uchar_rtel=0x852dc0c0;
_Z17convert_uchar_rtem=0x852dc0e0;
_Z17convert_uchar_rtes=0x852dc100;
_Z17convert_uchar_rtet=0x852dc120;
_Z17convert_uchar_rtnc=0x852dc140;
_Z17convert_uchar_rtnd=0x852c5e40;
_Z17convert_uchar_rtnf=0x852c5e80;
_Z17convert_uchar_rtnh=0x852dc160;
_Z17convert_uchar_rtni=0x852dc180;
_Z17convert_uchar_rtnj=0x852dc1a0;
_Z17convert_uchar_rtnl=0x852dc1c0;
_Z17convert_uchar_rtnm=0x852dc1e0;
_Z17convert_uchar_rtns=0x852dc200;
_Z17convert_uchar_rtnt=0x852dc220;
_Z17convert_uchar_rtpc=0x852dc240;
_Z17convert_uchar_rtpd=0x852c5ec0;
_Z17convert_uchar_rtpf=0x852c5f00;
_Z17convert_uchar_rtph=0x852dc260;
_Z17convert_uchar_rtpi=0x852dc280;
_Z17convert_uchar_rtpj=0x852dc2a0;
_Z17convert_uchar_rtpl=0x852dc2c0;
_Z17convert_uchar_rtpm=0x852dc2e0;
_Z17convert_uchar_rtps=0x852dc300;
_Z17convert_uchar_rtpt=0x852dc320;
_Z17convert_uchar_rtzc=0x852dc340;
_Z17convert_uchar_rtzd=0x852dc360;
_Z17convert_uchar_rtzf=0x852dc380;
_Z17convert_uchar_rtzh=0x852dc3a0;
_Z17convert_uchar_rtzi=0x852dc3c0;
_Z17convert_uchar_rtzj=0x852dc3e0;
_Z17convert_uchar_rtzl=0x852dc400;
_Z17convert_uchar_rtzm=0x852dc420;
_Z17convert_uchar_rtzs=0x852dc440;
_Z17convert_uchar_rtzt=0x852dc460;
_Z17convert_uchar_satc=0x852dc480;
_Z17convert_uchar_satd=0x8528e0a0;
_Z17convert_uchar_satf=0x8528e120;
_Z17convert_uchar_sath=0x852dc4a0;
_Z17convert_uchar_sati=0x852c5f40;
_Z17convert_uchar_satj=0x852dc4c0;
_Z17convert_uchar_satl=0x852c5f80;
_Z17convert_uchar_satm=0x852dc4e0;
_Z17convert_uchar_sats=0x852c5fc0;
_Z17convert_uchar_satt=0x852dc500;
_Z17convert_uint2_rteDv2_c=0x852dc520;
_Z17convert_uint2_rteDv2_d=0x8528e1a0;
_Z17convert_uint2_rteDv2_f=0x852aa2c0;
_Z17convert_uint2_rteDv2_h=0x852dc540;
_Z17convert_uint2_rteDv2_i=0x852dc560;
_Z17convert_uint2_rteDv2_j=0x852dc580;
_Z17convert_uint2_rteDv2_l=0x852dc5a0;
_Z17convert_uint2_rteDv2_m=0x852dc5c0;
_Z17convert_uint2_rteDv2_s=0x852dc5e0;
_Z17convert_uint2_rteDv2_t=0x852dc600;
_Z17convert_uint2_rtnDv2_c=0x852dc620;
_Z17convert_uint2_rtnDv2_d=0x8528e220;
_Z17convert_uint2_rtnDv2_f=0x852aa320;
_Z17convert_uint2_rtnDv2_h=0x852dc640;
_Z17convert_uint2_rtnDv2_i=0x852dc660;
_Z17convert_uint2_rtnDv2_j=0x852dc680;
_Z17convert_uint2_rtnDv2_l=0x852dc6a0;
_Z17convert_uint2_rtnDv2_m=0x852dc6c0;
_Z17convert_uint2_rtnDv2_s=0x852dc6e0;
_Z17convert_uint2_rtnDv2_t=0x852dc700;
_Z17convert_uint2_rtpDv2_c=0x852dc720;
_Z17convert_uint2_rtpDv2_d=0x8528e2a0;
_Z17convert_uint2_rtpDv2_f=0x852aa380;
_Z17convert_uint2_rtpDv2_h=0x852dc740;
_Z17convert_uint2_rtpDv2_i=0x852dc760;
_Z17convert_uint2_rtpDv2_j=0x852dc780;
_Z17convert_uint2_rtpDv2_l=0x852dc7a0;
_Z17convert_uint2_rtpDv2_m=0x852dc7c0;
_Z17convert_uint2_rtpDv2_s=0x852dc7e0;
_Z17convert_uint2_rtpDv2_t=0x852dc800;
_Z17convert_uint2_rtzDv2_c=0x852dc820;
_Z17convert_uint2_rtzDv2_d=0x852aa3e0;
_Z17convert_uint2_rtzDv2_f=0x852aa440;
_Z17convert_uint2_rtzDv2_h=0x852dc840;
_Z17convert_uint2_rtzDv2_i=0x852dc860;
_Z17convert_uint2_rtzDv2_j=0x852dc880;
_Z17convert_uint2_rtzDv2_l=0x852dc8a0;
_Z17convert_uint2_rtzDv2_m=0x852dc8c0;
_Z17convert_uint2_rtzDv2_s=0x852dc8e0;
_Z17convert_uint2_rtzDv2_t=0x852dc900;
_Z17convert_uint2_satDv2_c=0x852c6000;
_Z17convert_uint2_satDv2_d=0x85242c60;
_Z17convert_uint2_satDv2_f=0x8525f600;
_Z17convert_uint2_satDv2_h=0x852dc920;
_Z17convert_uint2_satDv2_i=0x852c6040;
_Z17convert_uint2_satDv2_j=0x852dc940;
_Z17convert_uint2_satDv2_l=0x852aa4a0;
_Z17convert_uint2_satDv2_m=0x852c6080;
_Z17convert_uint2_satDv2_s=0x852c60c0;
_Z17convert_uint2_satDv2_t=0x852dc960;
_Z17convert_uint3_rteDv3_c=0x852dc980;
_Z17convert_uint3_rteDv3_d=0x85276620;
_Z17convert_uint3_rteDv3_f=0x852766c0;
_Z17convert_uint3_rteDv3_h=0x852dc9a0;
_Z17convert_uint3_rteDv3_i=0x852dc9c0;
_Z17convert_uint3_rteDv3_j=0x852dc9e0;
_Z17convert_uint3_rteDv3_l=0x852dca00;
_Z17convert_uint3_rteDv3_m=0x852dca20;
_Z17convert_uint3_rteDv3_s=0x852dca40;
_Z17convert_uint3_rteDv3_t=0x852dca60;
_Z17convert_uint3_rtnDv3_c=0x852dca80;
_Z17convert_uint3_rtnDv3_d=0x85276760;
_Z17convert_uint3_rtnDv3_f=0x85276800;
_Z17convert_uint3_rtnDv3_h=0x852dcaa0;
_Z17convert_uint3_rtnDv3_i=0x852dcac0;
_Z17convert_uint3_rtnDv3_j=0x852dcae0;
_Z17convert_uint3_rtnDv3_l=0x852dcb00;
_Z17convert_uint3_rtnDv3_m=0x852dcb20;
_Z17convert_uint3_rtnDv3_s=0x852dcb40;
_Z17convert_uint3_rtnDv3_t=0x852dcb60;
_Z17convert_uint3_rtpDv3_c=0x852dcb80;
_Z17convert_uint3_rtpDv3_d=0x852768a0;
_Z17convert_uint3_rtpDv3_f=0x85276940;
_Z17convert_uint3_rtpDv3_h=0x852dcba0;
_Z17convert_uint3_rtpDv3_i=0x852dcbc0;
_Z17convert_uint3_rtpDv3_j=0x852dcbe0;
_Z17convert_uint3_rtpDv3_l=0x852dcc00;
_Z17convert_uint3_rtpDv3_m=0x852dcc20;
_Z17convert_uint3_rtpDv3_s=0x852dcc40;
_Z17convert_uint3_rtpDv3_t=0x852dcc60;
_Z17convert_uint3_rtzDv3_c=0x852dcc80;
_Z17convert_uint3_rtzDv3_d=0x852aa500;
_Z17convert_uint3_rtzDv3_f=0x8528e320;
_Z17convert_uint3_rtzDv3_h=0x852dcca0;
_Z17convert_uint3_rtzDv3_i=0x852dccc0;
_Z17convert_uint3_rtzDv3_j=0x852dcce0;
_Z17convert_uint3_rtzDv3_l=0x852dcd00;
_Z17convert_uint3_rtzDv3_m=0x852dcd20;
_Z17convert_uint3_rtzDv3_s=0x852dcd40;
_Z17convert_uint3_rtzDv3_t=0x852dcd60;
_Z17convert_uint3_satDv3_c=0x852c6100;
_Z17convert_uint3_satDv3_d=0x851fa580;
_Z17convert_uint3_satDv3_f=0x85213c00;
_Z17convert_uint3_satDv3_h=0x852dcd80;
_Z17convert_uint3_satDv3_i=0x852c6140;
_Z17convert_uint3_satDv3_j=0x852dcda0;
_Z17convert_uint3_satDv3_l=0x852769e0;
_Z17convert_uint3_satDv3_m=0x852aa560;
_Z17convert_uint3_satDv3_s=0x852c6180;
_Z17convert_uint3_satDv3_t=0x852dcdc0;
_Z17convert_uint4_rteDv4_c=0x852c61c0;
_Z17convert_uint4_rteDv4_d=0x8522a4a0;
_Z17convert_uint4_rteDv4_f=0x8525f6c0;
_Z17convert_uint4_rteDv4_h=0x852c6200;
_Z17convert_uint4_rteDv4_i=0x852dcde0;
_Z17convert_uint4_rteDv4_j=0x852dce00;
_Z17convert_uint4_rteDv4_l=0x852dce20;
_Z17convert_uint4_rteDv4_m=0x852dce40;
_Z17convert_uint4_rteDv4_s=0x852dce60;
_Z17convert_uint4_rteDv4_t=0x852dce80;
_Z17convert_uint4_rtnDv4_c=0x852c6240;
_Z17convert_uint4_rtnDv4_d=0x8522a5a0;
_Z17convert_uint4_rtnDv4_f=0x8525f780;
_Z17convert_uint4_rtnDv4_h=0x852c6280;
_Z17convert_uint4_rtnDv4_i=0x852dcea0;
_Z17convert_uint4_rtnDv4_j=0x852dcec0;
_Z17convert_uint4_rtnDv4_l=0x852dcee0;
_Z17convert_uint4_rtnDv4_m=0x852dcf00;
_Z17convert_uint4_rtnDv4_s=0x852dcf20;
_Z17convert_uint4_rtnDv4_t=0x852dcf40;
_Z17convert_uint4_rtpDv4_c=0x852c62c0;
_Z17convert_uint4_rtpDv4_d=0x8522a6a0;
_Z17convert_uint4_rtpDv4_f=0x8525f840;
_Z17convert_uint4_rtpDv4_h=0x852c6300;
_Z17convert_uint4_rtpDv4_i=0x852dcf60;
_Z17convert_uint4_rtpDv4_j=0x852dcf80;
_Z17convert_uint4_rtpDv4_l=0x852dcfa0;
_Z17convert_uint4_rtpDv4_m=0x852dcfc0;
_Z17convert_uint4_rtpDv4_s=0x852dcfe0;
_Z17convert_uint4_rtpDv4_t=0x852dd000;
_Z17convert_uint4_rtzDv4_c=0x852c6340;
_Z17convert_uint4_rtzDv4_d=0x8528e3a0;
_Z17convert_uint4_rtzDv4_f=0x8528e420;
_Z17convert_uint4_rtzDv4_h=0x852c6380;
_Z17convert_uint4_rtzDv4_i=0x852dd020;
_Z17convert_uint4_rtzDv4_j=0x852dd040;
_Z17convert_uint4_rtzDv4_l=0x852dd060;
_Z17convert_uint4_rtzDv4_m=0x852dd080;
_Z17convert_uint4_rtzDv4_s=0x852dd0a0;
_Z17convert_uint4_rtzDv4_t=0x852dd0c0;
_Z17convert_uint4_satDv4_c=0x852aa5c0;
_Z17convert_uint4_satDv4_d=0x851c70c0;
_Z17convert_uint4_satDv4_f=0x851c7240;
_Z17convert_uint4_satDv4_h=0x852c63c0;
_Z17convert_uint4_satDv4_i=0x852aa620;
_Z17convert_uint4_satDv4_j=0x852dd0e0;
_Z17convert_uint4_satDv4_l=0x85242d40;
_Z17convert_uint4_satDv4_m=0x8528e4a0;
_Z17convert_uint4_satDv4_s=0x852aa680;
_Z17convert_uint4_satDv4_t=0x852dd100;
_Z17convert_uint8_rteDv8_c=0x8528e520;
_Z17convert_uint8_rteDv8_d=0x851879a0;
_Z17convert_uint8_rteDv8_f=0x85187b80;
_Z17convert_uint8_rteDv8_h=0x8528e5a0;
_Z17convert_uint8_rteDv8_i=0x852aa6e0;
_Z17convert_uint8_rteDv8_j=0x852aa740;
_Z17convert_uint8_rteDv8_l=0x852aa7a0;
_Z17convert_uint8_rteDv8_m=0x852aa800;
_Z17convert_uint8_rteDv8_s=0x8528e620;
_Z17convert_uint8_rteDv8_t=0x8528e6a0;
_Z17convert_uint8_rtnDv8_c=0x8528e720;
_Z17convert_uint8_rtnDv8_d=0x85187d60;
_Z17convert_uint8_rtnDv8_f=0x85187f40;
_Z17convert_uint8_rtnDv8_h=0x8528e7a0;
_Z17convert_uint8_rtnDv8_i=0x852aa860;
_Z17convert_uint8_rtnDv8_j=0x852aa8c0;
_Z17convert_uint8_rtnDv8_l=0x852aa920;
_Z17convert_uint8_rtnDv8_m=0x852aa980;
_Z17convert_uint8_rtnDv8_s=0x8528e820;
_Z17convert_uint8_rtnDv8_t=0x8528e8a0;
_Z17convert_uint8_rtpDv8_c=0x8528e920;
_Z17convert_uint8_rtpDv8_d=0x85188120;
_Z17convert_uint8_rtpDv8_f=0x85188300;
_Z17convert_uint8_rtpDv8_h=0x8528e9a0;
_Z17convert_uint8_rtpDv8_i=0x852aa9e0;
_Z17convert_uint8_rtpDv8_j=0x852aaa40;
_Z17convert_uint8_rtpDv8_l=0x852aaaa0;
_Z17convert_uint8_rtpDv8_m=0x852aab00;
_Z17convert_uint8_rtpDv8_s=0x8528ea20;
_Z17convert_uint8_rtpDv8_t=0x8528eaa0;
_Z17convert_uint8_rtzDv8_c=0x8528eb20;
_Z17convert_uint8_rtzDv8_d=0x85213d20;
_Z17convert_uint8_rtzDv8_f=0x85213e40;
_Z17convert_uint8_rtzDv8_h=0x8528eba0;
_Z17convert_uint8_rtzDv8_i=0x852aab60;
_Z17convert_uint8_rtzDv8_j=0x852aabc0;
_Z17convert_uint8_rtzDv8_l=0x852aac20;
_Z17convert_uint8_rtzDv8_m=0x852aac80;
_Z17convert_uint8_rtzDv8_s=0x8528ec20;
_Z17convert_uint8_rtzDv8_t=0x8528eca0;
_Z17convert_uint8_satDv8_c=0x85242e20;
_Z17convert_uint8_satDv8_d=0x8510ac40;
_Z17convert_uint8_satDv8_f=0x8511a420;
_Z17convert_uint8_satDv8_h=0x8528ed20;
_Z17convert_uint8_satDv8_i=0x85242f00;
_Z17convert_uint8_satDv8_j=0x852aace0;
_Z17convert_uint8_satDv8_l=0x851514a0;
_Z17convert_uint8_satDv8_m=0x851df120;
_Z17convert_uint8_satDv8_s=0x85242fe0;
_Z17convert_uint8_satDv8_t=0x8528eda0;
_Z17convert_ulong_rtec=0x852dd120;
_Z17convert_ulong_rted=0x852dd140;
_Z17convert_ulong_rtef=0x852dd160;
_Z17convert_ulong_rteh=0x852dd180;
_Z17convert_ulong_rtei=0x852dd1a0;
_Z17convert_ulong_rtej=0x852dd1c0;
_Z17convert_ulong_rtel=0x852dd1e0;
_Z17convert_ulong_rtem=0x852dd200;
_Z17convert_ulong_rtes=0x852dd220;
_Z17convert_ulong_rtet=0x852dd240;
_Z17convert_ulong_rtnc=0x852dd260;
_Z17convert_ulong_rtnd=0x852dd280;
_Z17convert_ulong_rtnf=0x852dd2a0;
_Z17convert_ulong_rtnh=0x852dd2c0;
_Z17convert_ulong_rtni=0x852dd2e0;
_Z17convert_ulong_rtnj=0x852dd300;
_Z17convert_ulong_rtnl=0x852dd320;
_Z17convert_ulong_rtnm=0x852dd340;
_Z17convert_ulong_rtns=0x852dd360;
_Z17convert_ulong_rtnt=0x852dd380;
_Z17convert_ulong_rtpc=0x852dd3a0;
_Z17convert_ulong_rtpd=0x852dd3c0;
_Z17convert_ulong_rtpf=0x852dd3e0;
_Z17convert_ulong_rtph=0x852dd400;
_Z17convert_ulong_rtpi=0x852dd420;
_Z17convert_ulong_rtpj=0x852dd440;
_Z17convert_ulong_rtpl=0x852dd460;
_Z17convert_ulong_rtpm=0x852dd480;
_Z17convert_ulong_rtps=0x852dd4a0;
_Z17convert_ulong_rtpt=0x852dd4c0;
_Z17convert_ulong_rtzc=0x852dd4e0;
_Z17convert_ulong_rtzd=0x852dd500;
_Z17convert_ulong_rtzf=0x852dd520;
_Z17convert_ulong_rtzh=0x852dd540;
_Z17convert_ulong_rtzi=0x852dd560;
_Z17convert_ulong_rtzj=0x852dd580;
_Z17convert_ulong_rtzl=0x852dd5a0;
_Z17convert_ulong_rtzm=0x852dd5c0;
_Z17convert_ulong_rtzs=0x852dd5e0;
_Z17convert_ulong_rtzt=0x852dd600;
_Z17convert_ulong_satc=0x852dd620;
_Z17convert_ulong_satd=0x8528ee20;
_Z17convert_ulong_satf=0x8528eea0;
_Z17convert_ulong_sath=0x852dd640;
_Z17convert_ulong_sati=0x852dd660;
_Z17convert_ulong_satj=0x852dd680;
_Z17convert_ulong_satl=0x852dd6a0;
_Z17convert_ulong_satm=0x852dd6c0;
_Z17convert_ulong_sats=0x852dd6e0;
_Z17convert_ulong_satt=0x852dd700;
_Z17vstorea_half2_rteDv2_fjPDh=0x852dd720;
_Z17vstorea_half2_rteDv2_fjPU7CLlocalDh=0x852dd740;
_Z17vstorea_half2_rteDv2_fjPU8CLglobalDh=0x852dd760;
_Z17vstorea_half2_rtnDv2_fjPDh=0x852dd780;
_Z17vstorea_half2_rtnDv2_fjPU7CLlocalDh=0x852dd7a0;
_Z17vstorea_half2_rtnDv2_fjPU8CLglobalDh=0x852dd7c0;
_Z17vstorea_half2_rtpDv2_fjPDh=0x852dd7e0;
_Z17vstorea_half2_rtpDv2_fjPU7CLlocalDh=0x852dd800;
_Z17vstorea_half2_rtpDv2_fjPU8CLglobalDh=0x852dd820;
_Z17vstorea_half2_rtzDv2_fjPDh=0x8522a7a0;
_Z17vstorea_half2_rtzDv2_fjPU7CLlocalDh=0x8522a8a0;
_Z17vstorea_half2_rtzDv2_fjPU8CLglobalDh=0x8522a9a0;
_Z17vstorea_half3_rteDv3_fjPDh=0x8516c560;
_Z17vstorea_half3_rteDv3_fjPU7CLlocalDh=0x8516c780;
_Z17vstorea_half3_rteDv3_fjPU8CLglobalDh=0x8516c9a0;
_Z17vstorea_half3_rtnDv3_fjPDh=0x8516cbc0;
_Z17vstorea_half3_rtnDv3_fjPU7CLlocalDh=0x8516cde0;
_Z17vstorea_half3_rtnDv3_fjPU8CLglobalDh=0x8516d000;
_Z17vstorea_half3_rtpDv3_fjPDh=0x8516d220;
_Z17vstorea_half3_rtpDv3_fjPU7CLlocalDh=0x8516d440;
_Z17vstorea_half3_rtpDv3_fjPU8CLglobalDh=0x8516d660;
_Z17vstorea_half3_rtzDv3_fjPDh=0x851df280;
_Z17vstorea_half3_rtzDv3_fjPU7CLlocalDh=0x851df3e0;
_Z17vstorea_half3_rtzDv3_fjPU8CLglobalDh=0x851df540;
_Z17vstorea_half4_rteDv4_fjPDh=0x852c6400;
_Z17vstorea_half4_rteDv4_fjPU7CLlocalDh=0x852c6440;
_Z17vstorea_half4_rteDv4_fjPU8CLglobalDh=0x852c6480;
_Z17vstorea_half4_rtnDv4_fjPDh=0x852c64c0;
_Z17vstorea_half4_rtnDv4_fjPU7CLlocalDh=0x852c6500;
_Z17vstorea_half4_rtnDv4_fjPU8CLglobalDh=0x852c6540;
_Z17vstorea_half4_rtpDv4_fjPDh=0x852c6580;
_Z17vstorea_half4_rtpDv4_fjPU7CLlocalDh=0x852c65c0;
_Z17vstorea_half4_rtpDv4_fjPU8CLglobalDh=0x852c6600;
_Z17vstorea_half4_rtzDv4_fjPDh=0x851884e0;
_Z17vstorea_half4_rtzDv4_fjPU7CLlocalDh=0x851886c0;
_Z17vstorea_half4_rtzDv4_fjPU8CLglobalDh=0x851888a0;
_Z17vstorea_half8_rteDv8_fjPDh=0x85276a80;
_Z17vstorea_half8_rteDv8_fjPU7CLlocalDh=0x85276b20;
_Z17vstorea_half8_rteDv8_fjPU8CLglobalDh=0x85276bc0;
_Z17vstorea_half8_rtnDv8_fjPDh=0x85276c60;
_Z17vstorea_half8_rtnDv8_fjPU7CLlocalDh=0x85276d00;
_Z17vstorea_half8_rtnDv8_fjPU8CLglobalDh=0x85276da0;
_Z17vstorea_half8_rtpDv8_fjPDh=0x85276e40;
_Z17vstorea_half8_rtpDv8_fjPU7CLlocalDh=0x85276ee0;
_Z17vstorea_half8_rtpDv8_fjPU8CLglobalDh=0x85276f80;
_Z17vstorea_half8_rtzDv8_fjPDh=0x850e7820;
_Z17vstorea_half8_rtzDv8_fjPU7CLlocalDh=0x850e7bc0;
_Z17vstorea_half8_rtzDv8_fjPU8CLglobalDh=0x850e7f60;
_Z17vstore_half16_rteDv16_fjPDh=0x851fa6c0;
_Z17vstore_half16_rteDv16_fjPU7CLlocalDh=0x851fa800;
_Z17vstore_half16_rteDv16_fjPU8CLglobalDh=0x851fa940;
_Z17vstore_half16_rtnDv16_fjPDh=0x851faa80;
_Z17vstore_half16_rtnDv16_fjPU7CLlocalDh=0x851fabc0;
_Z17vstore_half16_rtnDv16_fjPU8CLglobalDh=0x851fad00;
_Z17vstore_half16_rtpDv16_fjPDh=0x851fae40;
_Z17vstore_half16_rtpDv16_fjPU7CLlocalDh=0x851faf80;
_Z17vstore_half16_rtpDv16_fjPU8CLglobalDh=0x851fb0c0;
_Z17vstore_half16_rtzDv16_fjPDh=0x85213f60;
_Z17vstore_half16_rtzDv16_fjPU7CLlocalDh=0x85214080;
_Z17vstore_half16_rtzDv16_fjPU8CLglobalDh=0x852141a0;
_Z17wait_group_eventsiPP11__ocl_event=0x852aad40;
_Z18convert_char16_rteDv16_c=0x852dd840;
_Z18convert_char16_rteDv16_d=0x85151700;
_Z18convert_char16_rteDv16_f=0x8519c120;
_Z18convert_char16_rteDv16_h=0x852dd860;
_Z18convert_char16_rteDv16_i=0x852aada0;
_Z18convert_char16_rteDv16_j=0x852aae00;
_Z18convert_char16_rteDv16_l=0x85277020;
_Z18convert_char16_rteDv16_m=0x852770c0;
_Z18convert_char16_rteDv16_s=0x8528ef20;
_Z18convert_char16_rteDv16_t=0x8528efa0;
_Z18convert_char16_rtnDv16_c=0x852dd880;
_Z18convert_char16_rtnDv16_d=0x85151960;
_Z18convert_char16_rtnDv16_f=0x8519c2e0;
_Z18convert_char16_rtnDv16_h=0x852dd8a0;
_Z18convert_char16_rtnDv16_i=0x852aae60;
_Z18convert_char16_rtnDv16_j=0x852aaec0;
_Z18convert_char16_rtnDv16_l=0x85277160;
_Z18convert_char16_rtnDv16_m=0x85277200;
_Z18convert_char16_rtnDv16_s=0x8528f020;
_Z18convert_char16_rtnDv16_t=0x8528f0a0;
_Z18convert_char16_rtpDv16_c=0x852dd8c0;
_Z18convert_char16_rtpDv16_d=0x85151bc0;
_Z18convert_char16_rtpDv16_f=0x8519c4a0;
_Z18convert_char16_rtpDv16_h=0x852dd8e0;
_Z18convert_char16_rtpDv16_i=0x852aaf20;
_Z18convert_char16_rtpDv16_j=0x852aaf80;
_Z18convert_char16_rtpDv16_l=0x852772a0;
_Z18convert_char16_rtpDv16_m=0x85277340;
_Z18convert_char16_rtpDv16_s=0x8528f120;
_Z18convert_char16_rtpDv16_t=0x8528f1a0;
_Z18convert_char16_rtzDv16_c=0x852dd900;
_Z18convert_char16_rtzDv16_d=0x8525f900;
_Z18convert_char16_rtzDv16_f=0x852773e0;
_Z18convert_char16_rtzDv16_h=0x852dd920;
_Z18convert_char16_rtzDv16_i=0x852aafe0;
_Z18convert_char16_rtzDv16_j=0x852ab040;
_Z18convert_char16_rtzDv16_l=0x85277480;
_Z18convert_char16_rtzDv16_m=0x85277520;
_Z18convert_char16_rtzDv16_s=0x8528f220;
_Z18convert_char16_rtzDv16_t=0x8528f2a0;
_Z18convert_char16_satDv16_c=0x852dd940;
_Z18convert_char16_satDv16_d=0x850a49a0;
_Z18convert_char16_satDv16_f=0x85126040;
_Z18convert_char16_satDv16_h=0x851df6a0;
_Z18convert_char16_satDv16_i=0x850ff680;
_Z18convert_char16_satDv16_j=0x851fb200;
_Z18convert_char16_satDv16_l=0x85073e60;
_Z18convert_char16_satDv16_m=0x851133e0;
_Z18convert_char16_satDv16_s=0x85144d00;
_Z18convert_char16_satDv16_t=0x85188a80;
_Z18convert_double_rtec=0x852dd960;
_Z18convert_double_rted=0x852dd980;
_Z18convert_double_rtef=0x852dd9a0;
_Z18convert_double_rteh=0x852dd9c0;
_Z18convert_double_rtei=0x852dd9e0;
_Z18convert_double_rtej=0x852dda00;
_Z18convert_double_rtel=0x852dda20;
_Z18convert_double_rtem=0x852dda40;
_Z18convert_double_rtes=0x852dda60;
_Z18convert_double_rtet=0x852dda80;
_Z18convert_double_rtnc=0x852ddaa0;
_Z18convert_double_rtnd=0x852ddac0;
_Z18convert_double_rtnf=0x852ddae0;
_Z18convert_double_rtnh=0x852ddb00;
_Z18convert_double_rtni=0x852ddb20;
_Z18convert_double_rtnj=0x852ddb40;
_Z18convert_double_rtnl=0x852ddb60;
_Z18convert_double_rtnm=0x852ddb80;
_Z18convert_double_rtns=0x852ddba0;
_Z18convert_double_rtnt=0x852ddbc0;
_Z18convert_double_rtpc=0x852ddbe0;
_Z18convert_double_rtpd=0x852ddc00;
_Z18convert_double_rtpf=0x852ddc20;
_Z18convert_double_rtph=0x852ddc40;
_Z18convert_double_rtpi=0x852ddc60;
_Z18convert_double_rtpj=0x852ddc80;
_Z18convert_double_rtpl=0x852ddca0;
_Z18convert_double_rtpm=0x852ddcc0;
_Z18convert_double_rtps=0x852ddce0;
_Z18convert_double_rtpt=0x852ddd00;
_Z18convert_double_rtzc=0x852ddd20;
_Z18convert_double_rtzd=0x852ddd40;
_Z18convert_double_rtzf=0x852ddd60;
_Z18convert_double_rtzh=0x852ddd80;
_Z18convert_double_rtzi=0x852ddda0;
_Z18convert_double_rtzj=0x852dddc0;
_Z18convert_double_rtzl=0x852ddde0;
_Z18convert_double_rtzm=0x852dde00;
_Z18convert_double_rtzs=0x852dde20;
_Z18convert_double_rtzt=0x852dde40;
_Z18convert_float2_rteDv2_c=0x852dde60;
_Z18convert_float2_rteDv2_d=0x852c6640;
_Z18convert_float2_rteDv2_f=0x852dde80;
_Z18convert_float2_rteDv2_h=0x852ddea0;
_Z18convert_float2_rteDv2_i=0x852c6680;
_Z18convert_float2_rteDv2_j=0x852c66c0;
_Z18convert_float2_rteDv2_l=0x852ab0a0;
_Z18convert_float2_rteDv2_m=0x852ab100;
_Z18convert_float2_rteDv2_s=0x852ddec0;
_Z18convert_float2_rteDv2_t=0x852ddee0;
_Z18convert_float2_rtnDv2_c=0x852ddf00;
_Z18convert_float2_rtnDv2_d=0x8528f320;
_Z18convert_float2_rtnDv2_f=0x852ddf20;
_Z18convert_float2_rtnDv2_h=0x852ddf40;
_Z18convert_float2_rtnDv2_i=0x852ab160;
_Z18convert_float2_rtnDv2_j=0x852ab1c0;
_Z18convert_float2_rtnDv2_l=0x852ab220;
_Z18convert_float2_rtnDv2_m=0x852ab280;
_Z18convert_float2_rtnDv2_s=0x852ddf60;
_Z18convert_float2_rtnDv2_t=0x852ddf80;
_Z18convert_float2_rtpDv2_c=0x852ddfa0;
_Z18convert_float2_rtpDv2_d=0x8528f3a0;
_Z18convert_float2_rtpDv2_f=0x852ddfc0;
_Z18convert_float2_rtpDv2_h=0x852ddfe0;
_Z18convert_float2_rtpDv2_i=0x852ab2e0;
_Z18convert_float2_rtpDv2_j=0x852ab340;
_Z18convert_float2_rtpDv2_l=0x852ab3a0;
_Z18convert_float2_rtpDv2_m=0x852ab400;
_Z18convert_float2_rtpDv2_s=0x852de000;
_Z18convert_float2_rtpDv2_t=0x852de020;
_Z18convert_float2_rtzDv2_c=0x852de040;
_Z18convert_float2_rtzDv2_d=0x8528f420;
_Z18convert_float2_rtzDv2_f=0x852de060;
_Z18convert_float2_rtzDv2_h=0x852de080;
_Z18convert_float2_rtzDv2_i=0x852ab460;
_Z18convert_float2_rtzDv2_j=0x852ab4c0;
_Z18convert_float2_rtzDv2_l=0x852ab520;
_Z18convert_float2_rtzDv2_m=0x852ab580;
_Z18convert_float2_rtzDv2_s=0x852de0a0;
_Z18convert_float2_rtzDv2_t=0x852de0c0;
_Z18convert_float3_rteDv3_c=0x852c6700;
_Z18convert_float3_rteDv3_d=0x852ab5e0;
_Z18convert_float3_rteDv3_f=0x852de0e0;
_Z18convert_float3_rteDv3_h=0x852c6740;
_Z18convert_float3_rteDv3_i=0x852ab640;
_Z18convert_float3_rteDv3_j=0x852ab6a0;
_Z18convert_float3_rteDv3_l=0x8528f4a0;
_Z18convert_float3_rteDv3_m=0x8528f520;
_Z18convert_float3_rteDv3_s=0x852de100;
_Z18convert_float3_rteDv3_t=0x852de120;
_Z18convert_float3_rtnDv3_c=0x852c6780;
_Z18convert_float3_rtnDv3_d=0x852775c0;
_Z18convert_float3_rtnDv3_f=0x852de140;
_Z18convert_float3_rtnDv3_h=0x852c67c0;
_Z18convert_float3_rtnDv3_i=0x85277660;
_Z18convert_float3_rtnDv3_j=0x85277700;
_Z18convert_float3_rtnDv3_l=0x8528f5a0;
_Z18convert_float3_rtnDv3_m=0x8528f620;
_Z18convert_float3_rtnDv3_s=0x852de160;
_Z18convert_float3_rtnDv3_t=0x852de180;
_Z18convert_float3_rtpDv3_c=0x852c6800;
_Z18convert_float3_rtpDv3_d=0x852777a0;
_Z18convert_float3_rtpDv3_f=0x852de1a0;
_Z18convert_float3_rtpDv3_h=0x852c6840;
_Z18convert_float3_rtpDv3_i=0x85277840;
_Z18convert_float3_rtpDv3_j=0x852778e0;
_Z18convert_float3_rtpDv3_l=0x8528f6a0;
_Z18convert_float3_rtpDv3_m=0x8528f720;
_Z18convert_float3_rtpDv3_s=0x852de1c0;
_Z18convert_float3_rtpDv3_t=0x852de1e0;
_Z18convert_float3_rtzDv3_c=0x852c6880;
_Z18convert_float3_rtzDv3_d=0x85277980;
_Z18convert_float3_rtzDv3_f=0x852de200;
_Z18convert_float3_rtzDv3_h=0x852c68c0;
_Z18convert_float3_rtzDv3_i=0x85277a20;
_Z18convert_float3_rtzDv3_j=0x85277ac0;
_Z18convert_float3_rtzDv3_l=0x8528f7a0;
_Z18convert_float3_rtzDv3_m=0x8528f820;
_Z18convert_float3_rtzDv3_s=0x852de220;
_Z18convert_float3_rtzDv3_t=0x852de240;
_Z18convert_float4_rteDv4_c=0x852c6900;
_Z18convert_float4_rteDv4_d=0x8528f8a0;
_Z18convert_float4_rteDv4_f=0x852de260;
_Z18convert_float4_rteDv4_h=0x852c6940;
_Z18convert_float4_rteDv4_i=0x852ab700;
_Z18convert_float4_rteDv4_j=0x852ab760;
_Z18convert_float4_rteDv4_l=0x8528f920;
_Z18convert_float4_rteDv4_m=0x8528f9a0;
_Z18convert_float4_rteDv4_s=0x852c6980;
_Z18convert_float4_rteDv4_t=0x852c69c0;
_Z18convert_float4_rtnDv4_c=0x852c6a00;
_Z18convert_float4_rtnDv4_d=0x852430c0;
_Z18convert_float4_rtnDv4_f=0x852de280;
_Z18convert_float4_rtnDv4_h=0x852c6a40;
_Z18convert_float4_rtnDv4_i=0x8525f9c0;
_Z18convert_float4_rtnDv4_j=0x8525fa80;
_Z18convert_float4_rtnDv4_l=0x8528fa20;
_Z18convert_float4_rtnDv4_m=0x8528faa0;
_Z18convert_float4_rtnDv4_s=0x852c6a80;
_Z18convert_float4_rtnDv4_t=0x852c6ac0;
_Z18convert_float4_rtpDv4_c=0x852c6b00;
_Z18convert_float4_rtpDv4_d=0x852431a0;
_Z18convert_float4_rtpDv4_f=0x852de2a0;
_Z18convert_float4_rtpDv4_h=0x852c6b40;
_Z18convert_float4_rtpDv4_i=0x8525fb40;
_Z18convert_float4_rtpDv4_j=0x8525fc00;
_Z18convert_float4_rtpDv4_l=0x8528fb20;
_Z18convert_float4_rtpDv4_m=0x8528fba0;
_Z18convert_float4_rtpDv4_s=0x852c6b80;
_Z18convert_float4_rtpDv4_t=0x852c6bc0;
_Z18convert_float4_rtzDv4_c=0x852c6c00;
_Z18convert_float4_rtzDv4_d=0x85243280;
_Z18convert_float4_rtzDv4_f=0x852de2c0;
_Z18convert_float4_rtzDv4_h=0x852c6c40;
_Z18convert_float4_rtzDv4_i=0x8525fcc0;
_Z18convert_float4_rtzDv4_j=0x8525fd80;
_Z18convert_float4_rtzDv4_l=0x8528fc20;
_Z18convert_float4_rtzDv4_m=0x8528fca0;
_Z18convert_float4_rtzDv4_s=0x852c6c80;
_Z18convert_float4_rtzDv4_t=0x852c6cc0;
_Z18convert_float8_rteDv8_c=0x85277b60;
_Z18convert_float8_rteDv8_d=0x851fb340;
_Z18convert_float8_rteDv8_f=0x852ab7c0;
_Z18convert_float8_rteDv8_h=0x85277c00;
_Z18convert_float8_rteDv8_i=0x8522aaa0;
_Z18convert_float8_rteDv8_j=0x8522aba0;
_Z18convert_float8_rteDv8_l=0x851fb480;
_Z18convert_float8_rteDv8_m=0x851fb5c0;
_Z18convert_float8_rteDv8_s=0x8528fd20;
_Z18convert_float8_rteDv8_t=0x85277ca0;
_Z18convert_float8_rtnDv8_c=0x85277d40;
_Z18convert_float8_rtnDv8_d=0x8519c660;
_Z18convert_float8_rtnDv8_f=0x852ab820;
_Z18convert_float8_rtnDv8_h=0x85277de0;
_Z18convert_float8_rtnDv8_i=0x851b32c0;
_Z18convert_float8_rtnDv8_j=0x851b3460;
_Z18convert_float8_rtnDv8_l=0x851fb700;
_Z18convert_float8_rtnDv8_m=0x851fb840;
_Z18convert_float8_rtnDv8_s=0x8528fda0;
_Z18convert_float8_rtnDv8_t=0x85277e80;
_Z18convert_float8_rtpDv8_c=0x85277f20;
_Z18convert_float8_rtpDv8_d=0x8519c820;
_Z18convert_float8_rtpDv8_f=0x852ab880;
_Z18convert_float8_rtpDv8_h=0x85277fc0;
_Z18convert_float8_rtpDv8_i=0x851b3600;
_Z18convert_float8_rtpDv8_j=0x851b37a0;
_Z18convert_float8_rtpDv8_l=0x851fb980;
_Z18convert_float8_rtpDv8_m=0x851fbac0;
_Z18convert_float8_rtpDv8_s=0x8528fe20;
_Z18convert_float8_rtpDv8_t=0x85278060;
_Z18convert_float8_rtzDv8_c=0x85278100;
_Z18convert_float8_rtzDv8_d=0x8519c9e0;
_Z18convert_float8_rtzDv8_f=0x852ab8e0;
_Z18convert_float8_rtzDv8_h=0x852781a0;
_Z18convert_float8_rtzDv8_i=0x851b3940;
_Z18convert_float8_rtzDv8_j=0x851b3ae0;
_Z18convert_float8_rtzDv8_l=0x851fbc00;
_Z18convert_float8_rtzDv8_m=0x851fbd40;
_Z18convert_float8_rtzDv8_s=0x8528fea0;
_Z18convert_float8_rtzDv8_t=0x85278240;
_Z18convert_long16_rteDv16_c=0x8519cba0;
_Z18convert_long16_rteDv16_d=0x85090e40;
_Z18convert_long16_rteDv16_f=0x850afa20;
_Z18convert_long16_rteDv16_h=0x8519cd60;
_Z18convert_long16_rteDv16_i=0x851c73c0;
_Z18convert_long16_rteDv16_j=0x851c7540;
_Z18convert_long16_rteDv16_l=0x852ab940;
_Z18convert_long16_rteDv16_m=0x85188c60;
_Z18convert_long16_rteDv16_s=0x851c76c0;
_Z18convert_long16_rteDv16_t=0x851df800;
_Z18convert_long16_rtnDv16_c=0x8519cf20;
_Z18convert_long16_rtnDv16_d=0x85091400;
_Z18convert_long16_rtnDv16_f=0x850afee0;
_Z18convert_long16_rtnDv16_h=0x8519d0e0;
_Z18convert_long16_rtnDv16_i=0x851c7840;
_Z18convert_long16_rtnDv16_j=0x851c79c0;
_Z18convert_long16_rtnDv16_l=0x852ab9a0;
_Z18convert_long16_rtnDv16_m=0x85188e40;
_Z18convert_long16_rtnDv16_s=0x851c7b40;
_Z18convert_long16_rtnDv16_t=0x851df960;
_Z18convert_long16_rtpDv16_c=0x8519d2a0;
_Z18convert_long16_rtpDv16_d=0x850919c0;
_Z18convert_long16_rtpDv16_f=0x850b03a0;
_Z18convert_long16_rtpDv16_h=0x8519d460;
_Z18convert_long16_rtpDv16_i=0x851c7cc0;
_Z18convert_long16_rtpDv16_j=0x851c7e40;
_Z18convert_long16_rtpDv16_l=0x852aba00;
_Z18convert_long16_rtpDv16_m=0x85189020;
_Z18convert_long16_rtpDv16_s=0x851c7fc0;
_Z18convert_long16_rtpDv16_t=0x851dfac0;
_Z18convert_long16_rtzDv16_c=0x8519d620;
_Z18convert_long16_rtzDv16_d=0x85113700;
_Z18convert_long16_rtzDv16_f=0x850ff9e0;
_Z18convert_long16_rtzDv16_h=0x8519d7e0;
_Z18convert_long16_rtzDv16_i=0x851c8140;
_Z18convert_long16_rtzDv16_j=0x851c82c0;
_Z18convert_long16_rtzDv16_l=0x852aba60;
_Z18convert_long16_rtzDv16_m=0x85189200;
_Z18convert_long16_rtzDv16_s=0x851c8440;
_Z18convert_long16_rtzDv16_t=0x851dfc20;
_Z18convert_long16_satDv16_c=0x8519d9a0;
_Z18convert_long16_satDv16_d=0x85060fe0;
_Z18convert_long16_satDv16_f=0x8506ae00;
_Z18convert_long16_satDv16_h=0x8519db60;
_Z18convert_long16_satDv16_i=0x851c85c0;
_Z18convert_long16_satDv16_j=0x851c8740;
_Z18convert_long16_satDv16_l=0x852abac0;
_Z18convert_long16_satDv16_m=0x851324c0;
_Z18convert_long16_satDv16_s=0x851c88c0;
_Z18convert_long16_satDv16_t=0x851dfd80;
_Z18convert_short2_rteDv2_c=0x852de2e0;
_Z18convert_short2_rteDv2_d=0x852c6d00;
_Z18convert_short2_rteDv2_f=0x852c6d40;
_Z18convert_short2_rteDv2_h=0x852de300;
_Z18convert_short2_rteDv2_i=0x852de320;
_Z18convert_short2_rteDv2_j=0x852de340;
_Z18convert_short2_rteDv2_l=0x852de360;
_Z18convert_short2_rteDv2_m=0x852de380;
_Z18convert_short2_rteDv2_s=0x852de3a0;
_Z18convert_short2_rteDv2_t=0x852de3c0;
_Z18convert_short2_rtnDv2_c=0x852de3e0;
_Z18convert_short2_rtnDv2_d=0x852c6d80;
_Z18convert_short2_rtnDv2_f=0x852c6dc0;
_Z18convert_short2_rtnDv2_h=0x852de400;
_Z18convert_short2_rtnDv2_i=0x852de420;
_Z18convert_short2_rtnDv2_j=0x852de440;
_Z18convert_short2_rtnDv2_l=0x852de460;
_Z18convert_short2_rtnDv2_m=0x852de480;
_Z18convert_short2_rtnDv2_s=0x852de4a0;
_Z18convert_short2_rtnDv2_t=0x852de4c0;
_Z18convert_short2_rtpDv2_c=0x852de4e0;
_Z18convert_short2_rtpDv2_d=0x852c6e00;
_Z18convert_short2_rtpDv2_f=0x852c6e40;
_Z18convert_short2_rtpDv2_h=0x852de500;
_Z18convert_short2_rtpDv2_i=0x852de520;
_Z18convert_short2_rtpDv2_j=0x852de540;
_Z18convert_short2_rtpDv2_l=0x852de560;
_Z18convert_short2_rtpDv2_m=0x852de580;
_Z18convert_short2_rtpDv2_s=0x852de5a0;
_Z18convert_short2_rtpDv2_t=0x852de5c0;
_Z18convert_short2_rtzDv2_c=0x852de5e0;
_Z18convert_short2_rtzDv2_d=0x852de600;
_Z18convert_short2_rtzDv2_f=0x852de620;
_Z18convert_short2_rtzDv2_h=0x852de640;
_Z18convert_short2_rtzDv2_i=0x852de660;
_Z18convert_short2_rtzDv2_j=0x852de680;
_Z18convert_short2_rtzDv2_l=0x852de6a0;
_Z18convert_short2_rtzDv2_m=0x852de6c0;
_Z18convert_short2_rtzDv2_s=0x852de6e0;
_Z18convert_short2_rtzDv2_t=0x852de700;
_Z18convert_short2_satDv2_c=0x852de720;
_Z18convert_short2_satDv2_d=0x852abb20;
_Z18convert_short2_satDv2_f=0x852abb80;
_Z18convert_short2_satDv2_h=0x852de740;
_Z18convert_short2_satDv2_i=0x852c6e80;
_Z18convert_short2_satDv2_j=0x852c6ec0;
_Z18convert_short2_satDv2_l=0x852782e0;
_Z18convert_short2_satDv2_m=0x852c6f00;
_Z18convert_short2_satDv2_s=0x852de760;
_Z18convert_short2_satDv2_t=0x852c6f40;
_Z18convert_short3_rteDv3_c=0x852de780;
_Z18convert_short3_rteDv3_d=0x85278380;
_Z18convert_short3_rteDv3_f=0x852abbe0;
_Z18convert_short3_rteDv3_h=0x852de7a0;
_Z18convert_short3_rteDv3_i=0x852de7c0;
_Z18convert_short3_rteDv3_j=0x852de7e0;
_Z18convert_short3_rteDv3_l=0x852c6f80;
_Z18convert_short3_rteDv3_m=0x852c6fc0;
_Z18convert_short3_rteDv3_s=0x852de800;
_Z18convert_short3_rteDv3_t=0x852de820;
_Z18convert_short3_rtnDv3_c=0x852de840;
_Z18convert_short3_rtnDv3_d=0x85278420;
_Z18convert_short3_rtnDv3_f=0x852abc40;
_Z18convert_short3_rtnDv3_h=0x852de860;
_Z18convert_short3_rtnDv3_i=0x852de880;
_Z18convert_short3_rtnDv3_j=0x852de8a0;
_Z18convert_short3_rtnDv3_l=0x852c7000;
_Z18convert_short3_rtnDv3_m=0x852c7040;
_Z18convert_short3_rtnDv3_s=0x852de8c0;
_Z18convert_short3_rtnDv3_t=0x852de8e0;
_Z18convert_short3_rtpDv3_c=0x852de900;
_Z18convert_short3_rtpDv3_d=0x852784c0;
_Z18convert_short3_rtpDv3_f=0x852abca0;
_Z18convert_short3_rtpDv3_h=0x852de920;
_Z18convert_short3_rtpDv3_i=0x852de940;
_Z18convert_short3_rtpDv3_j=0x852de960;
_Z18convert_short3_rtpDv3_l=0x852c7080;
_Z18convert_short3_rtpDv3_m=0x852c70c0;
_Z18convert_short3_rtpDv3_s=0x852de980;
_Z18convert_short3_rtpDv3_t=0x852de9a0;
_Z18convert_short3_rtzDv3_c=0x852de9c0;
_Z18convert_short3_rtzDv3_d=0x852abd00;
_Z18convert_short3_rtzDv3_f=0x852de9e0;
_Z18convert_short3_rtzDv3_h=0x852dea00;
_Z18convert_short3_rtzDv3_i=0x852dea20;
_Z18convert_short3_rtzDv3_j=0x852dea40;
_Z18convert_short3_rtzDv3_l=0x852c7100;
_Z18convert_short3_rtzDv3_m=0x852c7140;
_Z18convert_short3_rtzDv3_s=0x852dea60;
_Z18convert_short3_rtzDv3_t=0x852dea80;
_Z18convert_short3_satDv3_c=0x852deaa0;
_Z18convert_short3_satDv3_d=0x85243360;
_Z18convert_short3_satDv3_f=0x8528ff20;
_Z18convert_short3_satDv3_h=0x852deac0;
_Z18convert_short3_satDv3_i=0x852abd60;
_Z18convert_short3_satDv3_j=0x852c7180;
_Z18convert_short3_satDv3_l=0x8522aca0;
_Z18convert_short3_satDv3_m=0x85278560;
_Z18convert_short3_satDv3_s=0x852deae0;
_Z18convert_short3_satDv3_t=0x852c71c0;
_Z18convert_short4_rteDv4_c=0x852deb00;
_Z18convert_short4_rteDv4_d=0x85278600;
_Z18convert_short4_rteDv4_f=0x8528ffa0;
_Z18convert_short4_rteDv4_h=0x852deb20;
_Z18convert_short4_rteDv4_i=0x852deb40;
_Z18convert_short4_rteDv4_j=0x852deb60;
_Z18convert_short4_rteDv4_l=0x852c7200;
_Z18convert_short4_rteDv4_m=0x852c7240;
_Z18convert_short4_rteDv4_s=0x852deb80;
_Z18convert_short4_rteDv4_t=0x852deba0;
_Z18convert_short4_rtnDv4_c=0x852debc0;
_Z18convert_short4_rtnDv4_d=0x852786a0;
_Z18convert_short4_rtnDv4_f=0x85290020;
_Z18convert_short4_rtnDv4_h=0x852debe0;
_Z18convert_short4_rtnDv4_i=0x852dec00;
_Z18convert_short4_rtnDv4_j=0x852dec20;
_Z18convert_short4_rtnDv4_l=0x852c7280;
_Z18convert_short4_rtnDv4_m=0x852c72c0;
_Z18convert_short4_rtnDv4_s=0x852dec40;
_Z18convert_short4_rtnDv4_t=0x852dec60;
_Z18convert_short4_rtpDv4_c=0x852dec80;
_Z18convert_short4_rtpDv4_d=0x85278740;
_Z18convert_short4_rtpDv4_f=0x852900a0;
_Z18convert_short4_rtpDv4_h=0x852deca0;
_Z18convert_short4_rtpDv4_i=0x852decc0;
_Z18convert_short4_rtpDv4_j=0x852dece0;
_Z18convert_short4_rtpDv4_l=0x852c7300;
_Z18convert_short4_rtpDv4_m=0x852c7340;
_Z18convert_short4_rtpDv4_s=0x852ded00;
_Z18convert_short4_rtpDv4_t=0x852ded20;
_Z18convert_short4_rtzDv4_c=0x852ded40;
_Z18convert_short4_rtzDv4_d=0x852abdc0;
_Z18convert_short4_rtzDv4_f=0x852ded60;
_Z18convert_short4_rtzDv4_h=0x852ded80;
_Z18convert_short4_rtzDv4_i=0x852deda0;
_Z18convert_short4_rtzDv4_j=0x852dedc0;
_Z18convert_short4_rtzDv4_l=0x852c7380;
_Z18convert_short4_rtzDv4_m=0x852c73c0;
_Z18convert_short4_rtzDv4_s=0x852dede0;
_Z18convert_short4_rtzDv4_t=0x852dee00;
_Z18convert_short4_satDv4_c=0x852dee20;
_Z18convert_short4_satDv4_d=0x8522ada0;
_Z18convert_short4_satDv4_f=0x852787e0;
_Z18convert_short4_satDv4_h=0x852dee40;
_Z18convert_short4_satDv4_i=0x85290120;
_Z18convert_short4_satDv4_j=0x852abe20;
_Z18convert_short4_satDv4_l=0x851dfee0;
_Z18convert_short4_satDv4_m=0x8525fe40;
_Z18convert_short4_satDv4_s=0x852dee60;
_Z18convert_short4_satDv4_t=0x852c7400;
_Z18convert_short8_rteDv8_c=0x852abe80;
_Z18convert_short8_rteDv8_d=0x852142c0;
_Z18convert_short8_rteDv8_f=0x8522aea0;
_Z18convert_short8_rteDv8_h=0x852abee0;
_Z18convert_short8_rteDv8_i=0x852c7440;
_Z18convert_short8_rteDv8_j=0x852c7480;
_Z18convert_short8_rteDv8_l=0x852c74c0;
_Z18convert_short8_rteDv8_m=0x852c7500;
_Z18convert_short8_rteDv8_s=0x852dee80;
_Z18convert_short8_rteDv8_t=0x852deea0;
_Z18convert_short8_rtnDv8_c=0x852abf40;
_Z18convert_short8_rtnDv8_d=0x852143e0;
_Z18convert_short8_rtnDv8_f=0x8522afa0;
_Z18convert_short8_rtnDv8_h=0x852abfa0;
_Z18convert_short8_rtnDv8_i=0x852c7540;
_Z18convert_short8_rtnDv8_j=0x852c7580;
_Z18convert_short8_rtnDv8_l=0x852c75c0;
_Z18convert_short8_rtnDv8_m=0x852c7600;
_Z18convert_short8_rtnDv8_s=0x852deec0;
_Z18convert_short8_rtnDv8_t=0x852deee0;
_Z18convert_short8_rtpDv8_c=0x852ac000;
_Z18convert_short8_rtpDv8_d=0x85214500;
_Z18convert_short8_rtpDv8_f=0x8522b0a0;
_Z18convert_short8_rtpDv8_h=0x852ac060;
_Z18convert_short8_rtpDv8_i=0x852c7640;
_Z18convert_short8_rtpDv8_j=0x852c7680;
_Z18convert_short8_rtpDv8_l=0x852c76c0;
_Z18convert_short8_rtpDv8_m=0x852c7700;
_Z18convert_short8_rtpDv8_s=0x852def00;
_Z18convert_short8_rtpDv8_t=0x852def20;
_Z18convert_short8_rtzDv8_c=0x852ac0c0;
_Z18convert_short8_rtzDv8_d=0x852ac120;
_Z18convert_short8_rtzDv8_f=0x852ac180;
_Z18convert_short8_rtzDv8_h=0x852ac1e0;
_Z18convert_short8_rtzDv8_i=0x852c7740;
_Z18convert_short8_rtzDv8_j=0x852c7780;
_Z18convert_short8_rtzDv8_l=0x852c77c0;
_Z18convert_short8_rtzDv8_m=0x852c7800;
_Z18convert_short8_rtzDv8_s=0x852def40;
_Z18convert_short8_rtzDv8_t=0x852def60;
_Z18convert_short8_satDv8_c=0x852ac240;
_Z18convert_short8_satDv8_d=0x85178ba0;
_Z18convert_short8_satDv8_f=0x851e0040;
_Z18convert_short8_satDv8_h=0x852ac2a0;
_Z18convert_short8_satDv8_i=0x851fbe80;
_Z18convert_short8_satDv8_j=0x85278880;
_Z18convert_short8_satDv8_l=0x8511a720;
_Z18convert_short8_satDv8_m=0x851fbfc0;
_Z18convert_short8_satDv8_s=0x852def80;
_Z18convert_short8_satDv8_t=0x85278920;
_Z18convert_uchar2_rteDv2_c=0x852defa0;
_Z18convert_uchar2_rteDv2_d=0x852901a0;
_Z18convert_uchar2_rteDv2_f=0x85290220;
_Z18convert_uchar2_rteDv2_h=0x852defc0;
_Z18convert_uchar2_rteDv2_i=0x852defe0;
_Z18convert_uchar2_rteDv2_j=0x852df000;
_Z18convert_uchar2_rteDv2_l=0x852df020;
_Z18convert_uchar2_rteDv2_m=0x852df040;
_Z18convert_uchar2_rteDv2_s=0x852df060;
_Z18convert_uchar2_rteDv2_t=0x852df080;
_Z18convert_uchar2_rtnDv2_c=0x852df0a0;
_Z18convert_uchar2_rtnDv2_d=0x852902a0;
_Z18convert_uchar2_rtnDv2_f=0x85290320;
_Z18convert_uchar2_rtnDv2_h=0x852df0c0;
_Z18convert_uchar2_rtnDv2_i=0x852df0e0;
_Z18convert_uchar2_rtnDv2_j=0x852df100;
_Z18convert_uchar2_rtnDv2_l=0x852df120;
_Z18convert_uchar2_rtnDv2_m=0x852df140;
_Z18convert_uchar2_rtnDv2_s=0x852df160;
_Z18convert_uchar2_rtnDv2_t=0x852df180;
_Z18convert_uchar2_rtpDv2_c=0x852df1a0;
_Z18convert_uchar2_rtpDv2_d=0x852903a0;
_Z18convert_uchar2_rtpDv2_f=0x85290420;
_Z18convert_uchar2_rtpDv2_h=0x852df1c0;
_Z18convert_uchar2_rtpDv2_i=0x852df1e0;
_Z18convert_uchar2_rtpDv2_j=0x852df200;
_Z18convert_uchar2_rtpDv2_l=0x852df220;
_Z18convert_uchar2_rtpDv2_m=0x852df240;
_Z18convert_uchar2_rtpDv2_s=0x852df260;
_Z18convert_uchar2_rtpDv2_t=0x852df280;
_Z18convert_uchar2_rtzDv2_c=0x852df2a0;
_Z18convert_uchar2_rtzDv2_d=0x852ac300;
_Z18convert_uchar2_rtzDv2_f=0x852ac360;
_Z18convert_uchar2_rtzDv2_h=0x852df2c0;
_Z18convert_uchar2_rtzDv2_i=0x852df2e0;
_Z18convert_uchar2_rtzDv2_j=0x852df300;
_Z18convert_uchar2_rtzDv2_l=0x852df320;
_Z18convert_uchar2_rtzDv2_m=0x852df340;
_Z18convert_uchar2_rtzDv2_s=0x852df360;
_Z18convert_uchar2_rtzDv2_t=0x852df380;
_Z18convert_uchar2_satDv2_c=0x852c7840;
_Z18convert_uchar2_satDv2_d=0x8522b1a0;
_Z18convert_uchar2_satDv2_f=0x8525ff00;
_Z18convert_uchar2_satDv2_h=0x852df3a0;
_Z18convert_uchar2_satDv2_i=0x852ac3c0;
_Z18convert_uchar2_satDv2_j=0x852c7880;
_Z18convert_uchar2_satDv2_l=0x852ac420;
_Z18convert_uchar2_satDv2_m=0x852c78c0;
_Z18convert_uchar2_satDv2_s=0x852c7900;
_Z18convert_uchar2_satDv2_t=0x852c7940;
_Z18convert_uchar3_rteDv3_c=0x852df3c0;
_Z18convert_uchar3_rteDv3_d=0x8525ffc0;
_Z18convert_uchar3_rteDv3_f=0x852789c0;
_Z18convert_uchar3_rteDv3_h=0x852df3e0;
_Z18convert_uchar3_rteDv3_i=0x852df400;
_Z18convert_uchar3_rteDv3_j=0x852df420;
_Z18convert_uchar3_rteDv3_l=0x852ac480;
_Z18convert_uchar3_rteDv3_m=0x852ac4e0;
_Z18convert_uchar3_rteDv3_s=0x852df440;
_Z18convert_uchar3_rteDv3_t=0x852df460;
_Z18convert_uchar3_rtnDv3_c=0x852df480;
_Z18convert_uchar3_rtnDv3_d=0x85260080;
_Z18convert_uchar3_rtnDv3_f=0x85278a60;
_Z18convert_uchar3_rtnDv3_h=0x852df4a0;
_Z18convert_uchar3_rtnDv3_i=0x852df4c0;
_Z18convert_uchar3_rtnDv3_j=0x852df4e0;
_Z18convert_uchar3_rtnDv3_l=0x852ac540;
_Z18convert_uchar3_rtnDv3_m=0x852ac5a0;
_Z18convert_uchar3_rtnDv3_s=0x852df500;
_Z18convert_uchar3_rtnDv3_t=0x852df520;
_Z18convert_uchar3_rtpDv3_c=0x852df540;
_Z18convert_uchar3_rtpDv3_d=0x85260140;
_Z18convert_uchar3_rtpDv3_f=0x85278b00;
_Z18convert_uchar3_rtpDv3_h=0x852df560;
_Z18convert_uchar3_rtpDv3_i=0x852df580;
_Z18convert_uchar3_rtpDv3_j=0x852df5a0;
_Z18convert_uchar3_rtpDv3_l=0x852ac600;
_Z18convert_uchar3_rtpDv3_m=0x852ac660;
_Z18convert_uchar3_rtpDv3_s=0x852df5c0;
_Z18convert_uchar3_rtpDv3_t=0x852df5e0;
_Z18convert_uchar3_rtzDv3_c=0x852df600;
_Z18convert_uchar3_rtzDv3_d=0x85278ba0;
_Z18convert_uchar3_rtzDv3_f=0x852904a0;
_Z18convert_uchar3_rtzDv3_h=0x852df620;
_Z18convert_uchar3_rtzDv3_i=0x852df640;
_Z18convert_uchar3_rtzDv3_j=0x852df660;
_Z18convert_uchar3_rtzDv3_l=0x852ac6c0;
_Z18convert_uchar3_rtzDv3_m=0x852ac720;
_Z18convert_uchar3_rtzDv3_s=0x852df680;
_Z18convert_uchar3_rtzDv3_t=0x852df6a0;
_Z18convert_uchar3_satDv3_c=0x852ac780;
_Z18convert_uchar3_satDv3_d=0x851fc100;
_Z18convert_uchar3_satDv3_f=0x85214620;
_Z18convert_uchar3_satDv3_h=0x852df6c0;
_Z18convert_uchar3_satDv3_i=0x852ac7e0;
_Z18convert_uchar3_satDv3_j=0x852c7980;
_Z18convert_uchar3_satDv3_l=0x85243440;
_Z18convert_uchar3_satDv3_m=0x85278c40;
_Z18convert_uchar3_satDv3_s=0x852ac840;
_Z18convert_uchar3_satDv3_t=0x852ac8a0;
_Z18convert_uchar4_rteDv4_c=0x852df6e0;
_Z18convert_uchar4_rteDv4_d=0x85243520;
_Z18convert_uchar4_rteDv4_f=0x85260200;
_Z18convert_uchar4_rteDv4_h=0x852df700;
_Z18convert_uchar4_rteDv4_i=0x852df720;
_Z18convert_uchar4_rteDv4_j=0x852df740;
_Z18convert_uchar4_rteDv4_l=0x852ac900;
_Z18convert_uchar4_rteDv4_m=0x852ac960;
_Z18convert_uchar4_rteDv4_s=0x852df760;
_Z18convert_uchar4_rteDv4_t=0x852df780;
_Z18convert_uchar4_rtnDv4_c=0x852df7a0;
_Z18convert_uchar4_rtnDv4_d=0x85243600;
_Z18convert_uchar4_rtnDv4_f=0x852602c0;
_Z18convert_uchar4_rtnDv4_h=0x852df7c0;
_Z18convert_uchar4_rtnDv4_i=0x852df7e0;
_Z18convert_uchar4_rtnDv4_j=0x852df800;
_Z18convert_uchar4_rtnDv4_l=0x852ac9c0;
_Z18convert_uchar4_rtnDv4_m=0x852aca20;
_Z18convert_uchar4_rtnDv4_s=0x852df820;
_Z18convert_uchar4_rtnDv4_t=0x852df840;
_Z18convert_uchar4_rtpDv4_c=0x852df860;
_Z18convert_uchar4_rtpDv4_d=0x852436e0;
_Z18convert_uchar4_rtpDv4_f=0x85260380;
_Z18convert_uchar4_rtpDv4_h=0x852df880;
_Z18convert_uchar4_rtpDv4_i=0x852df8a0;
_Z18convert_uchar4_rtpDv4_j=0x852df8c0;
_Z18convert_uchar4_rtpDv4_l=0x852aca80;
_Z18convert_uchar4_rtpDv4_m=0x852acae0;
_Z18convert_uchar4_rtpDv4_s=0x852df8e0;
_Z18convert_uchar4_rtpDv4_t=0x852df900;
_Z18convert_uchar4_rtzDv4_c=0x852df920;
_Z18convert_uchar4_rtzDv4_d=0x85278ce0;
_Z18convert_uchar4_rtzDv4_f=0x85278d80;
_Z18convert_uchar4_rtzDv4_h=0x852df940;
_Z18convert_uchar4_rtzDv4_i=0x852df960;
_Z18convert_uchar4_rtzDv4_j=0x852df980;
_Z18convert_uchar4_rtzDv4_l=0x852acb40;
_Z18convert_uchar4_rtzDv4_m=0x852acba0;
_Z18convert_uchar4_rtzDv4_s=0x852df9a0;
_Z18convert_uchar4_rtzDv4_t=0x852df9c0;
_Z18convert_uchar4_satDv4_c=0x852acc00;
_Z18convert_uchar4_satDv4_d=0x851b3c80;
_Z18convert_uchar4_satDv4_f=0x851e01a0;
_Z18convert_uchar4_satDv4_h=0x852df9e0;
_Z18convert_uchar4_satDv4_i=0x85260440;
_Z18convert_uchar4_satDv4_j=0x852c79c0;
_Z18convert_uchar4_satDv4_l=0x85214740;
_Z18convert_uchar4_satDv4_m=0x85260500;
_Z18convert_uchar4_satDv4_s=0x852605c0;
_Z18convert_uchar4_satDv4_t=0x852acc60;
_Z18convert_uchar8_rteDv8_c=0x852dfa00;
_Z18convert_uchar8_rteDv8_d=0x851893e0;
_Z18convert_uchar8_rteDv8_f=0x851b3e20;
_Z18convert_uchar8_rteDv8_h=0x852dfa20;
_Z18convert_uchar8_rteDv8_i=0x852accc0;
_Z18convert_uchar8_rteDv8_j=0x852acd20;
_Z18convert_uchar8_rteDv8_l=0x85290520;
_Z18convert_uchar8_rteDv8_m=0x852905a0;
_Z18convert_uchar8_rteDv8_s=0x852dfa40;
_Z18convert_uchar8_rteDv8_t=0x852dfa60;
_Z18convert_uchar8_rtnDv8_c=0x852dfa80;
_Z18convert_uchar8_rtnDv8_d=0x851895c0;
_Z18convert_uchar8_rtnDv8_f=0x851b3fc0;
_Z18convert_uchar8_rtnDv8_h=0x852dfaa0;
_Z18convert_uchar8_rtnDv8_i=0x852acd80;
_Z18convert_uchar8_rtnDv8_j=0x852acde0;
_Z18convert_uchar8_rtnDv8_l=0x85290620;
_Z18convert_uchar8_rtnDv8_m=0x852906a0;
_Z18convert_uchar8_rtnDv8_s=0x852dfac0;
_Z18convert_uchar8_rtnDv8_t=0x852dfae0;
_Z18convert_uchar8_rtpDv8_c=0x852dfb00;
_Z18convert_uchar8_rtpDv8_d=0x851897a0;
_Z18convert_uchar8_rtpDv8_f=0x851b4160;
_Z18convert_uchar8_rtpDv8_h=0x852dfb20;
_Z18convert_uchar8_rtpDv8_i=0x852ace40;
_Z18convert_uchar8_rtpDv8_j=0x852acea0;
_Z18convert_uchar8_rtpDv8_l=0x85290720;
_Z18convert_uchar8_rtpDv8_m=0x852907a0;
_Z18convert_uchar8_rtpDv8_s=0x852dfb40;
_Z18convert_uchar8_rtpDv8_t=0x852dfb60;
_Z18convert_uchar8_rtzDv8_c=0x852dfb80;
_Z18convert_uchar8_rtzDv8_d=0x851fc240;
_Z18convert_uchar8_rtzDv8_f=0x851e0300;
_Z18convert_uchar8_rtzDv8_h=0x852dfba0;
_Z18convert_uchar8_rtzDv8_i=0x852acf00;
_Z18convert_uchar8_rtzDv8_j=0x852acf60;
_Z18convert_uchar8_rtzDv8_l=0x85290820;
_Z18convert_uchar8_rtzDv8_m=0x852908a0;
_Z18convert_uchar8_rtzDv8_s=0x852dfbc0;
_Z18convert_uchar8_rtzDv8_t=0x852dfbe0;
_Z18convert_uchar8_satDv8_c=0x85260680;
_Z18convert_uchar8_satDv8_d=0x85126320;
_Z18convert_uchar8_satDv8_f=0x85144f80;
_Z18convert_uchar8_satDv8_h=0x852dfc00;
_Z18convert_uchar8_satDv8_i=0x851b4300;
_Z18convert_uchar8_satDv8_j=0x852437c0;
_Z18convert_uchar8_satDv8_l=0x85151e20;
_Z18convert_uchar8_satDv8_m=0x851e0460;
_Z18convert_uchar8_satDv8_s=0x851e05c0;
_Z18convert_uchar8_satDv8_t=0x852438a0;
_Z18convert_uint16_rteDv16_c=0x85243980;
_Z18convert_uint16_rteDv16_d=0x850e8300;
_Z18convert_uint16_rteDv16_f=0x8510af80;
_Z18convert_uint16_rteDv16_h=0x85243a60;
_Z18convert_uint16_rteDv16_i=0x85278e20;
_Z18convert_uint16_rteDv16_j=0x852acfc0;
_Z18convert_uint16_rteDv16_l=0x85260740;
_Z18convert_uint16_rteDv16_m=0x85260800;
_Z18convert_uint16_rteDv16_s=0x852608c0;
_Z18convert_uint16_rteDv16_t=0x85260980;
_Z18convert_uint16_rtnDv16_c=0x85243b40;
_Z18convert_uint16_rtnDv16_d=0x850e86a0;
_Z18convert_uint16_rtnDv16_f=0x8510b2c0;
_Z18convert_uint16_rtnDv16_h=0x85243c20;
_Z18convert_uint16_rtnDv16_i=0x85278ec0;
_Z18convert_uint16_rtnDv16_j=0x852ad020;
_Z18convert_uint16_rtnDv16_l=0x85260a40;
_Z18convert_uint16_rtnDv16_m=0x85260b00;
_Z18convert_uint16_rtnDv16_s=0x85260bc0;
_Z18convert_uint16_rtnDv16_t=0x85260c80;
_Z18convert_uint16_rtpDv16_c=0x85243d00;
_Z18convert_uint16_rtpDv16_d=0x850e8a40;
_Z18convert_uint16_rtpDv16_f=0x8510b600;
_Z18convert_uint16_rtpDv16_h=0x85243de0;
_Z18convert_uint16_rtpDv16_i=0x85278f60;
_Z18convert_uint16_rtpDv16_j=0x852ad080;
_Z18convert_uint16_rtpDv16_l=0x85260d40;
_Z18convert_uint16_rtpDv16_m=0x85260e00;
_Z18convert_uint16_rtpDv16_s=0x85260ec0;
_Z18convert_uint16_rtpDv16_t=0x85260f80;
_Z18convert_uint16_rtzDv16_c=0x85243ec0;
_Z18convert_uint16_rtzDv16_d=0x85178da0;
_Z18convert_uint16_rtzDv16_f=0x85178fa0;
_Z18convert_uint16_rtzDv16_h=0x85243fa0;
_Z18convert_uint16_rtzDv16_i=0x85279000;
_Z18convert_uint16_rtzDv16_j=0x852ad0e0;
_Z18convert_uint16_rtzDv16_l=0x85261040;
_Z18convert_uint16_rtzDv16_m=0x85261100;
_Z18convert_uint16_rtzDv16_s=0x852611c0;
_Z18convert_uint16_rtzDv16_t=0x85261280;
_Z18convert_uint16_satDv16_c=0x851b44a0;
_Z18convert_uint16_satDv16_d=0x850958e0;
_Z18convert_uint16_satDv16_f=0x85095e80;
_Z18convert_uint16_satDv16_h=0x85244080;
_Z18convert_uint16_satDv16_i=0x851c8a40;
_Z18convert_uint16_satDv16_j=0x852ad140;
_Z18convert_uint16_satDv16_l=0x850b8d20;
_Z18convert_uint16_satDv16_m=0x85126600;
_Z18convert_uint16_satDv16_s=0x851c8bc0;
_Z18convert_uint16_satDv16_t=0x85261340;
_Z18convert_ulong2_rteDv2_c=0x852c7a00;
_Z18convert_ulong2_rteDv2_d=0x85290920;
_Z18convert_ulong2_rteDv2_f=0x852ad1a0;
_Z18convert_ulong2_rteDv2_h=0x852dfc20;
_Z18convert_ulong2_rteDv2_i=0x852dfc40;
_Z18convert_ulong2_rteDv2_j=0x852dfc60;
_Z18convert_ulong2_rteDv2_l=0x852dfc80;
_Z18convert_ulong2_rteDv2_m=0x852dfca0;
_Z18convert_ulong2_rteDv2_s=0x852dfcc0;
_Z18convert_ulong2_rteDv2_t=0x852dfce0;
_Z18convert_ulong2_rtnDv2_c=0x852c7a40;
_Z18convert_ulong2_rtnDv2_d=0x852909a0;
_Z18convert_ulong2_rtnDv2_f=0x852ad200;
_Z18convert_ulong2_rtnDv2_h=0x852dfd00;
_Z18convert_ulong2_rtnDv2_i=0x852dfd20;
_Z18convert_ulong2_rtnDv2_j=0x852dfd40;
_Z18convert_ulong2_rtnDv2_l=0x852dfd60;
_Z18convert_ulong2_rtnDv2_m=0x852dfd80;
_Z18convert_ulong2_rtnDv2_s=0x852dfda0;
_Z18convert_ulong2_rtnDv2_t=0x852dfdc0;
_Z18convert_ulong2_rtpDv2_c=0x852c7a80;
_Z18convert_ulong2_rtpDv2_d=0x85290a20;
_Z18convert_ulong2_rtpDv2_f=0x852ad260;
_Z18convert_ulong2_rtpDv2_h=0x852dfde0;
_Z18convert_ulong2_rtpDv2_i=0x852dfe00;
_Z18convert_ulong2_rtpDv2_j=0x852dfe20;
_Z18convert_ulong2_rtpDv2_l=0x852dfe40;
_Z18convert_ulong2_rtpDv2_m=0x852dfe60;
_Z18convert_ulong2_rtpDv2_s=0x852dfe80;
_Z18convert_ulong2_rtpDv2_t=0x852dfea0;
_Z18convert_ulong2_rtzDv2_c=0x852c7ac0;
_Z18convert_ulong2_rtzDv2_d=0x852ad2c0;
_Z18convert_ulong2_rtzDv2_f=0x852ad320;
_Z18convert_ulong2_rtzDv2_h=0x852dfec0;
_Z18convert_ulong2_rtzDv2_i=0x852dfee0;
_Z18convert_ulong2_rtzDv2_j=0x852dff00;
_Z18convert_ulong2_rtzDv2_l=0x852dff20;
_Z18convert_ulong2_rtzDv2_m=0x852dff40;
_Z18convert_ulong2_rtzDv2_s=0x852dff60;
_Z18convert_ulong2_rtzDv2_t=0x852dff80;
_Z18convert_ulong2_satDv2_c=0x852c7b00;
_Z18convert_ulong2_satDv2_d=0x8522b2a0;
_Z18convert_ulong2_satDv2_f=0x85244160;
_Z18convert_ulong2_satDv2_h=0x852dffa0;
_Z18convert_ulong2_satDv2_i=0x852c7b40;
_Z18convert_ulong2_satDv2_j=0x852dffc0;
_Z18convert_ulong2_satDv2_l=0x852c7b80;
_Z18convert_ulong2_satDv2_m=0x852dffe0;
_Z18convert_ulong2_satDv2_s=0x852c7bc0;
_Z18convert_ulong2_satDv2_t=0x852e0000;
_Z18convert_ulong3_rteDv3_c=0x85290aa0;
_Z18convert_ulong3_rteDv3_d=0x8522b3a0;
_Z18convert_ulong3_rteDv3_f=0x85244240;
_Z18convert_ulong3_rteDv3_h=0x85290b20;
_Z18convert_ulong3_rteDv3_i=0x852ad380;
_Z18convert_ulong3_rteDv3_j=0x852ad3e0;
_Z18convert_ulong3_rteDv3_l=0x852ad440;
_Z18convert_ulong3_rteDv3_m=0x852ad4a0;
_Z18convert_ulong3_rteDv3_s=0x852ad500;
_Z18convert_ulong3_rteDv3_t=0x852ad560;
_Z18convert_ulong3_rtnDv3_c=0x85290ba0;
_Z18convert_ulong3_rtnDv3_d=0x8522b4a0;
_Z18convert_ulong3_rtnDv3_f=0x85244320;
_Z18convert_ulong3_rtnDv3_h=0x85290c20;
_Z18convert_ulong3_rtnDv3_i=0x852ad5c0;
_Z18convert_ulong3_rtnDv3_j=0x852ad620;
_Z18convert_ulong3_rtnDv3_l=0x852ad680;
_Z18convert_ulong3_rtnDv3_m=0x852ad6e0;
_Z18convert_ulong3_rtnDv3_s=0x852ad740;
_Z18convert_ulong3_rtnDv3_t=0x852ad7a0;
_Z18convert_ulong3_rtpDv3_c=0x85290ca0;
_Z18convert_ulong3_rtpDv3_d=0x8522b5a0;
_Z18convert_ulong3_rtpDv3_f=0x85244400;
_Z18convert_ulong3_rtpDv3_h=0x85290d20;
_Z18convert_ulong3_rtpDv3_i=0x852ad800;
_Z18convert_ulong3_rtpDv3_j=0x852ad860;
_Z18convert_ulong3_rtpDv3_l=0x852ad8c0;
_Z18convert_ulong3_rtpDv3_m=0x852ad920;
_Z18convert_ulong3_rtpDv3_s=0x852ad980;
_Z18convert_ulong3_rtpDv3_t=0x852ad9e0;
_Z18convert_ulong3_rtzDv3_c=0x85290da0;
_Z18convert_ulong3_rtzDv3_d=0x85261400;
_Z18convert_ulong3_rtzDv3_f=0x852614c0;
_Z18convert_ulong3_rtzDv3_h=0x85290e20;
_Z18convert_ulong3_rtzDv3_i=0x852ada40;
_Z18convert_ulong3_rtzDv3_j=0x852adaa0;
_Z18convert_ulong3_rtzDv3_l=0x852adb00;
_Z18convert_ulong3_rtzDv3_m=0x852adb60;
_Z18convert_ulong3_rtzDv3_s=0x852adbc0;
_Z18convert_ulong3_rtzDv3_t=0x852adc20;
_Z18convert_ulong3_satDv3_c=0x852790a0;
_Z18convert_ulong3_satDv3_d=0x8519dd20;
_Z18convert_ulong3_satDv3_f=0x851b4640;
_Z18convert_ulong3_satDv3_h=0x85290ea0;
_Z18convert_ulong3_satDv3_i=0x85290f20;
_Z18convert_ulong3_satDv3_j=0x852adc80;
_Z18convert_ulong3_satDv3_l=0x85290fa0;
_Z18convert_ulong3_satDv3_m=0x852adce0;
_Z18convert_ulong3_satDv3_s=0x85291020;
_Z18convert_ulong3_satDv3_t=0x852add40;
_Z18convert_ulong4_rteDv4_c=0x852910a0;
_Z18convert_ulong4_rteDv4_d=0x85214860;
_Z18convert_ulong4_rteDv4_f=0x85214980;
_Z18convert_ulong4_rteDv4_h=0x85291120;
_Z18convert_ulong4_rteDv4_i=0x852911a0;
_Z18convert_ulong4_rteDv4_j=0x85291220;
_Z18convert_ulong4_rteDv4_l=0x852adda0;
_Z18convert_ulong4_rteDv4_m=0x852ade00;
_Z18convert_ulong4_rteDv4_s=0x852912a0;
_Z18convert_ulong4_rteDv4_t=0x85291320;
_Z18convert_ulong4_rtnDv4_c=0x852913a0;
_Z18convert_ulong4_rtnDv4_d=0x85214aa0;
_Z18convert_ulong4_rtnDv4_f=0x85214bc0;
_Z18convert_ulong4_rtnDv4_h=0x85291420;
_Z18convert_ulong4_rtnDv4_i=0x852914a0;
_Z18convert_ulong4_rtnDv4_j=0x85291520;
_Z18convert_ulong4_rtnDv4_l=0x852ade60;
_Z18convert_ulong4_rtnDv4_m=0x852adec0;
_Z18convert_ulong4_rtnDv4_s=0x852915a0;
_Z18convert_ulong4_rtnDv4_t=0x85291620;
_Z18convert_ulong4_rtpDv4_c=0x852916a0;
_Z18convert_ulong4_rtpDv4_d=0x85214ce0;
_Z18convert_ulong4_rtpDv4_f=0x85214e00;
_Z18convert_ulong4_rtpDv4_h=0x85291720;
_Z18convert_ulong4_rtpDv4_i=0x852917a0;
_Z18convert_ulong4_rtpDv4_j=0x85291820;
_Z18convert_ulong4_rtpDv4_l=0x852adf20;
_Z18convert_ulong4_rtpDv4_m=0x852adf80;
_Z18convert_ulong4_rtpDv4_s=0x852918a0;
_Z18convert_ulong4_rtpDv4_t=0x85291920;
_Z18convert_ulong4_rtzDv4_c=0x852919a0;
_Z18convert_ulong4_rtzDv4_d=0x852444e0;
_Z18convert_ulong4_rtzDv4_f=0x8522b6a0;
_Z18convert_ulong4_rtzDv4_h=0x85291a20;
_Z18convert_ulong4_rtzDv4_i=0x85291aa0;
_Z18convert_ulong4_rtzDv4_j=0x85291b20;
_Z18convert_ulong4_rtzDv4_l=0x852adfe0;
_Z18convert_ulong4_rtzDv4_m=0x852ae040;
_Z18convert_ulong4_rtzDv4_s=0x85291ba0;
_Z18convert_ulong4_rtzDv4_t=0x85291c20;
_Z18convert_ulong4_satDv4_c=0x85261580;
_Z18convert_ulong4_satDv4_d=0x8515dc80;
_Z18convert_ulong4_satDv4_f=0x851791a0;
_Z18convert_ulong4_satDv4_h=0x85291ca0;
_Z18convert_ulong4_satDv4_i=0x85279140;
_Z18convert_ulong4_satDv4_j=0x85291d20;
_Z18convert_ulong4_satDv4_l=0x85261640;
_Z18convert_ulong4_satDv4_m=0x852ae0a0;
_Z18convert_ulong4_satDv4_s=0x85261700;
_Z18convert_ulong4_satDv4_t=0x85291da0;
_Z18convert_ulong8_rteDv8_c=0x852445c0;
_Z18convert_ulong8_rteDv8_d=0x8515dec0;
_Z18convert_ulong8_rteDv8_f=0x8516d880;
_Z18convert_ulong8_rteDv8_h=0x852446a0;
_Z18convert_ulong8_rteDv8_i=0x852617c0;
_Z18convert_ulong8_rteDv8_j=0x85244780;
_Z18convert_ulong8_rteDv8_l=0x8522b7a0;
_Z18convert_ulong8_rteDv8_m=0x852ae100;
_Z18convert_ulong8_rteDv8_s=0x85244860;
_Z18convert_ulong8_rteDv8_t=0x85261880;
_Z18convert_ulong8_rtnDv8_c=0x85244940;
_Z18convert_ulong8_rtnDv8_d=0x8515e100;
_Z18convert_ulong8_rtnDv8_f=0x8516daa0;
_Z18convert_ulong8_rtnDv8_h=0x85244a20;
_Z18convert_ulong8_rtnDv8_i=0x85261940;
_Z18convert_ulong8_rtnDv8_j=0x85244b00;
_Z18convert_ulong8_rtnDv8_l=0x8522b8a0;
_Z18convert_ulong8_rtnDv8_m=0x852ae160;
_Z18convert_ulong8_rtnDv8_s=0x85244be0;
_Z18convert_ulong8_rtnDv8_t=0x85261a00;
_Z18convert_ulong8_rtpDv8_c=0x85244cc0;
_Z18convert_ulong8_rtpDv8_d=0x8515e340;
_Z18convert_ulong8_rtpDv8_f=0x8516dcc0;
_Z18convert_ulong8_rtpDv8_h=0x85244da0;
_Z18convert_ulong8_rtpDv8_i=0x85261ac0;
_Z18convert_ulong8_rtpDv8_j=0x85244e80;
_Z18convert_ulong8_rtpDv8_l=0x8522b9a0;
_Z18convert_ulong8_rtpDv8_m=0x852ae1c0;
_Z18convert_ulong8_rtpDv8_s=0x85244f60;
_Z18convert_ulong8_rtpDv8_t=0x85261b80;
_Z18convert_ulong8_rtzDv8_c=0x85245040;
_Z18convert_ulong8_rtzDv8_d=0x851e0720;
_Z18convert_ulong8_rtzDv8_f=0x851e0880;
_Z18convert_ulong8_rtzDv8_h=0x85245120;
_Z18convert_ulong8_rtzDv8_i=0x85261c40;
_Z18convert_ulong8_rtzDv8_j=0x85245200;
_Z18convert_ulong8_rtzDv8_l=0x8522baa0;
_Z18convert_ulong8_rtzDv8_m=0x852ae220;
_Z18convert_ulong8_rtzDv8_s=0x852452e0;
_Z18convert_ulong8_rtzDv8_t=0x85261d00;
_Z18convert_ulong8_satDv8_c=0x851e09e0;
_Z18convert_ulong8_satDv8_d=0x850e1f60;
_Z18convert_ulong8_satDv8_f=0x850d12c0;
_Z18convert_ulong8_satDv8_h=0x852453c0;
_Z18convert_ulong8_satDv8_i=0x851fc380;
_Z18convert_ulong8_satDv8_j=0x852454a0;
_Z18convert_ulong8_satDv8_l=0x85214f20;
_Z18convert_ulong8_satDv8_m=0x852ae280;
_Z18convert_ulong8_satDv8_s=0x851fc4c0;
_Z18convert_ulong8_satDv8_t=0x85261dc0;
_Z18convert_ushort_rtec=0x852e0020;
_Z18convert_ushort_rted=0x852c7c00;
_Z18convert_ushort_rtef=0x852c7c40;
_Z18convert_ushort_rteh=0x852e0040;
_Z18convert_ushort_rtei=0x852e0060;
_Z18convert_ushort_rtej=0x852e0080;
_Z18convert_ushort_rtel=0x852e00a0;
_Z18convert_ushort_rtem=0x852e00c0;
_Z18convert_ushort_rtes=0x852e00e0;
_Z18convert_ushort_rtet=0x852e0100;
_Z18convert_ushort_rtnc=0x852e0120;
_Z18convert_ushort_rtnd=0x852c7c80;
_Z18convert_ushort_rtnf=0x852c7cc0;
_Z18convert_ushort_rtnh=0x852e0140;
_Z18convert_ushort_rtni=0x852e0160;
_Z18convert_ushort_rtnj=0x852e0180;
_Z18convert_ushort_rtnl=0x852e01a0;
_Z18convert_ushort_rtnm=0x852e01c0;
_Z18convert_ushort_rtns=0x852e01e0;
_Z18convert_ushort_rtnt=0x852e0200;
_Z18convert_ushort_rtpc=0x852e0220;
_Z18convert_ushort_rtpd=0x852c7d00;
_Z18convert_ushort_rtpf=0x852c7d40;
_Z18convert_ushort_rtph=0x852e0240;
_Z18convert_ushort_rtpi=0x852e0260;
_Z18convert_ushort_rtpj=0x852e0280;
_Z18convert_ushort_rtpl=0x852e02a0;
_Z18convert_ushort_rtpm=0x852e02c0;
_Z18convert_ushort_rtps=0x852e02e0;
_Z18convert_ushort_rtpt=0x852e0300;
_Z18convert_ushort_rtzc=0x852e0320;
_Z18convert_ushort_rtzd=0x852e0340;
_Z18convert_ushort_rtzf=0x852e0360;
_Z18convert_ushort_rtzh=0x852e0380;
_Z18convert_ushort_rtzi=0x852e03a0;
_Z18convert_ushort_rtzj=0x852e03c0;
_Z18convert_ushort_rtzl=0x852e03e0;
_Z18convert_ushort_rtzm=0x852e0400;
_Z18convert_ushort_rtzs=0x852e0420;
_Z18convert_ushort_rtzt=0x852e0440;
_Z18convert_ushort_satc=0x852e0460;
_Z18convert_ushort_satd=0x85291e20;
_Z18convert_ushort_satf=0x85291ea0;
_Z18convert_ushort_sath=0x852e0480;
_Z18convert_ushort_sati=0x852c7d80;
_Z18convert_ushort_satj=0x852e04a0;
_Z18convert_ushort_satl=0x852c7dc0;
_Z18convert_ushort_satm=0x852c7e00;
_Z18convert_ushort_sats=0x852e04c0;
_Z18convert_ushort_satt=0x852e04e0;
_Z18vstorea_half16_rteDv16_fjPDh=0x851fc600;
_Z18vstorea_half16_rteDv16_fjPU7CLlocalDh=0x851fc740;
_Z18vstorea_half16_rteDv16_fjPU8CLglobalDh=0x851fc880;
_Z18vstorea_half16_rtnDv16_fjPDh=0x851fc9c0;
_Z18vstorea_half16_rtnDv16_fjPU7CLlocalDh=0x851fcb00;
_Z18vstorea_half16_rtnDv16_fjPU8CLglobalDh=0x851fcc40;
_Z18vstorea_half16_rtpDv16_fjPDh=0x851fcd80;
_Z18vstorea_half16_rtpDv16_fjPU7CLlocalDh=0x851fcec0;
_Z18vstorea_half16_rtpDv16_fjPU8CLglobalDh=0x851fd000;
_Z18vstorea_half16_rtzDv16_fjPDh=0x85215040;
_Z18vstorea_half16_rtzDv16_fjPU7CLlocalDh=0x85215160;
_Z18vstorea_half16_rtzDv16_fjPU8CLglobalDh=0x85215280;
_Z19convert_double2_rteDv2_c=0x852e0500;
_Z19convert_double2_rteDv2_d=0x852e0520;
_Z19convert_double2_rteDv2_f=0x852e0540;
_Z19convert_double2_rteDv2_h=0x852e0560;
_Z19convert_double2_rteDv2_i=0x852e0580;
_Z19convert_double2_rteDv2_j=0x852e05a0;
_Z19convert_double2_rteDv2_l=0x852ae2e0;
_Z19convert_double2_rteDv2_m=0x852ae340;
_Z19convert_double2_rteDv2_s=0x852e05c0;
_Z19convert_double2_rteDv2_t=0x852e05e0;
_Z19convert_double2_rtnDv2_c=0x852e0600;
_Z19convert_double2_rtnDv2_d=0x852e0620;
_Z19convert_double2_rtnDv2_f=0x852e0640;
_Z19convert_double2_rtnDv2_h=0x852e0660;
_Z19convert_double2_rtnDv2_i=0x852e0680;
_Z19convert_double2_rtnDv2_j=0x852e06a0;
_Z19convert_double2_rtnDv2_l=0x852ae3a0;
_Z19convert_double2_rtnDv2_m=0x852ae400;
_Z19convert_double2_rtnDv2_s=0x852e06c0;
_Z19convert_double2_rtnDv2_t=0x852e06e0;
_Z19convert_double2_rtpDv2_c=0x852e0700;
_Z19convert_double2_rtpDv2_d=0x852e0720;
_Z19convert_double2_rtpDv2_f=0x852e0740;
_Z19convert_double2_rtpDv2_h=0x852e0760;
_Z19convert_double2_rtpDv2_i=0x852e0780;
_Z19convert_double2_rtpDv2_j=0x852e07a0;
_Z19convert_double2_rtpDv2_l=0x852ae460;
_Z19convert_double2_rtpDv2_m=0x852ae4c0;
_Z19convert_double2_rtpDv2_s=0x852e07c0;
_Z19convert_double2_rtpDv2_t=0x852e07e0;
_Z19convert_double2_rtzDv2_c=0x852e0800;
_Z19convert_double2_rtzDv2_d=0x852e0820;
_Z19convert_double2_rtzDv2_f=0x852e0840;
_Z19convert_double2_rtzDv2_h=0x852e0860;
_Z19convert_double2_rtzDv2_i=0x852e0880;
_Z19convert_double2_rtzDv2_j=0x852e08a0;
_Z19convert_double2_rtzDv2_l=0x852ae520;
_Z19convert_double2_rtzDv2_m=0x852ae580;
_Z19convert_double2_rtzDv2_s=0x852e08c0;
_Z19convert_double2_rtzDv2_t=0x852e08e0;
_Z19convert_double3_rteDv3_c=0x85291f20;
_Z19convert_double3_rteDv3_d=0x852ae5e0;
_Z19convert_double3_rteDv3_f=0x852ae640;
_Z19convert_double3_rteDv3_h=0x85291fa0;
_Z19convert_double3_rteDv3_i=0x852ae6a0;
_Z19convert_double3_rteDv3_j=0x852ae700;
_Z19convert_double3_rteDv3_l=0x85245580;
_Z19convert_double3_rteDv3_m=0x85245660;
_Z19convert_double3_rteDv3_s=0x852ae760;
_Z19convert_double3_rteDv3_t=0x852ae7c0;
_Z19convert_double3_rtnDv3_c=0x85292020;
_Z19convert_double3_rtnDv3_d=0x852ae820;
_Z19convert_double3_rtnDv3_f=0x852ae880;
_Z19convert_double3_rtnDv3_h=0x852920a0;
_Z19convert_double3_rtnDv3_i=0x852ae8e0;
_Z19convert_double3_rtnDv3_j=0x852ae940;
_Z19convert_double3_rtnDv3_l=0x85245740;
_Z19convert_double3_rtnDv3_m=0x85245820;
_Z19convert_double3_rtnDv3_s=0x852ae9a0;
_Z19convert_double3_rtnDv3_t=0x852aea00;
_Z19convert_double3_rtpDv3_c=0x85292120;
_Z19convert_double3_rtpDv3_d=0x852aea60;
_Z19convert_double3_rtpDv3_f=0x852aeac0;
_Z19convert_double3_rtpDv3_h=0x852921a0;
_Z19convert_double3_rtpDv3_i=0x852aeb20;
_Z19convert_double3_rtpDv3_j=0x852aeb80;
_Z19convert_double3_rtpDv3_l=0x85245900;
_Z19convert_double3_rtpDv3_m=0x852459e0;
_Z19convert_double3_rtpDv3_s=0x852aebe0;
_Z19convert_double3_rtpDv3_t=0x852aec40;
_Z19convert_double3_rtzDv3_c=0x85292220;
_Z19convert_double3_rtzDv3_d=0x852aeca0;
_Z19convert_double3_rtzDv3_f=0x852aed00;
_Z19convert_double3_rtzDv3_h=0x852922a0;
_Z19convert_double3_rtzDv3_i=0x852aed60;
_Z19convert_double3_rtzDv3_j=0x852aedc0;
_Z19convert_double3_rtzDv3_l=0x85245ac0;
_Z19convert_double3_rtzDv3_m=0x85245ba0;
_Z19convert_double3_rtzDv3_s=0x852aee20;
_Z19convert_double3_rtzDv3_t=0x852aee80;
_Z19convert_double4_rteDv4_c=0x85292320;
_Z19convert_double4_rteDv4_d=0x852aeee0;
_Z19convert_double4_rteDv4_f=0x852923a0;
_Z19convert_double4_rteDv4_h=0x85292420;
_Z19convert_double4_rteDv4_i=0x852924a0;
_Z19convert_double4_rteDv4_j=0x85292520;
_Z19convert_double4_rteDv4_l=0x8522bba0;
_Z19convert_double4_rteDv4_m=0x8522bca0;
_Z19convert_double4_rteDv4_s=0x852925a0;
_Z19convert_double4_rteDv4_t=0x85292620;
_Z19convert_double4_rtnDv4_c=0x852926a0;
_Z19convert_double4_rtnDv4_d=0x852aef40;
_Z19convert_double4_rtnDv4_f=0x85292720;
_Z19convert_double4_rtnDv4_h=0x852927a0;
_Z19convert_double4_rtnDv4_i=0x85292820;
_Z19convert_double4_rtnDv4_j=0x852928a0;
_Z19convert_double4_rtnDv4_l=0x8522bda0;
_Z19convert_double4_rtnDv4_m=0x8522bea0;
_Z19convert_double4_rtnDv4_s=0x85292920;
_Z19convert_double4_rtnDv4_t=0x852929a0;
_Z19convert_double4_rtpDv4_c=0x85292a20;
_Z19convert_double4_rtpDv4_d=0x852aefa0;
_Z19convert_double4_rtpDv4_f=0x85292aa0;
_Z19convert_double4_rtpDv4_h=0x85292b20;
_Z19convert_double4_rtpDv4_i=0x85292ba0;
_Z19convert_double4_rtpDv4_j=0x85292c20;
_Z19convert_double4_rtpDv4_l=0x8522bfa0;
_Z19convert_double4_rtpDv4_m=0x8522c0a0;
_Z19convert_double4_rtpDv4_s=0x85292ca0;
_Z19convert_double4_rtpDv4_t=0x85292d20;
_Z19convert_double4_rtzDv4_c=0x85292da0;
_Z19convert_double4_rtzDv4_d=0x852af000;
_Z19convert_double4_rtzDv4_f=0x85292e20;
_Z19convert_double4_rtzDv4_h=0x85292ea0;
_Z19convert_double4_rtzDv4_i=0x85292f20;
_Z19convert_double4_rtzDv4_j=0x85292fa0;
_Z19convert_double4_rtzDv4_l=0x8522c1a0;
_Z19convert_double4_rtzDv4_m=0x8522c2a0;
_Z19convert_double4_rtzDv4_s=0x85293020;
_Z19convert_double4_rtzDv4_t=0x852930a0;
_Z19convert_double8_rteDv8_c=0x85245c80;
_Z19convert_double8_rteDv8_d=0x852af060;
_Z19convert_double8_rteDv8_f=0x85261e80;
_Z19convert_double8_rteDv8_h=0x85245d60;
_Z19convert_double8_rteDv8_i=0x85261f40;
_Z19convert_double8_rteDv8_j=0x85262000;
_Z19convert_double8_rteDv8_l=0x851c8d40;
_Z19convert_double8_rteDv8_m=0x851c8ec0;
_Z19convert_double8_rteDv8_s=0x85245e40;
_Z19convert_double8_rteDv8_t=0x85245f20;
_Z19convert_double8_rtnDv8_c=0x85246000;
_Z19convert_double8_rtnDv8_d=0x852af0c0;
_Z19convert_double8_rtnDv8_f=0x852620c0;
_Z19convert_double8_rtnDv8_h=0x852460e0;
_Z19convert_double8_rtnDv8_i=0x85262180;
_Z19convert_double8_rtnDv8_j=0x85262240;
_Z19convert_double8_rtnDv8_l=0x851c9040;
_Z19convert_double8_rtnDv8_m=0x851c91c0;
_Z19convert_double8_rtnDv8_s=0x852461c0;
_Z19convert_double8_rtnDv8_t=0x852462a0;
_Z19convert_double8_rtpDv8_c=0x85246380;
_Z19convert_double8_rtpDv8_d=0x852af120;
_Z19convert_double8_rtpDv8_f=0x85262300;
_Z19convert_double8_rtpDv8_h=0x85246460;
_Z19convert_double8_rtpDv8_i=0x852623c0;
_Z19convert_double8_rtpDv8_j=0x85262480;
_Z19convert_double8_rtpDv8_l=0x851c9340;
_Z19convert_double8_rtpDv8_m=0x851c94c0;
_Z19convert_double8_rtpDv8_s=0x85246540;
_Z19convert_double8_rtpDv8_t=0x85246620;
_Z19convert_double8_rtzDv8_c=0x85246700;
_Z19convert_double8_rtzDv8_d=0x852af180;
_Z19convert_double8_rtzDv8_f=0x85262540;
_Z19convert_double8_rtzDv8_h=0x852467e0;
_Z19convert_double8_rtzDv8_i=0x85262600;
_Z19convert_double8_rtzDv8_j=0x852626c0;
_Z19convert_double8_rtzDv8_l=0x851c9640;
_Z19convert_double8_rtzDv8_m=0x851c97c0;
_Z19convert_double8_rtzDv8_s=0x852468c0;
_Z19convert_double8_rtzDv8_t=0x852469a0;
_Z19convert_float16_rteDv16_c=0x852153a0;
_Z19convert_float16_rteDv16_d=0x851793a0;
_Z19convert_float16_rteDv16_f=0x852af1e0;
_Z19convert_float16_rteDv16_h=0x852154c0;
_Z19convert_float16_rteDv16_i=0x85189980;
_Z19convert_float16_rteDv16_j=0x85189b60;
_Z19convert_float16_rteDv16_l=0x8516dee0;
_Z19convert_float16_rteDv16_m=0x8516e100;
_Z19convert_float16_rteDv16_s=0x8522c3a0;
_Z19convert_float16_rteDv16_t=0x8522c4a0;
_Z19convert_float16_rtnDv16_c=0x852155e0;
_Z19convert_float16_rtnDv16_d=0x8519dee0;
_Z19convert_float16_rtnDv16_f=0x852af240;
_Z19convert_float16_rtnDv16_h=0x85215700;
_Z19convert_float16_rtnDv16_i=0x851e0b40;
_Z19convert_float16_rtnDv16_j=0x851e0ca0;
_Z19convert_float16_rtnDv16_l=0x8516e320;
_Z19convert_float16_rtnDv16_m=0x8516e540;
_Z19convert_float16_rtnDv16_s=0x8522c5a0;
_Z19convert_float16_rtnDv16_t=0x8522c6a0;
_Z19convert_float16_rtpDv16_c=0x85215820;
_Z19convert_float16_rtpDv16_d=0x8519e0a0;
_Z19convert_float16_rtpDv16_f=0x852af2a0;
_Z19convert_float16_rtpDv16_h=0x85215940;
_Z19convert_float16_rtpDv16_i=0x851e0e00;
_Z19convert_float16_rtpDv16_j=0x851e0f60;
_Z19convert_float16_rtpDv16_l=0x8516e760;
_Z19convert_float16_rtpDv16_m=0x8516e980;
_Z19convert_float16_rtpDv16_s=0x8522c7a0;
_Z19convert_float16_rtpDv16_t=0x8522c8a0;
_Z19convert_float16_rtzDv16_c=0x85215a60;
_Z19convert_float16_rtzDv16_d=0x8519e260;
_Z19convert_float16_rtzDv16_f=0x852af300;
_Z19convert_float16_rtzDv16_h=0x85215b80;
_Z19convert_float16_rtzDv16_i=0x851e10c0;
_Z19convert_float16_rtzDv16_j=0x851e1220;
_Z19convert_float16_rtzDv16_l=0x8516eba0;
_Z19convert_float16_rtzDv16_m=0x8516edc0;
_Z19convert_float16_rtzDv16_s=0x8522c9a0;
_Z19convert_float16_rtzDv16_t=0x8522caa0;
_Z19convert_int_sat_rtec=0x852e0900;
_Z19convert_int_sat_rted=0x85293120;
_Z19convert_int_sat_rtef=0x852931a0;
_Z19convert_int_sat_rteh=0x852e0920;
_Z19convert_int_sat_rtei=0x852e0940;
_Z19convert_int_sat_rtej=0x852e0960;
_Z19convert_int_sat_rtel=0x852c7e40;
_Z19convert_int_sat_rtem=0x852e0980;
_Z19convert_int_sat_rtes=0x852e09a0;
_Z19convert_int_sat_rtet=0x852e09c0;
_Z19convert_int_sat_rtnc=0x852e09e0;
_Z19convert_int_sat_rtnd=0x85293220;
_Z19convert_int_sat_rtnf=0x852932a0;
_Z19convert_int_sat_rtnh=0x852e0a00;
_Z19convert_int_sat_rtni=0x852e0a20;
_Z19convert_int_sat_rtnj=0x852e0a40;
_Z19convert_int_sat_rtnl=0x852c7e80;
_Z19convert_int_sat_rtnm=0x852e0a60;
_Z19convert_int_sat_rtns=0x852e0a80;
_Z19convert_int_sat_rtnt=0x852e0aa0;
_Z19convert_int_sat_rtpc=0x852e0ac0;
_Z19convert_int_sat_rtpd=0x85293320;
_Z19convert_int_sat_rtpf=0x852933a0;
_Z19convert_int_sat_rtph=0x852e0ae0;
_Z19convert_int_sat_rtpi=0x852e0b00;
_Z19convert_int_sat_rtpj=0x852e0b20;
_Z19convert_int_sat_rtpl=0x852c7ec0;
_Z19convert_int_sat_rtpm=0x852e0b40;
_Z19convert_int_sat_rtps=0x852e0b60;
_Z19convert_int_sat_rtpt=0x852e0b80;
_Z19convert_int_sat_rtzc=0x852e0ba0;
_Z19convert_int_sat_rtzd=0x85293420;
_Z19convert_int_sat_rtzf=0x852af360;
_Z19convert_int_sat_rtzh=0x852e0bc0;
_Z19convert_int_sat_rtzi=0x852e0be0;
_Z19convert_int_sat_rtzj=0x852e0c00;
_Z19convert_int_sat_rtzl=0x852c7f00;
_Z19convert_int_sat_rtzm=0x852e0c20;
_Z19convert_int_sat_rtzs=0x852e0c40;
_Z19convert_int_sat_rtzt=0x852e0c60;
_Z19convert_short16_rteDv16_c=0x85246a80;
_Z19convert_short16_rteDv16_d=0x85132780;
_Z19convert_short16_rteDv16_f=0x851795a0;
_Z19convert_short16_rteDv16_h=0x85246b60;
_Z19convert_short16_rteDv16_i=0x852934a0;
_Z19convert_short16_rteDv16_j=0x85293520;
_Z19convert_short16_rteDv16_l=0x85262780;
_Z19convert_short16_rteDv16_m=0x85262840;
_Z19convert_short16_rteDv16_s=0x852af3c0;
_Z19convert_short16_rteDv16_t=0x852935a0;
_Z19convert_short16_rtnDv16_c=0x85246c40;
_Z19convert_short16_rtnDv16_d=0x85132a40;
_Z19convert_short16_rtnDv16_f=0x851797a0;
_Z19convert_short16_rtnDv16_h=0x85246d20;
_Z19convert_short16_rtnDv16_i=0x85293620;
_Z19convert_short16_rtnDv16_j=0x852936a0;
_Z19convert_short16_rtnDv16_l=0x85262900;
_Z19convert_short16_rtnDv16_m=0x852629c0;
_Z19convert_short16_rtnDv16_s=0x852af420;
_Z19convert_short16_rtnDv16_t=0x85293720;
_Z19convert_short16_rtpDv16_c=0x85246e00;
_Z19convert_short16_rtpDv16_d=0x85132d00;
_Z19convert_short16_rtpDv16_f=0x851799a0;
_Z19convert_short16_rtpDv16_h=0x85246ee0;
_Z19convert_short16_rtpDv16_i=0x852937a0;
_Z19convert_short16_rtpDv16_j=0x85293820;
_Z19convert_short16_rtpDv16_l=0x85262a80;
_Z19convert_short16_rtpDv16_m=0x85262b40;
_Z19convert_short16_rtpDv16_s=0x852af480;
_Z19convert_short16_rtpDv16_t=0x852938a0;
_Z19convert_short16_rtzDv16_c=0x85246fc0;
_Z19convert_short16_rtzDv16_d=0x852470a0;
_Z19convert_short16_rtzDv16_f=0x85262c00;
_Z19convert_short16_rtzDv16_h=0x85247180;
_Z19convert_short16_rtzDv16_i=0x85293920;
_Z19convert_short16_rtzDv16_j=0x852939a0;
_Z19convert_short16_rtzDv16_l=0x85262cc0;
_Z19convert_short16_rtzDv16_m=0x85262d80;
_Z19convert_short16_rtzDv16_s=0x852af4e0;
_Z19convert_short16_rtzDv16_t=0x85293a20;
_Z19convert_short16_satDv16_c=0x85247260;
_Z19convert_short16_satDv16_d=0x85096420;
_Z19convert_short16_satDv16_f=0x8510b940;
_Z19convert_short16_satDv16_h=0x85247340;
_Z19convert_short16_satDv16_i=0x850ffd40;
_Z19convert_short16_satDv16_j=0x851e1380;
_Z19convert_short16_satDv16_l=0x8506dc80;
_Z19convert_short16_satDv16_m=0x8510bc80;
_Z19convert_short16_satDv16_s=0x852af540;
_Z19convert_short16_satDv16_t=0x851c9940;
_Z19convert_uchar16_rteDv16_c=0x852e0c80;
_Z19convert_uchar16_rteDv16_d=0x850f83c0;
_Z19convert_uchar16_rteDv16_f=0x8511aa20;
_Z19convert_uchar16_rteDv16_h=0x852e0ca0;
_Z19convert_uchar16_rteDv16_i=0x852af5a0;
_Z19convert_uchar16_rteDv16_j=0x852af600;
_Z19convert_uchar16_rteDv16_l=0x852791e0;
_Z19convert_uchar16_rteDv16_m=0x85279280;
_Z19convert_uchar16_rteDv16_s=0x85293aa0;
_Z19convert_uchar16_rteDv16_t=0x85293b20;
_Z19convert_uchar16_rtnDv16_c=0x852e0cc0;
_Z19convert_uchar16_rtnDv16_d=0x850f8740;
_Z19convert_uchar16_rtnDv16_f=0x8511ad20;
_Z19convert_uchar16_rtnDv16_h=0x852e0ce0;
_Z19convert_uchar16_rtnDv16_i=0x852af660;
_Z19convert_uchar16_rtnDv16_j=0x852af6c0;
_Z19convert_uchar16_rtnDv16_l=0x85279320;
_Z19convert_uchar16_rtnDv16_m=0x852793c0;
_Z19convert_uchar16_rtnDv16_s=0x85293ba0;
_Z19convert_uchar16_rtnDv16_t=0x85293c20;
_Z19convert_uchar16_rtpDv16_c=0x852e0d00;
_Z19convert_uchar16_rtpDv16_d=0x850f8ac0;
_Z19convert_uchar16_rtpDv16_f=0x8511b020;
_Z19convert_uchar16_rtpDv16_h=0x852e0d20;
_Z19convert_uchar16_rtpDv16_i=0x852af720;
_Z19convert_uchar16_rtpDv16_j=0x852af780;
_Z19convert_uchar16_rtpDv16_l=0x85279460;
_Z19convert_uchar16_rtpDv16_m=0x85279500;
_Z19convert_uchar16_rtpDv16_s=0x85293ca0;
_Z19convert_uchar16_rtpDv16_t=0x85293d20;
_Z19convert_uchar16_rtzDv16_c=0x852e0d40;
_Z19convert_uchar16_rtzDv16_d=0x8519e420;
_Z19convert_uchar16_rtzDv16_f=0x8519e5e0;
_Z19convert_uchar16_rtzDv16_h=0x852e0d60;
_Z19convert_uchar16_rtzDv16_i=0x852af7e0;
_Z19convert_uchar16_rtzDv16_j=0x852af840;
_Z19convert_uchar16_rtzDv16_l=0x852795a0;
_Z19convert_uchar16_rtzDv16_m=0x85279640;
_Z19convert_uchar16_rtzDv16_s=0x85293da0;
_Z19convert_uchar16_rtzDv16_t=0x85293e20;
_Z19convert_uchar16_satDv16_c=0x851c9ac0;
_Z19convert_uchar16_satDv16_d=0x850969c0;
_Z19convert_uchar16_satDv16_f=0x850861a0;
_Z19convert_uchar16_satDv16_h=0x852e0d80;
_Z19convert_uchar16_satDv16_i=0x85132fc0;
_Z19convert_uchar16_satDv16_j=0x851e14e0;
_Z19convert_uchar16_satDv16_l=0x850a8080;
_Z19convert_uchar16_satDv16_m=0x8513ab40;
_Z19convert_uchar16_satDv16_s=0x851268e0;
_Z19convert_uchar16_satDv16_t=0x8519e7a0;
_Z19convert_ulong16_rteDv16_c=0x8519e960;
_Z19convert_ulong16_rteDv16_d=0x85091f80;
_Z19convert_ulong16_rteDv16_f=0x850b0860;
_Z19convert_ulong16_rteDv16_h=0x8519eb20;
_Z19convert_ulong16_rteDv16_i=0x851c9c40;
_Z19convert_ulong16_rteDv16_j=0x851c9dc0;
_Z19convert_ulong16_rteDv16_l=0x85189d40;
_Z19convert_ulong16_rteDv16_m=0x852af8a0;
_Z19convert_ulong16_rteDv16_s=0x851c9f40;
_Z19convert_ulong16_rteDv16_t=0x851e1640;
_Z19convert_ulong16_rtnDv16_c=0x8519ece0;
_Z19convert_ulong16_rtnDv16_d=0x85092540;
_Z19convert_ulong16_rtnDv16_f=0x850b0d20;
_Z19convert_ulong16_rtnDv16_h=0x8519eea0;
_Z19convert_ulong16_rtnDv16_i=0x851ca0c0;
_Z19convert_ulong16_rtnDv16_j=0x851ca240;
_Z19convert_ulong16_rtnDv16_l=0x85189f20;
_Z19convert_ulong16_rtnDv16_m=0x852af900;
_Z19convert_ulong16_rtnDv16_s=0x851ca3c0;
_Z19convert_ulong16_rtnDv16_t=0x851e17a0;
_Z19convert_ulong16_rtpDv16_c=0x8519f060;
_Z19convert_ulong16_rtpDv16_d=0x85092b00;
_Z19convert_ulong16_rtpDv16_f=0x850b11e0;
_Z19convert_ulong16_rtpDv16_h=0x8519f220;
_Z19convert_ulong16_rtpDv16_i=0x851ca540;
_Z19convert_ulong16_rtpDv16_j=0x851ca6c0;
_Z19convert_ulong16_rtpDv16_l=0x8518a100;
_Z19convert_ulong16_rtpDv16_m=0x852af960;
_Z19convert_ulong16_rtpDv16_s=0x851ca840;
_Z19convert_ulong16_rtpDv16_t=0x851e1900;
_Z19convert_ulong16_rtzDv16_c=0x8519f3e0;
_Z19convert_ulong16_rtzDv16_d=0x85113a20;
_Z19convert_ulong16_rtzDv16_f=0x851000a0;
_Z19convert_ulong16_rtzDv16_h=0x8519f5a0;
_Z19convert_ulong16_rtzDv16_i=0x851ca9c0;
_Z19convert_ulong16_rtzDv16_j=0x851cab40;
_Z19convert_ulong16_rtzDv16_l=0x8518a2e0;
_Z19convert_ulong16_rtzDv16_m=0x852af9c0;
_Z19convert_ulong16_rtzDv16_s=0x851cacc0;
_Z19convert_ulong16_rtzDv16_t=0x851e1a60;
_Z19convert_ulong16_satDv16_c=0x8511b320;
_Z19convert_ulong16_satDv16_d=0x8505f5a0;
_Z19convert_ulong16_satDv16_f=0x85065480;
_Z19convert_ulong16_satDv16_h=0x8519f760;
_Z19convert_ulong16_satDv16_i=0x85133280;
_Z19convert_ulong16_satDv16_j=0x851cae40;
_Z19convert_ulong16_satDv16_l=0x8510bfc0;
_Z19convert_ulong16_satDv16_m=0x852afa20;
_Z19convert_ulong16_satDv16_s=0x8513ade0;
_Z19convert_ulong16_satDv16_t=0x851e1bc0;
_Z19convert_ushort2_rteDv2_c=0x852e0da0;
_Z19convert_ushort2_rteDv2_d=0x85293ea0;
_Z19convert_ushort2_rteDv2_f=0x852afa80;
_Z19convert_ushort2_rteDv2_h=0x852e0dc0;
_Z19convert_ushort2_rteDv2_i=0x852e0de0;
_Z19convert_ushort2_rteDv2_j=0x852e0e00;
_Z19convert_ushort2_rteDv2_l=0x852e0e20;
_Z19convert_ushort2_rteDv2_m=0x852e0e40;
_Z19convert_ushort2_rteDv2_s=0x852e0e60;
_Z19convert_ushort2_rteDv2_t=0x852e0e80;
_Z19convert_ushort2_rtnDv2_c=0x852e0ea0;
_Z19convert_ushort2_rtnDv2_d=0x85293f20;
_Z19convert_ushort2_rtnDv2_f=0x852afae0;
_Z19convert_ushort2_rtnDv2_h=0x852e0ec0;
_Z19convert_ushort2_rtnDv2_i=0x852e0ee0;
_Z19convert_ushort2_rtnDv2_j=0x852e0f00;
_Z19convert_ushort2_rtnDv2_l=0x852e0f20;
_Z19convert_ushort2_rtnDv2_m=0x852e0f40;
_Z19convert_ushort2_rtnDv2_s=0x852e0f60;
_Z19convert_ushort2_rtnDv2_t=0x852e0f80;
_Z19convert_ushort2_rtpDv2_c=0x852e0fa0;
_Z19convert_ushort2_rtpDv2_d=0x85293fa0;
_Z19convert_ushort2_rtpDv2_f=0x852afb40;
_Z19convert_ushort2_rtpDv2_h=0x852e0fc0;
_Z19convert_ushort2_rtpDv2_i=0x852e0fe0;
_Z19convert_ushort2_rtpDv2_j=0x852e1000;
_Z19convert_ushort2_rtpDv2_l=0x852e1020;
_Z19convert_ushort2_rtpDv2_m=0x852e1040;
_Z19convert_ushort2_rtpDv2_s=0x852e1060;
_Z19convert_ushort2_rtpDv2_t=0x852e1080;
_Z19convert_ushort2_rtzDv2_c=0x852e10a0;
_Z19convert_ushort2_rtzDv2_d=0x852afba0;
_Z19convert_ushort2_rtzDv2_f=0x852afc00;
_Z19convert_ushort2_rtzDv2_h=0x852e10c0;
_Z19convert_ushort2_rtzDv2_i=0x852e10e0;
_Z19convert_ushort2_rtzDv2_j=0x852e1100;
_Z19convert_ushort2_rtzDv2_l=0x852e1120;
_Z19convert_ushort2_rtzDv2_m=0x852e1140;
_Z19convert_ushort2_rtzDv2_s=0x852e1160;
_Z19convert_ushort2_rtzDv2_t=0x852e1180;
_Z19convert_ushort2_satDv2_c=0x852c7f40;
_Z19convert_ushort2_satDv2_d=0x8522cba0;
_Z19convert_ushort2_satDv2_f=0x85262e40;
_Z19convert_ushort2_satDv2_h=0x852e11a0;
_Z19convert_ushort2_satDv2_i=0x852c7f80;
_Z19convert_ushort2_satDv2_j=0x852c7fc0;
_Z19convert_ushort2_satDv2_l=0x852afc60;
_Z19convert_ushort2_satDv2_m=0x852c8000;
_Z19convert_ushort2_satDv2_s=0x852c8040;
_Z19convert_ushort2_satDv2_t=0x852e11c0;
_Z19convert_ushort3_rteDv3_c=0x852e11e0;
_Z19convert_ushort3_rteDv3_d=0x85262f00;
_Z19convert_ushort3_rteDv3_f=0x852796e0;
_Z19convert_ushort3_rteDv3_h=0x852e1200;
_Z19convert_ushort3_rteDv3_i=0x852e1220;
_Z19convert_ushort3_rteDv3_j=0x852e1240;
_Z19convert_ushort3_rteDv3_l=0x852c8080;
_Z19convert_ushort3_rteDv3_m=0x852c80c0;
_Z19convert_ushort3_rteDv3_s=0x852e1260;
_Z19convert_ushort3_rteDv3_t=0x852e1280;
_Z19convert_ushort3_rtnDv3_c=0x852e12a0;
_Z19convert_ushort3_rtnDv3_d=0x85262fc0;
_Z19convert_ushort3_rtnDv3_f=0x85279780;
_Z19convert_ushort3_rtnDv3_h=0x852e12c0;
_Z19convert_ushort3_rtnDv3_i=0x852e12e0;
_Z19convert_ushort3_rtnDv3_j=0x852e1300;
_Z19convert_ushort3_rtnDv3_l=0x852c8100;
_Z19convert_ushort3_rtnDv3_m=0x852c8140;
_Z19convert_ushort3_rtnDv3_s=0x852e1320;
_Z19convert_ushort3_rtnDv3_t=0x852e1340;
_Z19convert_ushort3_rtpDv3_c=0x852e1360;
_Z19convert_ushort3_rtpDv3_d=0x85263080;
_Z19convert_ushort3_rtpDv3_f=0x85279820;
_Z19convert_ushort3_rtpDv3_h=0x852e1380;
_Z19convert_ushort3_rtpDv3_i=0x852e13a0;
_Z19convert_ushort3_rtpDv3_j=0x852e13c0;
_Z19convert_ushort3_rtpDv3_l=0x852c8180;
_Z19convert_ushort3_rtpDv3_m=0x852c81c0;
_Z19convert_ushort3_rtpDv3_s=0x852e13e0;
_Z19convert_ushort3_rtpDv3_t=0x852e1400;
_Z19convert_ushort3_rtzDv3_c=0x852e1420;
_Z19convert_ushort3_rtzDv3_d=0x852798c0;
_Z19convert_ushort3_rtzDv3_f=0x85294020;
_Z19convert_ushort3_rtzDv3_h=0x852e1440;
_Z19convert_ushort3_rtzDv3_i=0x852e1460;
_Z19convert_ushort3_rtzDv3_j=0x852e1480;
_Z19convert_ushort3_rtzDv3_l=0x852c8200;
_Z19convert_ushort3_rtzDv3_m=0x852c8240;
_Z19convert_ushort3_rtzDv3_s=0x852e14a0;
_Z19convert_ushort3_rtzDv3_t=0x852e14c0;
_Z19convert_ushort3_satDv3_c=0x852c8280;
_Z19convert_ushort3_satDv3_d=0x851fd140;
_Z19convert_ushort3_satDv3_f=0x85215ca0;
_Z19convert_ushort3_satDv3_h=0x852e14e0;
_Z19convert_ushort3_satDv3_i=0x852afcc0;
_Z19convert_ushort3_satDv3_j=0x852c82c0;
_Z19convert_ushort3_satDv3_l=0x85263140;
_Z19convert_ushort3_satDv3_m=0x85279960;
_Z19convert_ushort3_satDv3_s=0x852c8300;
_Z19convert_ushort3_satDv3_t=0x852e1500;
_Z19convert_ushort4_rteDv4_c=0x852e1520;
_Z19convert_ushort4_rteDv4_d=0x85247420;
_Z19convert_ushort4_rteDv4_f=0x85279a00;
_Z19convert_ushort4_rteDv4_h=0x852e1540;
_Z19convert_ushort4_rteDv4_i=0x852e1560;
_Z19convert_ushort4_rteDv4_j=0x852e1580;
_Z19convert_ushort4_rteDv4_l=0x852c8340;
_Z19convert_ushort4_rteDv4_m=0x852c8380;
_Z19convert_ushort4_rteDv4_s=0x852e15a0;
_Z19convert_ushort4_rteDv4_t=0x852e15c0;
_Z19convert_ushort4_rtnDv4_c=0x852e15e0;
_Z19convert_ushort4_rtnDv4_d=0x85247500;
_Z19convert_ushort4_rtnDv4_f=0x85279aa0;
_Z19convert_ushort4_rtnDv4_h=0x852e1600;
_Z19convert_ushort4_rtnDv4_i=0x852e1620;
_Z19convert_ushort4_rtnDv4_j=0x852e1640;
_Z19convert_ushort4_rtnDv4_l=0x852c83c0;
_Z19convert_ushort4_rtnDv4_m=0x852c8400;
_Z19convert_ushort4_rtnDv4_s=0x852e1660;
_Z19convert_ushort4_rtnDv4_t=0x852e1680;
_Z19convert_ushort4_rtpDv4_c=0x852e16a0;
_Z19convert_ushort4_rtpDv4_d=0x852475e0;
_Z19convert_ushort4_rtpDv4_f=0x85279b40;
_Z19convert_ushort4_rtpDv4_h=0x852e16c0;
_Z19convert_ushort4_rtpDv4_i=0x852e16e0;
_Z19convert_ushort4_rtpDv4_j=0x852e1700;
_Z19convert_ushort4_rtpDv4_l=0x852c8440;
_Z19convert_ushort4_rtpDv4_m=0x852c8480;
_Z19convert_ushort4_rtpDv4_s=0x852e1720;
_Z19convert_ushort4_rtpDv4_t=0x852e1740;
_Z19convert_ushort4_rtzDv4_c=0x852e1760;
_Z19convert_ushort4_rtzDv4_d=0x85279be0;
_Z19convert_ushort4_rtzDv4_f=0x852940a0;
_Z19convert_ushort4_rtzDv4_h=0x852e1780;
_Z19convert_ushort4_rtzDv4_i=0x852e17a0;
_Z19convert_ushort4_rtzDv4_j=0x852e17c0;
_Z19convert_ushort4_rtzDv4_l=0x852c84c0;
_Z19convert_ushort4_rtzDv4_m=0x852c8500;
_Z19convert_ushort4_rtzDv4_s=0x852e17e0;
_Z19convert_ushort4_rtzDv4_t=0x852e1800;
_Z19convert_ushort4_satDv4_c=0x852afd20;
_Z19convert_ushort4_satDv4_d=0x8519f920;
_Z19convert_ushort4_satDv4_f=0x851e1d20;
_Z19convert_ushort4_satDv4_h=0x852e1820;
_Z19convert_ushort4_satDv4_i=0x85294120;
_Z19convert_ushort4_satDv4_j=0x852c8540;
_Z19convert_ushort4_satDv4_l=0x8522cca0;
_Z19convert_ushort4_satDv4_m=0x85263200;
_Z19convert_ushort4_satDv4_s=0x852afd80;
_Z19convert_ushort4_satDv4_t=0x852e1840;
_Z19convert_ushort8_rteDv8_c=0x852afde0;
_Z19convert_ushort8_rteDv8_d=0x8518a4c0;
_Z19convert_ushort8_rteDv8_f=0x851cafc0;
_Z19convert_ushort8_rteDv8_h=0x852afe40;
_Z19convert_ushort8_rteDv8_i=0x852c8580;
_Z19convert_ushort8_rteDv8_j=0x852c85c0;
_Z19convert_ushort8_rteDv8_l=0x852c8600;
_Z19convert_ushort8_rteDv8_m=0x852c8640;
_Z19convert_ushort8_rteDv8_s=0x852e1860;
_Z19convert_ushort8_rteDv8_t=0x852e1880;
_Z19convert_ushort8_rtnDv8_c=0x852afea0;
_Z19convert_ushort8_rtnDv8_d=0x8518a6a0;
_Z19convert_ushort8_rtnDv8_f=0x851cb140;
_Z19convert_ushort8_rtnDv8_h=0x852aff00;
_Z19convert_ushort8_rtnDv8_i=0x852c8680;
_Z19convert_ushort8_rtnDv8_j=0x852c86c0;
_Z19convert_ushort8_rtnDv8_l=0x852c8700;
_Z19convert_ushort8_rtnDv8_m=0x852c8740;
_Z19convert_ushort8_rtnDv8_s=0x852e18a0;
_Z19convert_ushort8_rtnDv8_t=0x852e18c0;
_Z19convert_ushort8_rtpDv8_c=0x852aff60;
_Z19convert_ushort8_rtpDv8_d=0x8518a880;
_Z19convert_ushort8_rtpDv8_f=0x851cb2c0;
_Z19convert_ushort8_rtpDv8_h=0x852affc0;
_Z19convert_ushort8_rtpDv8_i=0x852c8780;
_Z19convert_ushort8_rtpDv8_j=0x852c87c0;
_Z19convert_ushort8_rtpDv8_l=0x852c8800;
_Z19convert_ushort8_rtpDv8_m=0x852c8840;
_Z19convert_ushort8_rtpDv8_s=0x852e18e0;
_Z19convert_ushort8_rtpDv8_t=0x852e1900;
_Z19convert_ushort8_rtzDv8_c=0x852b0020;
_Z19convert_ushort8_rtzDv8_d=0x85215dc0;
_Z19convert_ushort8_rtzDv8_f=0x85215ee0;
_Z19convert_ushort8_rtzDv8_h=0x852b0080;
_Z19convert_ushort8_rtzDv8_i=0x852c8880;
_Z19convert_ushort8_rtzDv8_j=0x852c88c0;
_Z19convert_ushort8_rtzDv8_l=0x852c8900;
_Z19convert_ushort8_rtzDv8_m=0x852c8940;
_Z19convert_ushort8_rtzDv8_s=0x852e1920;
_Z19convert_ushort8_rtzDv8_t=0x852e1940;
_Z19convert_ushort8_satDv8_c=0x852632c0;
_Z19convert_ushort8_satDv8_d=0x85126bc0;
_Z19convert_ushort8_satDv8_f=0x85126ea0;
_Z19convert_ushort8_satDv8_h=0x852b00e0;
_Z19convert_ushort8_satDv8_i=0x85216000;
_Z19convert_ushort8_satDv8_j=0x85279c80;
_Z19convert_ushort8_satDv8_l=0x85179ba0;
_Z19convert_ushort8_satDv8_m=0x851fd280;
_Z19convert_ushort8_satDv8_s=0x85279d20;
_Z19convert_ushort8_satDv8_t=0x852e1960;
_Z20convert_char_sat_rtec=0x852e1980;
_Z20convert_char_sat_rted=0x852941a0;
_Z20convert_char_sat_rtef=0x852b0140;
_Z20convert_char_sat_rteh=0x852e19a0;
_Z20convert_char_sat_rtei=0x852e19c0;
_Z20convert_char_sat_rtej=0x852e19e0;
_Z20convert_char_sat_rtel=0x852c8980;
_Z20convert_char_sat_rtem=0x852e1a00;
_Z20convert_char_sat_rtes=0x852e1a20;
_Z20convert_char_sat_rtet=0x852e1a40;
_Z20convert_char_sat_rtnc=0x852e1a60;
_Z20convert_char_sat_rtnd=0x85294220;
_Z20convert_char_sat_rtnf=0x852b01a0;
_Z20convert_char_sat_rtnh=0x852e1a80;
_Z20convert_char_sat_rtni=0x852e1aa0;
_Z20convert_char_sat_rtnj=0x852e1ac0;
_Z20convert_char_sat_rtnl=0x852c89c0;
_Z20convert_char_sat_rtnm=0x852e1ae0;
_Z20convert_char_sat_rtns=0x852e1b00;
_Z20convert_char_sat_rtnt=0x852e1b20;
_Z20convert_char_sat_rtpc=0x852e1b40;
_Z20convert_char_sat_rtpd=0x852942a0;
_Z20convert_char_sat_rtpf=0x852b0200;
_Z20convert_char_sat_rtph=0x852e1b60;
_Z20convert_char_sat_rtpi=0x852e1b80;
_Z20convert_char_sat_rtpj=0x852e1ba0;
_Z20convert_char_sat_rtpl=0x852c8a00;
_Z20convert_char_sat_rtpm=0x852e1bc0;
_Z20convert_char_sat_rtps=0x852e1be0;
_Z20convert_char_sat_rtpt=0x852e1c00;
_Z20convert_char_sat_rtzc=0x852e1c20;
_Z20convert_char_sat_rtzd=0x85294320;
_Z20convert_char_sat_rtzf=0x852b0260;
_Z20convert_char_sat_rtzh=0x852e1c40;
_Z20convert_char_sat_rtzi=0x852e1c60;
_Z20convert_char_sat_rtzj=0x852e1c80;
_Z20convert_char_sat_rtzl=0x852c8a40;
_Z20convert_char_sat_rtzm=0x852e1ca0;
_Z20convert_char_sat_rtzs=0x852e1cc0;
_Z20convert_char_sat_rtzt=0x852e1ce0;
_Z20convert_double16_rteDv16_c=0x8519fae0;
_Z20convert_double16_rteDv16_d=0x852b02c0;
_Z20convert_double16_rteDv16_f=0x851e1e80;
_Z20convert_double16_rteDv16_h=0x8519fca0;
_Z20convert_double16_rteDv16_i=0x851cb440;
_Z20convert_double16_rteDv16_j=0x851cb5c0;
_Z20convert_double16_rteDv16_l=0x850dab40;
_Z20convert_double16_rteDv16_m=0x850daf20;
_Z20convert_double16_rteDv16_s=0x851b47e0;
_Z20convert_double16_rteDv16_t=0x851b4980;
_Z20convert_double16_rtnDv16_c=0x8519fe60;
_Z20convert_double16_rtnDv16_d=0x852b0320;
_Z20convert_double16_rtnDv16_f=0x851e1fe0;
_Z20convert_double16_rtnDv16_h=0x851a0020;
_Z20convert_double16_rtnDv16_i=0x851cb740;
_Z20convert_double16_rtnDv16_j=0x851cb8c0;
_Z20convert_double16_rtnDv16_l=0x850db300;
_Z20convert_double16_rtnDv16_m=0x850db6e0;
_Z20convert_double16_rtnDv16_s=0x851b4b20;
_Z20convert_double16_rtnDv16_t=0x851b4cc0;
_Z20convert_double16_rtpDv16_c=0x851a01e0;
_Z20convert_double16_rtpDv16_d=0x852b0380;
_Z20convert_double16_rtpDv16_f=0x851e2140;
_Z20convert_double16_rtpDv16_h=0x851a03a0;
_Z20convert_double16_rtpDv16_i=0x851cba40;
_Z20convert_double16_rtpDv16_j=0x851cbbc0;
_Z20convert_double16_rtpDv16_l=0x850dbac0;
_Z20convert_double16_rtpDv16_m=0x850dbea0;
_Z20convert_double16_rtpDv16_s=0x851b4e60;
_Z20convert_double16_rtpDv16_t=0x851b5000;
_Z20convert_double16_rtzDv16_c=0x851a0560;
_Z20convert_double16_rtzDv16_d=0x852b03e0;
_Z20convert_double16_rtzDv16_f=0x851e22a0;
_Z20convert_double16_rtzDv16_h=0x851a0720;
_Z20convert_double16_rtzDv16_i=0x851cbd40;
_Z20convert_double16_rtzDv16_j=0x851cbec0;
_Z20convert_double16_rtzDv16_l=0x850dc280;
_Z20convert_double16_rtzDv16_m=0x850dc660;
_Z20convert_double16_rtzDv16_s=0x851b51a0;
_Z20convert_double16_rtzDv16_t=0x851b5340;
_Z20convert_int2_sat_rteDv2_c=0x852e1d00;
_Z20convert_int2_sat_rteDv2_d=0x85216120;
_Z20convert_int2_sat_rteDv2_f=0x852476c0;
_Z20convert_int2_sat_rteDv2_h=0x852e1d20;
_Z20convert_int2_sat_rteDv2_i=0x852e1d40;
_Z20convert_int2_sat_rteDv2_j=0x852e1d60;
_Z20convert_int2_sat_rteDv2_l=0x85279dc0;
_Z20convert_int2_sat_rteDv2_m=0x852c8a80;
_Z20convert_int2_sat_rteDv2_s=0x852e1d80;
_Z20convert_int2_sat_rteDv2_t=0x852e1da0;
_Z20convert_int2_sat_rtnDv2_c=0x852e1dc0;
_Z20convert_int2_sat_rtnDv2_d=0x85216240;
_Z20convert_int2_sat_rtnDv2_f=0x852477a0;
_Z20convert_int2_sat_rtnDv2_h=0x852e1de0;
_Z20convert_int2_sat_rtnDv2_i=0x852e1e00;
_Z20convert_int2_sat_rtnDv2_j=0x852e1e20;
_Z20convert_int2_sat_rtnDv2_l=0x85279e60;
_Z20convert_int2_sat_rtnDv2_m=0x852c8ac0;
_Z20convert_int2_sat_rtnDv2_s=0x852e1e40;
_Z20convert_int2_sat_rtnDv2_t=0x852e1e60;
_Z20convert_int2_sat_rtpDv2_c=0x852e1e80;
_Z20convert_int2_sat_rtpDv2_d=0x85216360;
_Z20convert_int2_sat_rtpDv2_f=0x85247880;
_Z20convert_int2_sat_rtpDv2_h=0x852e1ea0;
_Z20convert_int2_sat_rtpDv2_i=0x852e1ec0;
_Z20convert_int2_sat_rtpDv2_j=0x852e1ee0;
_Z20convert_int2_sat_rtpDv2_l=0x85279f00;
_Z20convert_int2_sat_rtpDv2_m=0x852c8b00;
_Z20convert_int2_sat_rtpDv2_s=0x852e1f00;
_Z20convert_int2_sat_rtpDv2_t=0x852e1f20;
_Z20convert_int2_sat_rtzDv2_c=0x852e1f40;
_Z20convert_int2_sat_rtzDv2_d=0x8522cda0;
_Z20convert_int2_sat_rtzDv2_f=0x85263380;
_Z20convert_int2_sat_rtzDv2_h=0x852e1f60;
_Z20convert_int2_sat_rtzDv2_i=0x852e1f80;
_Z20convert_int2_sat_rtzDv2_j=0x852e1fa0;
_Z20convert_int2_sat_rtzDv2_l=0x85279fa0;
_Z20convert_int2_sat_rtzDv2_m=0x852c8b40;
_Z20convert_int2_sat_rtzDv2_s=0x852e1fc0;
_Z20convert_int2_sat_rtzDv2_t=0x852e1fe0;
_Z20convert_int3_sat_rteDv3_c=0x852e2000;
_Z20convert_int3_sat_rteDv3_d=0x851cc040;
_Z20convert_int3_sat_rteDv3_f=0x85216480;
_Z20convert_int3_sat_rteDv3_h=0x852e2020;
_Z20convert_int3_sat_rteDv3_i=0x852e2040;
_Z20convert_int3_sat_rteDv3_j=0x852c8b80;
_Z20convert_int3_sat_rteDv3_l=0x8522cea0;
_Z20convert_int3_sat_rteDv3_m=0x852943a0;
_Z20convert_int3_sat_rteDv3_s=0x852e2060;
_Z20convert_int3_sat_rteDv3_t=0x852e2080;
_Z20convert_int3_sat_rtnDv3_c=0x852e20a0;
_Z20convert_int3_sat_rtnDv3_d=0x851cc1c0;
_Z20convert_int3_sat_rtnDv3_f=0x852165a0;
_Z20convert_int3_sat_rtnDv3_h=0x852e20c0;
_Z20convert_int3_sat_rtnDv3_i=0x852e20e0;
_Z20convert_int3_sat_rtnDv3_j=0x852c8bc0;
_Z20convert_int3_sat_rtnDv3_l=0x8522cfa0;
_Z20convert_int3_sat_rtnDv3_m=0x85294420;
_Z20convert_int3_sat_rtnDv3_s=0x852e2100;
_Z20convert_int3_sat_rtnDv3_t=0x852e2120;
_Z20convert_int3_sat_rtpDv3_c=0x852e2140;
_Z20convert_int3_sat_rtpDv3_d=0x851cc340;
_Z20convert_int3_sat_rtpDv3_f=0x852166c0;
_Z20convert_int3_sat_rtpDv3_h=0x852e2160;
_Z20convert_int3_sat_rtpDv3_i=0x852e2180;
_Z20convert_int3_sat_rtpDv3_j=0x852c8c00;
_Z20convert_int3_sat_rtpDv3_l=0x8522d0a0;
_Z20convert_int3_sat_rtpDv3_m=0x852944a0;
_Z20convert_int3_sat_rtpDv3_s=0x852e21a0;
_Z20convert_int3_sat_rtpDv3_t=0x852e21c0;
_Z20convert_int3_sat_rtzDv3_c=0x852e21e0;
_Z20convert_int3_sat_rtzDv3_d=0x851cc4c0;
_Z20convert_int3_sat_rtzDv3_f=0x8522d1a0;
_Z20convert_int3_sat_rtzDv3_h=0x852e2200;
_Z20convert_int3_sat_rtzDv3_i=0x852e2220;
_Z20convert_int3_sat_rtzDv3_j=0x852c8c40;
_Z20convert_int3_sat_rtzDv3_l=0x8522d2a0;
_Z20convert_int3_sat_rtzDv3_m=0x85294520;
_Z20convert_int3_sat_rtzDv3_s=0x852e2240;
_Z20convert_int3_sat_rtzDv3_t=0x852e2260;
_Z20convert_int4_sat_rteDv4_c=0x852c8c80;
_Z20convert_int4_sat_rteDv4_d=0x85179da0;
_Z20convert_int4_sat_rteDv4_f=0x851cc640;
_Z20convert_int4_sat_rteDv4_h=0x852c8cc0;
_Z20convert_int4_sat_rteDv4_i=0x852e2280;
_Z20convert_int4_sat_rteDv4_j=0x852b0440;
_Z20convert_int4_sat_rteDv4_l=0x851e2400;
_Z20convert_int4_sat_rteDv4_m=0x8527a040;
_Z20convert_int4_sat_rteDv4_s=0x852e22a0;
_Z20convert_int4_sat_rteDv4_t=0x852e22c0;
_Z20convert_int4_sat_rtnDv4_c=0x852c8d00;
_Z20convert_int4_sat_rtnDv4_d=0x85179fa0;
_Z20convert_int4_sat_rtnDv4_f=0x851cc7c0;
_Z20convert_int4_sat_rtnDv4_h=0x852c8d40;
_Z20convert_int4_sat_rtnDv4_i=0x852e22e0;
_Z20convert_int4_sat_rtnDv4_j=0x852b04a0;
_Z20convert_int4_sat_rtnDv4_l=0x851e2560;
_Z20convert_int4_sat_rtnDv4_m=0x8527a0e0;
_Z20convert_int4_sat_rtnDv4_s=0x852e2300;
_Z20convert_int4_sat_rtnDv4_t=0x852e2320;
_Z20convert_int4_sat_rtpDv4_c=0x852c8d80;
_Z20convert_int4_sat_rtpDv4_d=0x8517a1a0;
_Z20convert_int4_sat_rtpDv4_f=0x851cc940;
_Z20convert_int4_sat_rtpDv4_h=0x852c8dc0;
_Z20convert_int4_sat_rtpDv4_i=0x852e2340;
_Z20convert_int4_sat_rtpDv4_j=0x852b0500;
_Z20convert_int4_sat_rtpDv4_l=0x851e26c0;
_Z20convert_int4_sat_rtpDv4_m=0x8527a180;
_Z20convert_int4_sat_rtpDv4_s=0x852e2360;
_Z20convert_int4_sat_rtpDv4_t=0x852e2380;
_Z20convert_int4_sat_rtzDv4_c=0x852c8e00;
_Z20convert_int4_sat_rtzDv4_d=0x851a08e0;
_Z20convert_int4_sat_rtzDv4_f=0x851e2820;
_Z20convert_int4_sat_rtzDv4_h=0x852c8e40;
_Z20convert_int4_sat_rtzDv4_i=0x852e23a0;
_Z20convert_int4_sat_rtzDv4_j=0x852b0560;
_Z20convert_int4_sat_rtzDv4_l=0x851e2980;
_Z20convert_int4_sat_rtzDv4_m=0x8527a220;
_Z20convert_int4_sat_rtzDv4_s=0x852e23c0;
_Z20convert_int4_sat_rtzDv4_t=0x852e23e0;
_Z20convert_int8_sat_rteDv8_c=0x852945a0;
_Z20convert_int8_sat_rteDv8_d=0x852167e0;
_Z20convert_int8_sat_rteDv8_f=0x85247960;
_Z20convert_int8_sat_rteDv8_h=0x85294620;
_Z20convert_int8_sat_rteDv8_i=0x852b05c0;
_Z20convert_int8_sat_rteDv8_j=0x85247a40;
_Z20convert_int8_sat_rteDv8_l=0x850f8e40;
_Z20convert_int8_sat_rteDv8_m=0x851e2ae0;
_Z20convert_int8_sat_rteDv8_s=0x852946a0;
_Z20convert_int8_sat_rteDv8_t=0x85294720;
_Z20convert_int8_sat_rtnDv8_c=0x852947a0;
_Z20convert_int8_sat_rtnDv8_d=0x85216900;
_Z20convert_int8_sat_rtnDv8_f=0x85247b20;
_Z20convert_int8_sat_rtnDv8_h=0x85294820;
_Z20convert_int8_sat_rtnDv8_i=0x852b0620;
_Z20convert_int8_sat_rtnDv8_j=0x85247c00;
_Z20convert_int8_sat_rtnDv8_l=0x850f91c0;
_Z20convert_int8_sat_rtnDv8_m=0x851e2c40;
_Z20convert_int8_sat_rtnDv8_s=0x852948a0;
_Z20convert_int8_sat_rtnDv8_t=0x85294920;
_Z20convert_int8_sat_rtpDv8_c=0x852949a0;
_Z20convert_int8_sat_rtpDv8_d=0x85216a20;
_Z20convert_int8_sat_rtpDv8_f=0x85247ce0;
_Z20convert_int8_sat_rtpDv8_h=0x85294a20;
_Z20convert_int8_sat_rtpDv8_i=0x852b0680;
_Z20convert_int8_sat_rtpDv8_j=0x85247dc0;
_Z20convert_int8_sat_rtpDv8_l=0x850f9540;
_Z20convert_int8_sat_rtpDv8_m=0x851e2da0;
_Z20convert_int8_sat_rtpDv8_s=0x85294aa0;
_Z20convert_int8_sat_rtpDv8_t=0x85294b20;
_Z20convert_int8_sat_rtzDv8_c=0x85294ba0;
_Z20convert_int8_sat_rtzDv8_d=0x85216b40;
_Z20convert_int8_sat_rtzDv8_f=0x85247ea0;
_Z20convert_int8_sat_rtzDv8_h=0x85294c20;
_Z20convert_int8_sat_rtzDv8_i=0x852b06e0;
_Z20convert_int8_sat_rtzDv8_j=0x85247f80;
_Z20convert_int8_sat_rtzDv8_l=0x850f98c0;
_Z20convert_int8_sat_rtzDv8_m=0x851e2f00;
_Z20convert_int8_sat_rtzDv8_s=0x85294ca0;
_Z20convert_int8_sat_rtzDv8_t=0x85294d20;
_Z20convert_long_sat_rtec=0x852e2400;
_Z20convert_long_sat_rted=0x8527a2c0;
_Z20convert_long_sat_rtef=0x8527a360;
_Z20convert_long_sat_rteh=0x852e2420;
_Z20convert_long_sat_rtei=0x852e2440;
_Z20convert_long_sat_rtej=0x852e2460;
_Z20convert_long_sat_rtel=0x852e2480;
_Z20convert_long_sat_rtem=0x852e24a0;
_Z20convert_long_sat_rtes=0x852e24c0;
_Z20convert_long_sat_rtet=0x852e24e0;
_Z20convert_long_sat_rtnc=0x852e2500;
_Z20convert_long_sat_rtnd=0x8527a400;
_Z20convert_long_sat_rtnf=0x8527a4a0;
_Z20convert_long_sat_rtnh=0x852e2520;
_Z20convert_long_sat_rtni=0x852e2540;
_Z20convert_long_sat_rtnj=0x852e2560;
_Z20convert_long_sat_rtnl=0x852e2580;
_Z20convert_long_sat_rtnm=0x852e25a0;
_Z20convert_long_sat_rtns=0x852e25c0;
_Z20convert_long_sat_rtnt=0x852e25e0;
_Z20convert_long_sat_rtpc=0x852e2600;
_Z20convert_long_sat_rtpd=0x8527a540;
_Z20convert_long_sat_rtpf=0x8527a5e0;
_Z20convert_long_sat_rtph=0x852e2620;
_Z20convert_long_sat_rtpi=0x852e2640;
_Z20convert_long_sat_rtpj=0x852e2660;
_Z20convert_long_sat_rtpl=0x852e2680;
_Z20convert_long_sat_rtpm=0x852e26a0;
_Z20convert_long_sat_rtps=0x852e26c0;
_Z20convert_long_sat_rtpt=0x852e26e0;
_Z20convert_long_sat_rtzc=0x852e2700;
_Z20convert_long_sat_rtzd=0x8527a680;
_Z20convert_long_sat_rtzf=0x8527a720;
_Z20convert_long_sat_rtzh=0x852e2720;
_Z20convert_long_sat_rtzi=0x852e2740;
_Z20convert_long_sat_rtzj=0x852e2760;
_Z20convert_long_sat_rtzl=0x852e2780;
_Z20convert_long_sat_rtzm=0x852e27a0;
_Z20convert_long_sat_rtzs=0x852e27c0;
_Z20convert_long_sat_rtzt=0x852e27e0;
_Z20convert_uint_sat_rtec=0x852e2800;
_Z20convert_uint_sat_rted=0x85294da0;
_Z20convert_uint_sat_rtef=0x852b0740;
_Z20convert_uint_sat_rteh=0x852e2820;
_Z20convert_uint_sat_rtei=0x852e2840;
_Z20convert_uint_sat_rtej=0x852e2860;
_Z20convert_uint_sat_rtel=0x852c8e80;
_Z20convert_uint_sat_rtem=0x852e2880;
_Z20convert_uint_sat_rtes=0x852e28a0;
_Z20convert_uint_sat_rtet=0x852e28c0;
_Z20convert_uint_sat_rtnc=0x852e28e0;
_Z20convert_uint_sat_rtnd=0x85294e20;
_Z20convert_uint_sat_rtnf=0x852b07a0;
_Z20convert_uint_sat_rtnh=0x852e2900;
_Z20convert_uint_sat_rtni=0x852e2920;
_Z20convert_uint_sat_rtnj=0x852e2940;
_Z20convert_uint_sat_rtnl=0x852c8ec0;
_Z20convert_uint_sat_rtnm=0x852e2960;
_Z20convert_uint_sat_rtns=0x852e2980;
_Z20convert_uint_sat_rtnt=0x852e29a0;
_Z20convert_uint_sat_rtpc=0x852e29c0;
_Z20convert_uint_sat_rtpd=0x85294ea0;
_Z20convert_uint_sat_rtpf=0x852b0800;
_Z20convert_uint_sat_rtph=0x852e29e0;
_Z20convert_uint_sat_rtpi=0x852e2a00;
_Z20convert_uint_sat_rtpj=0x852e2a20;
_Z20convert_uint_sat_rtpl=0x852c8f00;
_Z20convert_uint_sat_rtpm=0x852e2a40;
_Z20convert_uint_sat_rtps=0x852e2a60;
_Z20convert_uint_sat_rtpt=0x852e2a80;
_Z20convert_uint_sat_rtzc=0x852e2aa0;
_Z20convert_uint_sat_rtzd=0x852b0860;
_Z20convert_uint_sat_rtzf=0x852b08c0;
_Z20convert_uint_sat_rtzh=0x852e2ac0;
_Z20convert_uint_sat_rtzi=0x852e2ae0;
_Z20convert_uint_sat_rtzj=0x852e2b00;
_Z20convert_uint_sat_rtzl=0x852c8f40;
_Z20convert_uint_sat_rtzm=0x852e2b20;
_Z20convert_uint_sat_rtzs=0x852e2b40;
_Z20convert_uint_sat_rtzt=0x852e2b60;
_Z20convert_ushort16_rteDv16_c=0x85248060;
_Z20convert_ushort16_rteDv16_d=0x850f9c40;
_Z20convert_ushort16_rteDv16_f=0x8510c300;
_Z20convert_ushort16_rteDv16_h=0x85248140;
_Z20convert_ushort16_rteDv16_i=0x85294f20;
_Z20convert_ushort16_rteDv16_j=0x85294fa0;
_Z20convert_ushort16_rteDv16_l=0x85263440;
_Z20convert_ushort16_rteDv16_m=0x85263500;
_Z20convert_ushort16_rteDv16_s=0x85295020;
_Z20convert_ushort16_rteDv16_t=0x852b0920;
_Z20convert_ushort16_rtnDv16_c=0x85248220;
_Z20convert_ushort16_rtnDv16_d=0x850f9fc0;
_Z20convert_ushort16_rtnDv16_f=0x8510c640;
_Z20convert_ushort16_rtnDv16_h=0x85248300;
_Z20convert_ushort16_rtnDv16_i=0x852950a0;
_Z20convert_ushort16_rtnDv16_j=0x85295120;
_Z20convert_ushort16_rtnDv16_l=0x852635c0;
_Z20convert_ushort16_rtnDv16_m=0x85263680;
_Z20convert_ushort16_rtnDv16_s=0x852951a0;
_Z20convert_ushort16_rtnDv16_t=0x852b0980;
_Z20convert_ushort16_rtpDv16_c=0x852483e0;
_Z20convert_ushort16_rtpDv16_d=0x850fa340;
_Z20convert_ushort16_rtpDv16_f=0x8510c980;
_Z20convert_ushort16_rtpDv16_h=0x852484c0;
_Z20convert_ushort16_rtpDv16_i=0x85295220;
_Z20convert_ushort16_rtpDv16_j=0x852952a0;
_Z20convert_ushort16_rtpDv16_l=0x85263740;
_Z20convert_ushort16_rtpDv16_m=0x85263800;
_Z20convert_ushort16_rtpDv16_s=0x85295320;
_Z20convert_ushort16_rtpDv16_t=0x852b09e0;
_Z20convert_ushort16_rtzDv16_c=0x852485a0;
_Z20convert_ushort16_rtzDv16_d=0x8518aa60;
_Z20convert_ushort16_rtzDv16_f=0x8516efe0;
_Z20convert_ushort16_rtzDv16_h=0x85248680;
_Z20convert_ushort16_rtzDv16_i=0x852953a0;
_Z20convert_ushort16_rtzDv16_j=0x85295420;
_Z20convert_ushort16_rtzDv16_l=0x852638c0;
_Z20convert_ushort16_rtzDv16_m=0x85263980;
_Z20convert_ushort16_rtzDv16_s=0x852954a0;
_Z20convert_ushort16_rtzDv16_t=0x852b0a40;
_Z20convert_ushort16_satDv16_c=0x851b54e0;
_Z20convert_ushort16_satDv16_d=0x850815c0;
_Z20convert_ushort16_satDv16_f=0x8508c240;
_Z20convert_ushort16_satDv16_h=0x85248760;
_Z20convert_ushort16_satDv16_i=0x85145200;
_Z20convert_ushort16_satDv16_j=0x851ccac0;
_Z20convert_ushort16_satDv16_l=0x850b91c0;
_Z20convert_ushort16_satDv16_m=0x8511b620;
_Z20convert_ushort16_satDv16_s=0x851ccc40;
_Z20convert_ushort16_satDv16_t=0x852b0aa0;
_Z21async_work_group_copyPU7CLlocalcPKU8CLglobalcjP11__ocl_event=0x852e31e0;
_Z21async_work_group_copyPU7CLlocaldPKU8CLglobaldjP11__ocl_event=0x852e3200;
_Z21async_work_group_copyPU7CLlocalDv16_cPKU8CLglobalS_jP11__ocl_event=0x852e2ba0;
_Z21async_work_group_copyPU7CLlocalDv16_dPKU8CLglobalS_jP11__ocl_event=0x852e2bc0;
_Z21async_work_group_copyPU7CLlocalDv16_fPKU8CLglobalS_jP11__ocl_event=0x852e2be0;
_Z21async_work_group_copyPU7CLlocalDv16_hPKU8CLglobalS_jP11__ocl_event=0x852e2c00;
_Z21async_work_group_copyPU7CLlocalDv16_iPKU8CLglobalS_jP11__ocl_event=0x852e2c20;
_Z21async_work_group_copyPU7CLlocalDv16_jPKU8CLglobalS_jP11__ocl_event=0x852e2c40;
_Z21async_work_group_copyPU7CLlocalDv16_lPKU8CLglobalS_jP11__ocl_event=0x852e2c60;
_Z21async_work_group_copyPU7CLlocalDv16_mPKU8CLglobalS_jP11__ocl_event=0x852e2c80;
_Z21async_work_group_copyPU7CLlocalDv16_sPKU8CLglobalS_jP11__ocl_event=0x852e2ca0;
_Z21async_work_group_copyPU7CLlocalDv16_tPKU8CLglobalS_jP11__ocl_event=0x852e2cc0;
_Z21async_work_group_copyPU7CLlocalDv2_cPKU8CLglobalS_jP11__ocl_event=0x852e2ce0;
_Z21async_work_group_copyPU7CLlocalDv2_dPKU8CLglobalS_jP11__ocl_event=0x852e2d00;
_Z21async_work_group_copyPU7CLlocalDv2_fPKU8CLglobalS_jP11__ocl_event=0x852e2d20;
_Z21async_work_group_copyPU7CLlocalDv2_hPKU8CLglobalS_jP11__ocl_event=0x852e2d40;
_Z21async_work_group_copyPU7CLlocalDv2_iPKU8CLglobalS_jP11__ocl_event=0x852e2d60;
_Z21async_work_group_copyPU7CLlocalDv2_jPKU8CLglobalS_jP11__ocl_event=0x852e2d80;
_Z21async_work_group_copyPU7CLlocalDv2_lPKU8CLglobalS_jP11__ocl_event=0x852e2da0;
_Z21async_work_group_copyPU7CLlocalDv2_mPKU8CLglobalS_jP11__ocl_event=0x852e2dc0;
_Z21async_work_group_copyPU7CLlocalDv2_sPKU8CLglobalS_jP11__ocl_event=0x852e2de0;
_Z21async_work_group_copyPU7CLlocalDv2_tPKU8CLglobalS_jP11__ocl_event=0x852e2e00;
_Z21async_work_group_copyPU7CLlocalDv3_cPKU8CLglobalS_jP11__ocl_event=0x852e2e20;
_Z21async_work_group_copyPU7CLlocalDv3_dPKU8CLglobalS_jP11__ocl_event=0x852e2e40;
_Z21async_work_group_copyPU7CLlocalDv3_fPKU8CLglobalS_jP11__ocl_event=0x852e2e60;
_Z21async_work_group_copyPU7CLlocalDv3_hPKU8CLglobalS_jP11__ocl_event=0x852e2e80;
_Z21async_work_group_copyPU7CLlocalDv3_iPKU8CLglobalS_jP11__ocl_event=0x852e2ea0;
_Z21async_work_group_copyPU7CLlocalDv3_jPKU8CLglobalS_jP11__ocl_event=0x852e2ec0;
_Z21async_work_group_copyPU7CLlocalDv3_lPKU8CLglobalS_jP11__ocl_event=0x852e2ee0;
_Z21async_work_group_copyPU7CLlocalDv3_mPKU8CLglobalS_jP11__ocl_event=0x852e2f00;
_Z21async_work_group_copyPU7CLlocalDv3_sPKU8CLglobalS_jP11__ocl_event=0x852e2f20;
_Z21async_work_group_copyPU7CLlocalDv3_tPKU8CLglobalS_jP11__ocl_event=0x852e2f40;
_Z21async_work_group_copyPU7CLlocalDv4_cPKU8CLglobalS_jP11__ocl_event=0x852e2f60;
_Z21async_work_group_copyPU7CLlocalDv4_dPKU8CLglobalS_jP11__ocl_event=0x852e2f80;
_Z21async_work_group_copyPU7CLlocalDv4_fPKU8CLglobalS_jP11__ocl_event=0x852e2fa0;
_Z21async_work_group_copyPU7CLlocalDv4_hPKU8CLglobalS_jP11__ocl_event=0x852e2fc0;
_Z21async_work_group_copyPU7CLlocalDv4_iPKU8CLglobalS_jP11__ocl_event=0x852e2fe0;
_Z21async_work_group_copyPU7CLlocalDv4_jPKU8CLglobalS_jP11__ocl_event=0x852e3000;
_Z21async_work_group_copyPU7CLlocalDv4_lPKU8CLglobalS_jP11__ocl_event=0x852e3020;
_Z21async_work_group_copyPU7CLlocalDv4_mPKU8CLglobalS_jP11__ocl_event=0x852e3040;
_Z21async_work_group_copyPU7CLlocalDv4_sPKU8CLglobalS_jP11__ocl_event=0x852e3060;
_Z21async_work_group_copyPU7CLlocalDv4_tPKU8CLglobalS_jP11__ocl_event=0x852e3080;
_Z21async_work_group_copyPU7CLlocalDv8_cPKU8CLglobalS_jP11__ocl_event=0x852e30a0;
_Z21async_work_group_copyPU7CLlocalDv8_dPKU8CLglobalS_jP11__ocl_event=0x852e30c0;
_Z21async_work_group_copyPU7CLlocalDv8_fPKU8CLglobalS_jP11__ocl_event=0x852e30e0;
_Z21async_work_group_copyPU7CLlocalDv8_hPKU8CLglobalS_jP11__ocl_event=0x852e3100;
_Z21async_work_group_copyPU7CLlocalDv8_iPKU8CLglobalS_jP11__ocl_event=0x852e3120;
_Z21async_work_group_copyPU7CLlocalDv8_jPKU8CLglobalS_jP11__ocl_event=0x852e3140;
_Z21async_work_group_copyPU7CLlocalDv8_lPKU8CLglobalS_jP11__ocl_event=0x852e3160;
_Z21async_work_group_copyPU7CLlocalDv8_mPKU8CLglobalS_jP11__ocl_event=0x852e3180;
_Z21async_work_group_copyPU7CLlocalDv8_sPKU8CLglobalS_jP11__ocl_event=0x852e31a0;
_Z21async_work_group_copyPU7CLlocalDv8_tPKU8CLglobalS_jP11__ocl_event=0x852e31c0;
_Z21async_work_group_copyPU7CLlocalfPKU8CLglobalfjP11__ocl_event=0x852e3220;
_Z21async_work_group_copyPU7CLlocalhPKU8CLglobalhjP11__ocl_event=0x852e3240;
_Z21async_work_group_copyPU7CLlocaliPKU8CLglobalijP11__ocl_event=0x852e3260;
_Z21async_work_group_copyPU7CLlocaljPKU8CLglobaljjP11__ocl_event=0x852e3280;
_Z21async_work_group_copyPU7CLlocallPKU8CLgloballjP11__ocl_event=0x852e32a0;
_Z21async_work_group_copyPU7CLlocalmPKU8CLglobalmjP11__ocl_event=0x852e32c0;
_Z21async_work_group_copyPU7CLlocalsPKU8CLglobalsjP11__ocl_event=0x852e32e0;
_Z21async_work_group_copyPU7CLlocaltPKU8CLglobaltjP11__ocl_event=0x852e3300;
_Z21async_work_group_copyPU8CLglobalcPKU7CLlocalcjP11__ocl_event=0x852e3fa0;
_Z21async_work_group_copyPU8CLglobalcPKU8CLglobalcjP11__ocl_event=0x852e3fc0;
_Z21async_work_group_copyPU8CLglobaldPKU7CLlocaldjP11__ocl_event=0x852e3fe0;
_Z21async_work_group_copyPU8CLglobaldPKU8CLglobaldjP11__ocl_event=0x852e4000;
_Z21async_work_group_copyPU8CLglobalDv16_cPKU7CLlocalS_jP11__ocl_event=0x852e3320;
_Z21async_work_group_copyPU8CLglobalDv16_cPKU8CLglobalS_jP11__ocl_event=0x852e3340;
_Z21async_work_group_copyPU8CLglobalDv16_dPKU7CLlocalS_jP11__ocl_event=0x852e3360;
_Z21async_work_group_copyPU8CLglobalDv16_dPKU8CLglobalS_jP11__ocl_event=0x852e3380;
_Z21async_work_group_copyPU8CLglobalDv16_fPKU7CLlocalS_jP11__ocl_event=0x852e33a0;
_Z21async_work_group_copyPU8CLglobalDv16_fPKU8CLglobalS_jP11__ocl_event=0x852e33c0;
_Z21async_work_group_copyPU8CLglobalDv16_hPKU7CLlocalS_jP11__ocl_event=0x852e33e0;
_Z21async_work_group_copyPU8CLglobalDv16_hPKU8CLglobalS_jP11__ocl_event=0x852e3400;
_Z21async_work_group_copyPU8CLglobalDv16_iPKU7CLlocalS_jP11__ocl_event=0x852e3420;
_Z21async_work_group_copyPU8CLglobalDv16_iPKU8CLglobalS_jP11__ocl_event=0x852e3440;
_Z21async_work_group_copyPU8CLglobalDv16_jPKU7CLlocalS_jP11__ocl_event=0x852e3460;
_Z21async_work_group_copyPU8CLglobalDv16_jPKU8CLglobalS_jP11__ocl_event=0x852e3480;
_Z21async_work_group_copyPU8CLglobalDv16_lPKU7CLlocalS_jP11__ocl_event=0x852e34a0;
_Z21async_work_group_copyPU8CLglobalDv16_lPKU8CLglobalS_jP11__ocl_event=0x852e34c0;
_Z21async_work_group_copyPU8CLglobalDv16_mPKU7CLlocalS_jP11__ocl_event=0x852e34e0;
_Z21async_work_group_copyPU8CLglobalDv16_mPKU8CLglobalS_jP11__ocl_event=0x852e3500;
_Z21async_work_group_copyPU8CLglobalDv16_sPKU7CLlocalS_jP11__ocl_event=0x852e3520;
_Z21async_work_group_copyPU8CLglobalDv16_sPKU8CLglobalS_jP11__ocl_event=0x852e3540;
_Z21async_work_group_copyPU8CLglobalDv16_tPKU7CLlocalS_jP11__ocl_event=0x852e3560;
_Z21async_work_group_copyPU8CLglobalDv16_tPKU8CLglobalS_jP11__ocl_event=0x852e3580;
_Z21async_work_group_copyPU8CLglobalDv2_cPKU7CLlocalS_jP11__ocl_event=0x852e35a0;
_Z21async_work_group_copyPU8CLglobalDv2_cPKU8CLglobalS_jP11__ocl_event=0x852e35c0;
_Z21async_work_group_copyPU8CLglobalDv2_dPKU7CLlocalS_jP11__ocl_event=0x852e35e0;
_Z21async_work_group_copyPU8CLglobalDv2_dPKU8CLglobalS_jP11__ocl_event=0x852e3600;
_Z21async_work_group_copyPU8CLglobalDv2_fPKU7CLlocalS_jP11__ocl_event=0x852e3620;
_Z21async_work_group_copyPU8CLglobalDv2_fPKU8CLglobalS_jP11__ocl_event=0x852e3640;
_Z21async_work_group_copyPU8CLglobalDv2_hPKU7CLlocalS_jP11__ocl_event=0x852e3660;
_Z21async_work_group_copyPU8CLglobalDv2_hPKU8CLglobalS_jP11__ocl_event=0x852e3680;
_Z21async_work_group_copyPU8CLglobalDv2_iPKU7CLlocalS_jP11__ocl_event=0x852e36a0;
_Z21async_work_group_copyPU8CLglobalDv2_iPKU8CLglobalS_jP11__ocl_event=0x852e36c0;
_Z21async_work_group_copyPU8CLglobalDv2_jPKU7CLlocalS_jP11__ocl_event=0x852e36e0;
_Z21async_work_group_copyPU8CLglobalDv2_jPKU8CLglobalS_jP11__ocl_event=0x852e3700;
_Z21async_work_group_copyPU8CLglobalDv2_lPKU7CLlocalS_jP11__ocl_event=0x852e3720;
_Z21async_work_group_copyPU8CLglobalDv2_lPKU8CLglobalS_jP11__ocl_event=0x852e3740;
_Z21async_work_group_copyPU8CLglobalDv2_mPKU7CLlocalS_jP11__ocl_event=0x852e3760;
_Z21async_work_group_copyPU8CLglobalDv2_mPKU8CLglobalS_jP11__ocl_event=0x852e3780;
_Z21async_work_group_copyPU8CLglobalDv2_sPKU7CLlocalS_jP11__ocl_event=0x852e37a0;
_Z21async_work_group_copyPU8CLglobalDv2_sPKU8CLglobalS_jP11__ocl_event=0x852e37c0;
_Z21async_work_group_copyPU8CLglobalDv2_tPKU7CLlocalS_jP11__ocl_event=0x852e37e0;
_Z21async_work_group_copyPU8CLglobalDv2_tPKU8CLglobalS_jP11__ocl_event=0x852e3800;
_Z21async_work_group_copyPU8CLglobalDv3_cPKU7CLlocalS_jP11__ocl_event=0x852e3820;
_Z21async_work_group_copyPU8CLglobalDv3_cPKU8CLglobalS_jP11__ocl_event=0x852e3840;
_Z21async_work_group_copyPU8CLglobalDv3_dPKU7CLlocalS_jP11__ocl_event=0x852e3860;
_Z21async_work_group_copyPU8CLglobalDv3_dPKU8CLglobalS_jP11__ocl_event=0x852e3880;
_Z21async_work_group_copyPU8CLglobalDv3_fPKU7CLlocalS_jP11__ocl_event=0x852e38a0;
_Z21async_work_group_copyPU8CLglobalDv3_fPKU8CLglobalS_jP11__ocl_event=0x852e38c0;
_Z21async_work_group_copyPU8CLglobalDv3_hPKU7CLlocalS_jP11__ocl_event=0x852e38e0;
_Z21async_work_group_copyPU8CLglobalDv3_hPKU8CLglobalS_jP11__ocl_event=0x852e3900;
_Z21async_work_group_copyPU8CLglobalDv3_iPKU7CLlocalS_jP11__ocl_event=0x852e3920;
_Z21async_work_group_copyPU8CLglobalDv3_iPKU8CLglobalS_jP11__ocl_event=0x852e3940;
_Z21async_work_group_copyPU8CLglobalDv3_jPKU7CLlocalS_jP11__ocl_event=0x852e3960;
_Z21async_work_group_copyPU8CLglobalDv3_jPKU8CLglobalS_jP11__ocl_event=0x852e3980;
_Z21async_work_group_copyPU8CLglobalDv3_lPKU7CLlocalS_jP11__ocl_event=0x852e39a0;
_Z21async_work_group_copyPU8CLglobalDv3_lPKU8CLglobalS_jP11__ocl_event=0x852e39c0;
_Z21async_work_group_copyPU8CLglobalDv3_mPKU7CLlocalS_jP11__ocl_event=0x852e39e0;
_Z21async_work_group_copyPU8CLglobalDv3_mPKU8CLglobalS_jP11__ocl_event=0x852e3a00;
_Z21async_work_group_copyPU8CLglobalDv3_sPKU7CLlocalS_jP11__ocl_event=0x852e3a20;
_Z21async_work_group_copyPU8CLglobalDv3_sPKU8CLglobalS_jP11__ocl_event=0x852e3a40;
_Z21async_work_group_copyPU8CLglobalDv3_tPKU7CLlocalS_jP11__ocl_event=0x852e3a60;
_Z21async_work_group_copyPU8CLglobalDv3_tPKU8CLglobalS_jP11__ocl_event=0x852e3a80;
_Z21async_work_group_copyPU8CLglobalDv4_cPKU7CLlocalS_jP11__ocl_event=0x852e3aa0;
_Z21async_work_group_copyPU8CLglobalDv4_cPKU8CLglobalS_jP11__ocl_event=0x852e3ac0;
_Z21async_work_group_copyPU8CLglobalDv4_dPKU7CLlocalS_jP11__ocl_event=0x852e3ae0;
_Z21async_work_group_copyPU8CLglobalDv4_dPKU8CLglobalS_jP11__ocl_event=0x852e3b00;
_Z21async_work_group_copyPU8CLglobalDv4_fPKU7CLlocalS_jP11__ocl_event=0x852e3b20;
_Z21async_work_group_copyPU8CLglobalDv4_fPKU8CLglobalS_jP11__ocl_event=0x852e3b40;
_Z21async_work_group_copyPU8CLglobalDv4_hPKU7CLlocalS_jP11__ocl_event=0x852e3b60;
_Z21async_work_group_copyPU8CLglobalDv4_hPKU8CLglobalS_jP11__ocl_event=0x852e3b80;
_Z21async_work_group_copyPU8CLglobalDv4_iPKU7CLlocalS_jP11__ocl_event=0x852e3ba0;
_Z21async_work_group_copyPU8CLglobalDv4_iPKU8CLglobalS_jP11__ocl_event=0x852e3bc0;
_Z21async_work_group_copyPU8CLglobalDv4_jPKU7CLlocalS_jP11__ocl_event=0x852e3be0;
_Z21async_work_group_copyPU8CLglobalDv4_jPKU8CLglobalS_jP11__ocl_event=0x852e3c00;
_Z21async_work_group_copyPU8CLglobalDv4_lPKU7CLlocalS_jP11__ocl_event=0x852e3c20;
_Z21async_work_group_copyPU8CLglobalDv4_lPKU8CLglobalS_jP11__ocl_event=0x852e3c40;
_Z21async_work_group_copyPU8CLglobalDv4_mPKU7CLlocalS_jP11__ocl_event=0x852e3c60;
_Z21async_work_group_copyPU8CLglobalDv4_mPKU8CLglobalS_jP11__ocl_event=0x852e3c80;
_Z21async_work_group_copyPU8CLglobalDv4_sPKU7CLlocalS_jP11__ocl_event=0x852e3ca0;
_Z21async_work_group_copyPU8CLglobalDv4_sPKU8CLglobalS_jP11__ocl_event=0x852e3cc0;
_Z21async_work_group_copyPU8CLglobalDv4_tPKU7CLlocalS_jP11__ocl_event=0x852e3ce0;
_Z21async_work_group_copyPU8CLglobalDv4_tPKU8CLglobalS_jP11__ocl_event=0x852e3d00;
_Z21async_work_group_copyPU8CLglobalDv8_cPKU7CLlocalS_jP11__ocl_event=0x852e3d20;
_Z21async_work_group_copyPU8CLglobalDv8_cPKU8CLglobalS_jP11__ocl_event=0x852e3d40;
_Z21async_work_group_copyPU8CLglobalDv8_dPKU7CLlocalS_jP11__ocl_event=0x852e3d60;
_Z21async_work_group_copyPU8CLglobalDv8_dPKU8CLglobalS_jP11__ocl_event=0x852e3d80;
_Z21async_work_group_copyPU8CLglobalDv8_fPKU7CLlocalS_jP11__ocl_event=0x852e3da0;
_Z21async_work_group_copyPU8CLglobalDv8_fPKU8CLglobalS_jP11__ocl_event=0x852e3dc0;
_Z21async_work_group_copyPU8CLglobalDv8_hPKU7CLlocalS_jP11__ocl_event=0x852e3de0;
_Z21async_work_group_copyPU8CLglobalDv8_hPKU8CLglobalS_jP11__ocl_event=0x852e3e00;
_Z21async_work_group_copyPU8CLglobalDv8_iPKU7CLlocalS_jP11__ocl_event=0x852e3e20;
_Z21async_work_group_copyPU8CLglobalDv8_iPKU8CLglobalS_jP11__ocl_event=0x852e3e40;
_Z21async_work_group_copyPU8CLglobalDv8_jPKU7CLlocalS_jP11__ocl_event=0x852e3e60;
_Z21async_work_group_copyPU8CLglobalDv8_jPKU8CLglobalS_jP11__ocl_event=0x852e3e80;
_Z21async_work_group_copyPU8CLglobalDv8_lPKU7CLlocalS_jP11__ocl_event=0x852e3ea0;
_Z21async_work_group_copyPU8CLglobalDv8_lPKU8CLglobalS_jP11__ocl_event=0x852e3ec0;
_Z21async_work_group_copyPU8CLglobalDv8_mPKU7CLlocalS_jP11__ocl_event=0x852e3ee0;
_Z21async_work_group_copyPU8CLglobalDv8_mPKU8CLglobalS_jP11__ocl_event=0x852e3f00;
_Z21async_work_group_copyPU8CLglobalDv8_sPKU7CLlocalS_jP11__ocl_event=0x852e3f20;
_Z21async_work_group_copyPU8CLglobalDv8_sPKU8CLglobalS_jP11__ocl_event=0x852e3f40;
_Z21async_work_group_copyPU8CLglobalDv8_tPKU7CLlocalS_jP11__ocl_event=0x852e3f60;
_Z21async_work_group_copyPU8CLglobalDv8_tPKU8CLglobalS_jP11__ocl_event=0x852e3f80;
_Z21async_work_group_copyPU8CLglobalfPKU7CLlocalfjP11__ocl_event=0x852e4020;
_Z21async_work_group_copyPU8CLglobalfPKU8CLglobalfjP11__ocl_event=0x852e4040;
_Z21async_work_group_copyPU8CLglobalhPKU7CLlocalhjP11__ocl_event=0x852e4060;
_Z21async_work_group_copyPU8CLglobalhPKU8CLglobalhjP11__ocl_event=0x852e4080;
_Z21async_work_group_copyPU8CLglobaliPKU7CLlocalijP11__ocl_event=0x852e40a0;
_Z21async_work_group_copyPU8CLglobaliPKU8CLglobalijP11__ocl_event=0x852e40c0;
_Z21async_work_group_copyPU8CLglobaljPKU7CLlocaljjP11__ocl_event=0x852e40e0;
_Z21async_work_group_copyPU8CLglobaljPKU8CLglobaljjP11__ocl_event=0x852e4100;
_Z21async_work_group_copyPU8CLgloballPKU7CLlocalljP11__ocl_event=0x852e4120;
_Z21async_work_group_copyPU8CLgloballPKU8CLgloballjP11__ocl_event=0x852e4140;
_Z21async_work_group_copyPU8CLglobalmPKU7CLlocalmjP11__ocl_event=0x852e4160;
_Z21async_work_group_copyPU8CLglobalmPKU8CLglobalmjP11__ocl_event=0x852e4180;
_Z21async_work_group_copyPU8CLglobalsPKU7CLlocalsjP11__ocl_event=0x852e41a0;
_Z21async_work_group_copyPU8CLglobalsPKU8CLglobalsjP11__ocl_event=0x852e41c0;
_Z21async_work_group_copyPU8CLglobaltPKU7CLlocaltjP11__ocl_event=0x852e41e0;
_Z21async_work_group_copyPU8CLglobaltPKU8CLglobaltjP11__ocl_event=0x852e4200;
_Z21convert_char2_sat_rteDv2_c=0x852e4220;
_Z21convert_char2_sat_rteDv2_d=0x85248840;
_Z21convert_char2_sat_rteDv2_f=0x85248920;
_Z21convert_char2_sat_rteDv2_h=0x852c8f80;
_Z21convert_char2_sat_rteDv2_i=0x852c8fc0;
_Z21convert_char2_sat_rteDv2_j=0x852e4240;
_Z21convert_char2_sat_rteDv2_l=0x85295520;
_Z21convert_char2_sat_rteDv2_m=0x852c9000;
_Z21convert_char2_sat_rteDv2_s=0x852c9040;
_Z21convert_char2_sat_rteDv2_t=0x852c9080;
_Z21convert_char2_sat_rtnDv2_c=0x852e4260;
_Z21convert_char2_sat_rtnDv2_d=0x85248a00;
_Z21convert_char2_sat_rtnDv2_f=0x85248ae0;
_Z21convert_char2_sat_rtnDv2_h=0x852c90c0;
_Z21convert_char2_sat_rtnDv2_i=0x852c9100;
_Z21convert_char2_sat_rtnDv2_j=0x852e4280;
_Z21convert_char2_sat_rtnDv2_l=0x852955a0;
_Z21convert_char2_sat_rtnDv2_m=0x852c9140;
_Z21convert_char2_sat_rtnDv2_s=0x852c9180;
_Z21convert_char2_sat_rtnDv2_t=0x852c91c0;
_Z21convert_char2_sat_rtpDv2_c=0x852e42a0;
_Z21convert_char2_sat_rtpDv2_d=0x85248bc0;
_Z21convert_char2_sat_rtpDv2_f=0x85248ca0;
_Z21convert_char2_sat_rtpDv2_h=0x852c9200;
_Z21convert_char2_sat_rtpDv2_i=0x852c9240;
_Z21convert_char2_sat_rtpDv2_j=0x852e42c0;
_Z21convert_char2_sat_rtpDv2_l=0x85295620;
_Z21convert_char2_sat_rtpDv2_m=0x852c9280;
_Z21convert_char2_sat_rtpDv2_s=0x852c92c0;
_Z21convert_char2_sat_rtpDv2_t=0x852c9300;
_Z21convert_char2_sat_rtzDv2_c=0x852e42e0;
_Z21convert_char2_sat_rtzDv2_d=0x85248d80;
_Z21convert_char2_sat_rtzDv2_f=0x85263a40;
_Z21convert_char2_sat_rtzDv2_h=0x852c9340;
_Z21convert_char2_sat_rtzDv2_i=0x852c9380;
_Z21convert_char2_sat_rtzDv2_j=0x852e4300;
_Z21convert_char2_sat_rtzDv2_l=0x852956a0;
_Z21convert_char2_sat_rtzDv2_m=0x852c93c0;
_Z21convert_char2_sat_rtzDv2_s=0x852c9400;
_Z21convert_char2_sat_rtzDv2_t=0x852c9440;
_Z21convert_char3_sat_rteDv3_c=0x852e4320;
_Z21convert_char3_sat_rteDv3_d=0x851e3060;
_Z21convert_char3_sat_rteDv3_f=0x85216c60;
_Z21convert_char3_sat_rteDv3_h=0x852c9480;
_Z21convert_char3_sat_rteDv3_i=0x852b0b00;
_Z21convert_char3_sat_rteDv3_j=0x852c94c0;
_Z21convert_char3_sat_rteDv3_l=0x8522d3a0;
_Z21convert_char3_sat_rteDv3_m=0x8527a7c0;
_Z21convert_char3_sat_rteDv3_s=0x852b0b60;
_Z21convert_char3_sat_rteDv3_t=0x852b0bc0;
_Z21convert_char3_sat_rtnDv3_c=0x852e4340;
_Z21convert_char3_sat_rtnDv3_d=0x851e31c0;
_Z21convert_char3_sat_rtnDv3_f=0x85216d80;
_Z21convert_char3_sat_rtnDv3_h=0x852c9500;
_Z21convert_char3_sat_rtnDv3_i=0x852b0c20;
_Z21convert_char3_sat_rtnDv3_j=0x852c9540;
_Z21convert_char3_sat_rtnDv3_l=0x8522d4a0;
_Z21convert_char3_sat_rtnDv3_m=0x8527a860;
_Z21convert_char3_sat_rtnDv3_s=0x852b0c80;
_Z21convert_char3_sat_rtnDv3_t=0x852b0ce0;
_Z21convert_char3_sat_rtpDv3_c=0x852e4360;
_Z21convert_char3_sat_rtpDv3_d=0x851e3320;
_Z21convert_char3_sat_rtpDv3_f=0x85216ea0;
_Z21convert_char3_sat_rtpDv3_h=0x852c9580;
_Z21convert_char3_sat_rtpDv3_i=0x852b0d40;
_Z21convert_char3_sat_rtpDv3_j=0x852c95c0;
_Z21convert_char3_sat_rtpDv3_l=0x8522d5a0;
_Z21convert_char3_sat_rtpDv3_m=0x8527a900;
_Z21convert_char3_sat_rtpDv3_s=0x852b0da0;
_Z21convert_char3_sat_rtpDv3_t=0x852b0e00;
_Z21convert_char3_sat_rtzDv3_c=0x852e4380;
_Z21convert_char3_sat_rtzDv3_d=0x851ccdc0;
_Z21convert_char3_sat_rtzDv3_f=0x8522d6a0;
_Z21convert_char3_sat_rtzDv3_h=0x852c9600;
_Z21convert_char3_sat_rtzDv3_i=0x852b0e60;
_Z21convert_char3_sat_rtzDv3_j=0x852c9640;
_Z21convert_char3_sat_rtzDv3_l=0x8522d7a0;
_Z21convert_char3_sat_rtzDv3_m=0x8527a9a0;
_Z21convert_char3_sat_rtzDv3_s=0x852b0ec0;
_Z21convert_char3_sat_rtzDv3_t=0x852b0f20;
_Z21convert_char4_sat_rteDv4_c=0x852e43a0;
_Z21convert_char4_sat_rteDv4_d=0x851a0aa0;
_Z21convert_char4_sat_rteDv4_f=0x851e3480;
_Z21convert_char4_sat_rteDv4_h=0x852b0f80;
_Z21convert_char4_sat_rteDv4_i=0x8527aa40;
_Z21convert_char4_sat_rteDv4_j=0x852b0fe0;
_Z21convert_char4_sat_rteDv4_l=0x851ccf40;
_Z21convert_char4_sat_rteDv4_m=0x85263b00;
_Z21convert_char4_sat_rteDv4_s=0x8527aae0;
_Z21convert_char4_sat_rteDv4_t=0x852b1040;
_Z21convert_char4_sat_rtnDv4_c=0x852e43c0;
_Z21convert_char4_sat_rtnDv4_d=0x851a0c60;
_Z21convert_char4_sat_rtnDv4_f=0x851e35e0;
_Z21convert_char4_sat_rtnDv4_h=0x852b10a0;
_Z21convert_char4_sat_rtnDv4_i=0x8527ab80;
_Z21convert_char4_sat_rtnDv4_j=0x852b1100;
_Z21convert_char4_sat_rtnDv4_l=0x851cd0c0;
_Z21convert_char4_sat_rtnDv4_m=0x85263bc0;
_Z21convert_char4_sat_rtnDv4_s=0x8527ac20;
_Z21convert_char4_sat_rtnDv4_t=0x852b1160;
_Z21convert_char4_sat_rtpDv4_c=0x852e43e0;
_Z21convert_char4_sat_rtpDv4_d=0x851a0e20;
_Z21convert_char4_sat_rtpDv4_f=0x851e3740;
_Z21convert_char4_sat_rtpDv4_h=0x852b11c0;
_Z21convert_char4_sat_rtpDv4_i=0x8527acc0;
_Z21convert_char4_sat_rtpDv4_j=0x852b1220;
_Z21convert_char4_sat_rtpDv4_l=0x851cd240;
_Z21convert_char4_sat_rtpDv4_m=0x85263c80;
_Z21convert_char4_sat_rtpDv4_s=0x8527ad60;
_Z21convert_char4_sat_rtpDv4_t=0x852b1280;
_Z21convert_char4_sat_rtzDv4_c=0x852e4400;
_Z21convert_char4_sat_rtzDv4_d=0x851a0fe0;
_Z21convert_char4_sat_rtzDv4_f=0x851e38a0;
_Z21convert_char4_sat_rtzDv4_h=0x852b12e0;
_Z21convert_char4_sat_rtzDv4_i=0x8527ae00;
_Z21convert_char4_sat_rtzDv4_j=0x852b1340;
_Z21convert_char4_sat_rtzDv4_l=0x851cd3c0;
_Z21convert_char4_sat_rtzDv4_m=0x85263d40;
_Z21convert_char4_sat_rtzDv4_s=0x8527aea0;
_Z21convert_char4_sat_rtzDv4_t=0x852b13a0;
_Z21convert_char8_sat_rteDv8_c=0x852e4420;
_Z21convert_char8_sat_rteDv8_d=0x852b1400;
_Z21convert_char8_sat_rteDv8_f=0x852b1460;
_Z21convert_char8_sat_rteDv8_h=0x85263e00;
_Z21convert_char8_sat_rteDv8_i=0x851a11a0;
_Z21convert_char8_sat_rteDv8_j=0x85248e60;
_Z21convert_char8_sat_rteDv8_l=0x85113d40;
_Z21convert_char8_sat_rteDv8_m=0x851e3a00;
_Z21convert_char8_sat_rteDv8_s=0x851fd3c0;
_Z21convert_char8_sat_rteDv8_t=0x85248f40;
_Z21convert_char8_sat_rtnDv8_c=0x852e4440;
_Z21convert_char8_sat_rtnDv8_d=0x852b14c0;
_Z21convert_char8_sat_rtnDv8_f=0x852b1520;
_Z21convert_char8_sat_rtnDv8_h=0x85263ec0;
_Z21convert_char8_sat_rtnDv8_i=0x851a1360;
_Z21convert_char8_sat_rtnDv8_j=0x85249020;
_Z21convert_char8_sat_rtnDv8_l=0x85114060;
_Z21convert_char8_sat_rtnDv8_m=0x851e3b60;
_Z21convert_char8_sat_rtnDv8_s=0x851fd500;
_Z21convert_char8_sat_rtnDv8_t=0x85249100;
_Z21convert_char8_sat_rtpDv8_c=0x852e4460;
_Z21convert_char8_sat_rtpDv8_d=0x852b1580;
_Z21convert_char8_sat_rtpDv8_f=0x852b15e0;
_Z21convert_char8_sat_rtpDv8_h=0x85263f80;
_Z21convert_char8_sat_rtpDv8_i=0x851a1520;
_Z21convert_char8_sat_rtpDv8_j=0x852491e0;
_Z21convert_char8_sat_rtpDv8_l=0x85114380;
_Z21convert_char8_sat_rtpDv8_m=0x851e3cc0;
_Z21convert_char8_sat_rtpDv8_s=0x851fd640;
_Z21convert_char8_sat_rtpDv8_t=0x852492c0;
_Z21convert_char8_sat_rtzDv8_c=0x852e4480;
_Z21convert_char8_sat_rtzDv8_d=0x852b1640;
_Z21convert_char8_sat_rtzDv8_f=0x852b16a0;
_Z21convert_char8_sat_rtzDv8_h=0x85264040;
_Z21convert_char8_sat_rtzDv8_i=0x851a16e0;
_Z21convert_char8_sat_rtzDv8_j=0x852493a0;
_Z21convert_char8_sat_rtzDv8_l=0x851146a0;
_Z21convert_char8_sat_rtzDv8_m=0x851e3e20;
_Z21convert_char8_sat_rtzDv8_s=0x851fd780;
_Z21convert_char8_sat_rtzDv8_t=0x85249480;
_Z21convert_int16_sat_rteDv16_c=0x85249560;
_Z21convert_int16_sat_rteDv16_d=0x8515e580;
_Z21convert_int16_sat_rteDv16_f=0x851e3f80;
_Z21convert_int16_sat_rteDv16_h=0x85249640;
_Z21convert_int16_sat_rteDv16_i=0x852b1700;
_Z21convert_int16_sat_rteDv16_j=0x851e40e0;
_Z21convert_int16_sat_rteDv16_l=0x85078620;
_Z21convert_int16_sat_rteDv16_m=0x851149c0;
_Z21convert_int16_sat_rteDv16_s=0x85264100;
_Z21convert_int16_sat_rteDv16_t=0x852641c0;
_Z21convert_int16_sat_rtnDv16_c=0x85249720;
_Z21convert_int16_sat_rtnDv16_d=0x8515e7c0;
_Z21convert_int16_sat_rtnDv16_f=0x851e4240;
_Z21convert_int16_sat_rtnDv16_h=0x85249800;
_Z21convert_int16_sat_rtnDv16_i=0x852b1760;
_Z21convert_int16_sat_rtnDv16_j=0x851e43a0;
_Z21convert_int16_sat_rtnDv16_l=0x85078d20;
_Z21convert_int16_sat_rtnDv16_m=0x85114ce0;
_Z21convert_int16_sat_rtnDv16_s=0x85264280;
_Z21convert_int16_sat_rtnDv16_t=0x85264340;
_Z21convert_int16_sat_rtpDv16_c=0x852498e0;
_Z21convert_int16_sat_rtpDv16_d=0x8515ea00;
_Z21convert_int16_sat_rtpDv16_f=0x851e4500;
_Z21convert_int16_sat_rtpDv16_h=0x852499c0;
_Z21convert_int16_sat_rtpDv16_i=0x852b17c0;
_Z21convert_int16_sat_rtpDv16_j=0x851e4660;
_Z21convert_int16_sat_rtpDv16_l=0x85079420;
_Z21convert_int16_sat_rtpDv16_m=0x85115000;
_Z21convert_int16_sat_rtpDv16_s=0x85264400;
_Z21convert_int16_sat_rtpDv16_t=0x852644c0;
_Z21convert_int16_sat_rtzDv16_c=0x85249aa0;
_Z21convert_int16_sat_rtzDv16_d=0x8515ec40;
_Z21convert_int16_sat_rtzDv16_f=0x851e47c0;
_Z21convert_int16_sat_rtzDv16_h=0x85249b80;
_Z21convert_int16_sat_rtzDv16_i=0x852b1820;
_Z21convert_int16_sat_rtzDv16_j=0x851e4920;
_Z21convert_int16_sat_rtzDv16_l=0x85079b20;
_Z21convert_int16_sat_rtzDv16_m=0x85115320;
_Z21convert_int16_sat_rtzDv16_s=0x85264580;
_Z21convert_int16_sat_rtzDv16_t=0x85264640;
_Z21convert_long2_sat_rteDv2_c=0x852c9680;
_Z21convert_long2_sat_rteDv2_d=0x851fd8c0;
_Z21convert_long2_sat_rteDv2_f=0x85216fc0;
_Z21convert_long2_sat_rteDv2_h=0x852e44a0;
_Z21convert_long2_sat_rteDv2_i=0x852e44c0;
_Z21convert_long2_sat_rteDv2_j=0x852e44e0;
_Z21convert_long2_sat_rteDv2_l=0x852e4500;
_Z21convert_long2_sat_rteDv2_m=0x852c96c0;
_Z21convert_long2_sat_rteDv2_s=0x852e4520;
_Z21convert_long2_sat_rteDv2_t=0x852e4540;
_Z21convert_long2_sat_rtnDv2_c=0x852c9700;
_Z21convert_long2_sat_rtnDv2_d=0x851fda00;
_Z21convert_long2_sat_rtnDv2_f=0x852170e0;
_Z21convert_long2_sat_rtnDv2_h=0x852e4560;
_Z21convert_long2_sat_rtnDv2_i=0x852e4580;
_Z21convert_long2_sat_rtnDv2_j=0x852e45a0;
_Z21convert_long2_sat_rtnDv2_l=0x852e45c0;
_Z21convert_long2_sat_rtnDv2_m=0x852c9740;
_Z21convert_long2_sat_rtnDv2_s=0x852e45e0;
_Z21convert_long2_sat_rtnDv2_t=0x852e4600;
_Z21convert_long2_sat_rtpDv2_c=0x852c9780;
_Z21convert_long2_sat_rtpDv2_d=0x851fdb40;
_Z21convert_long2_sat_rtpDv2_f=0x85217200;
_Z21convert_long2_sat_rtpDv2_h=0x852e4620;
_Z21convert_long2_sat_rtpDv2_i=0x852e4640;
_Z21convert_long2_sat_rtpDv2_j=0x852e4660;
_Z21convert_long2_sat_rtpDv2_l=0x852e4680;
_Z21convert_long2_sat_rtpDv2_m=0x852c97c0;
_Z21convert_long2_sat_rtpDv2_s=0x852e46a0;
_Z21convert_long2_sat_rtpDv2_t=0x852e46c0;
_Z21convert_long2_sat_rtzDv2_c=0x852c9800;
_Z21convert_long2_sat_rtzDv2_d=0x85217320;
_Z21convert_long2_sat_rtzDv2_f=0x85217440;
_Z21convert_long2_sat_rtzDv2_h=0x852e46e0;
_Z21convert_long2_sat_rtzDv2_i=0x852e4700;
_Z21convert_long2_sat_rtzDv2_j=0x852e4720;
_Z21convert_long2_sat_rtzDv2_l=0x852e4740;
_Z21convert_long2_sat_rtzDv2_m=0x852c9840;
_Z21convert_long2_sat_rtzDv2_s=0x852e4760;
_Z21convert_long2_sat_rtzDv2_t=0x852e4780;
_Z21convert_long3_sat_rteDv3_c=0x85295720;
_Z21convert_long3_sat_rteDv3_d=0x8517a3a0;
_Z21convert_long3_sat_rteDv3_f=0x8518ac40;
_Z21convert_long3_sat_rteDv3_h=0x852957a0;
_Z21convert_long3_sat_rteDv3_i=0x852b1880;
_Z21convert_long3_sat_rteDv3_j=0x852b18e0;
_Z21convert_long3_sat_rteDv3_l=0x852b1940;
_Z21convert_long3_sat_rteDv3_m=0x8527af40;
_Z21convert_long3_sat_rteDv3_s=0x852b19a0;
_Z21convert_long3_sat_rteDv3_t=0x852b1a00;
_Z21convert_long3_sat_rtnDv3_c=0x85295820;
_Z21convert_long3_sat_rtnDv3_d=0x8517a5a0;
_Z21convert_long3_sat_rtnDv3_f=0x8518ae20;
_Z21convert_long3_sat_rtnDv3_h=0x852958a0;
_Z21convert_long3_sat_rtnDv3_i=0x852b1a60;
_Z21convert_long3_sat_rtnDv3_j=0x852b1ac0;
_Z21convert_long3_sat_rtnDv3_l=0x852b1b20;
_Z21convert_long3_sat_rtnDv3_m=0x8527afe0;
_Z21convert_long3_sat_rtnDv3_s=0x852b1b80;
_Z21convert_long3_sat_rtnDv3_t=0x852b1be0;
_Z21convert_long3_sat_rtpDv3_c=0x85295920;
_Z21convert_long3_sat_rtpDv3_d=0x8517a7a0;
_Z21convert_long3_sat_rtpDv3_f=0x8518b000;
_Z21convert_long3_sat_rtpDv3_h=0x852959a0;
_Z21convert_long3_sat_rtpDv3_i=0x852b1c40;
_Z21convert_long3_sat_rtpDv3_j=0x852b1ca0;
_Z21convert_long3_sat_rtpDv3_l=0x852b1d00;
_Z21convert_long3_sat_rtpDv3_m=0x8527b080;
_Z21convert_long3_sat_rtpDv3_s=0x852b1d60;
_Z21convert_long3_sat_rtpDv3_t=0x852b1dc0;
_Z21convert_long3_sat_rtzDv3_c=0x85295a20;
_Z21convert_long3_sat_rtzDv3_d=0x8517a9a0;
_Z21convert_long3_sat_rtzDv3_f=0x851a18a0;
_Z21convert_long3_sat_rtzDv3_h=0x85295aa0;
_Z21convert_long3_sat_rtzDv3_i=0x852b1e20;
_Z21convert_long3_sat_rtzDv3_j=0x852b1e80;
_Z21convert_long3_sat_rtzDv3_l=0x852b1ee0;
_Z21convert_long3_sat_rtzDv3_m=0x8527b120;
_Z21convert_long3_sat_rtzDv3_s=0x852b1f40;
_Z21convert_long3_sat_rtzDv3_t=0x852b1fa0;
_Z21convert_long4_sat_rteDv4_c=0x85295b20;
_Z21convert_long4_sat_rteDv4_d=0x85127180;
_Z21convert_long4_sat_rteDv4_f=0x85152080;
_Z21convert_long4_sat_rteDv4_h=0x85295ba0;
_Z21convert_long4_sat_rteDv4_i=0x85295c20;
_Z21convert_long4_sat_rteDv4_j=0x85295ca0;
_Z21convert_long4_sat_rteDv4_l=0x852b2000;
_Z21convert_long4_sat_rteDv4_m=0x85264700;
_Z21convert_long4_sat_rteDv4_s=0x85295d20;
_Z21convert_long4_sat_rteDv4_t=0x85295da0;
_Z21convert_long4_sat_rtnDv4_c=0x85295e20;
_Z21convert_long4_sat_rtnDv4_d=0x85127460;
_Z21convert_long4_sat_rtnDv4_f=0x851522e0;
_Z21convert_long4_sat_rtnDv4_h=0x85295ea0;
_Z21convert_long4_sat_rtnDv4_i=0x85295f20;
_Z21convert_long4_sat_rtnDv4_j=0x85295fa0;
_Z21convert_long4_sat_rtnDv4_l=0x852b2060;
_Z21convert_long4_sat_rtnDv4_m=0x852647c0;
_Z21convert_long4_sat_rtnDv4_s=0x85296020;
_Z21convert_long4_sat_rtnDv4_t=0x852960a0;
_Z21convert_long4_sat_rtpDv4_c=0x85296120;
_Z21convert_long4_sat_rtpDv4_d=0x85127740;
_Z21convert_long4_sat_rtpDv4_f=0x85152540;
_Z21convert_long4_sat_rtpDv4_h=0x852961a0;
_Z21convert_long4_sat_rtpDv4_i=0x85296220;
_Z21convert_long4_sat_rtpDv4_j=0x852962a0;
_Z21convert_long4_sat_rtpDv4_l=0x852b20c0;
_Z21convert_long4_sat_rtpDv4_m=0x85264880;
_Z21convert_long4_sat_rtpDv4_s=0x85296320;
_Z21convert_long4_sat_rtpDv4_t=0x852963a0;
_Z21convert_long4_sat_rtzDv4_c=0x85296420;
_Z21convert_long4_sat_rtzDv4_d=0x85145480;
_Z21convert_long4_sat_rtzDv4_f=0x8515ee80;
_Z21convert_long4_sat_rtzDv4_h=0x852964a0;
_Z21convert_long4_sat_rtzDv4_i=0x85296520;
_Z21convert_long4_sat_rtzDv4_j=0x852965a0;
_Z21convert_long4_sat_rtzDv4_l=0x852b2120;
_Z21convert_long4_sat_rtzDv4_m=0x85264940;
_Z21convert_long4_sat_rtzDv4_s=0x85296620;
_Z21convert_long4_sat_rtzDv4_t=0x852966a0;
_Z21convert_long8_sat_rteDv8_c=0x85249c60;
_Z21convert_long8_sat_rteDv8_d=0x851e4a80;
_Z21convert_long8_sat_rteDv8_f=0x85249d40;
_Z21convert_long8_sat_rteDv8_h=0x85249e20;
_Z21convert_long8_sat_rteDv8_i=0x85264a00;
_Z21convert_long8_sat_rteDv8_j=0x85249f00;
_Z21convert_long8_sat_rteDv8_l=0x852b2180;
_Z21convert_long8_sat_rteDv8_m=0x851fdc80;
_Z21convert_long8_sat_rteDv8_s=0x85249fe0;
_Z21convert_long8_sat_rteDv8_t=0x85264ac0;
_Z21convert_long8_sat_rtnDv8_c=0x8524a0c0;
_Z21convert_long8_sat_rtnDv8_d=0x851e4be0;
_Z21convert_long8_sat_rtnDv8_f=0x8524a1a0;
_Z21convert_long8_sat_rtnDv8_h=0x8524a280;
_Z21convert_long8_sat_rtnDv8_i=0x85264b80;
_Z21convert_long8_sat_rtnDv8_j=0x8524a360;
_Z21convert_long8_sat_rtnDv8_l=0x852b21e0;
_Z21convert_long8_sat_rtnDv8_m=0x851fddc0;
_Z21convert_long8_sat_rtnDv8_s=0x8524a440;
_Z21convert_long8_sat_rtnDv8_t=0x85264c40;
_Z21convert_long8_sat_rtpDv8_c=0x8524a520;
_Z21convert_long8_sat_rtpDv8_d=0x851e4d40;
_Z21convert_long8_sat_rtpDv8_f=0x8524a600;
_Z21convert_long8_sat_rtpDv8_h=0x8524a6e0;
_Z21convert_long8_sat_rtpDv8_i=0x85264d00;
_Z21convert_long8_sat_rtpDv8_j=0x8524a7c0;
_Z21convert_long8_sat_rtpDv8_l=0x852b2240;
_Z21convert_long8_sat_rtpDv8_m=0x851fdf00;
_Z21convert_long8_sat_rtpDv8_s=0x8524a8a0;
_Z21convert_long8_sat_rtpDv8_t=0x85264dc0;
_Z21convert_long8_sat_rtzDv8_c=0x8524a980;
_Z21convert_long8_sat_rtzDv8_d=0x851e4ea0;
_Z21convert_long8_sat_rtzDv8_f=0x8524aa60;
_Z21convert_long8_sat_rtzDv8_h=0x8524ab40;
_Z21convert_long8_sat_rtzDv8_i=0x85264e80;
_Z21convert_long8_sat_rtzDv8_j=0x8524ac20;
_Z21convert_long8_sat_rtzDv8_l=0x852b22a0;
_Z21convert_long8_sat_rtzDv8_m=0x851fe040;
_Z21convert_long8_sat_rtzDv8_s=0x8524ad00;
_Z21convert_long8_sat_rtzDv8_t=0x85264f40;
_Z21convert_short_sat_rtec=0x852e47a0;
_Z21convert_short_sat_rted=0x85296720;
_Z21convert_short_sat_rtef=0x852b2300;
_Z21convert_short_sat_rteh=0x852e47c0;
_Z21convert_short_sat_rtei=0x852c9880;
_Z21convert_short_sat_rtej=0x852e47e0;
_Z21convert_short_sat_rtel=0x852c98c0;
_Z21convert_short_sat_rtem=0x852c9900;
_Z21convert_short_sat_rtes=0x852e4800;
_Z21convert_short_sat_rtet=0x852e4820;
_Z21convert_short_sat_rtnc=0x852e4840;
_Z21convert_short_sat_rtnd=0x852967a0;
_Z21convert_short_sat_rtnf=0x852b2360;
_Z21convert_short_sat_rtnh=0x852e4860;
_Z21convert_short_sat_rtni=0x852c9940;
_Z21convert_short_sat_rtnj=0x852e4880;
_Z21convert_short_sat_rtnl=0x852c9980;
_Z21convert_short_sat_rtnm=0x852c99c0;
_Z21convert_short_sat_rtns=0x852e48a0;
_Z21convert_short_sat_rtnt=0x852e48c0;
_Z21convert_short_sat_rtpc=0x852e48e0;
_Z21convert_short_sat_rtpd=0x85296820;
_Z21convert_short_sat_rtpf=0x852b23c0;
_Z21convert_short_sat_rtph=0x852e4900;
_Z21convert_short_sat_rtpi=0x852c9a00;
_Z21convert_short_sat_rtpj=0x852e4920;
_Z21convert_short_sat_rtpl=0x852c9a40;
_Z21convert_short_sat_rtpm=0x852c9a80;
_Z21convert_short_sat_rtps=0x852e4940;
_Z21convert_short_sat_rtpt=0x852e4960;
_Z21convert_short_sat_rtzc=0x852e4980;
_Z21convert_short_sat_rtzd=0x852968a0;
_Z21convert_short_sat_rtzf=0x852b2420;
_Z21convert_short_sat_rtzh=0x852e49a0;
_Z21convert_short_sat_rtzi=0x852c9ac0;
_Z21convert_short_sat_rtzj=0x852e49c0;
_Z21convert_short_sat_rtzl=0x852c9b00;
_Z21convert_short_sat_rtzm=0x852c9b40;
_Z21convert_short_sat_rtzs=0x852e49e0;
_Z21convert_short_sat_rtzt=0x852e4a00;
_Z21convert_uchar_sat_rtec=0x852e4a20;
_Z21convert_uchar_sat_rted=0x85296920;
_Z21convert_uchar_sat_rtef=0x852b2480;
_Z21convert_uchar_sat_rteh=0x852e4a40;
_Z21convert_uchar_sat_rtei=0x852c9b80;
_Z21convert_uchar_sat_rtej=0x852e4a60;
_Z21convert_uchar_sat_rtel=0x852c9bc0;
_Z21convert_uchar_sat_rtem=0x852e4a80;
_Z21convert_uchar_sat_rtes=0x852c9c00;
_Z21convert_uchar_sat_rtet=0x852e4aa0;
_Z21convert_uchar_sat_rtnc=0x852e4ac0;
_Z21convert_uchar_sat_rtnd=0x852969a0;
_Z21convert_uchar_sat_rtnf=0x852b24e0;
_Z21convert_uchar_sat_rtnh=0x852e4ae0;
_Z21convert_uchar_sat_rtni=0x852c9c40;
_Z21convert_uchar_sat_rtnj=0x852e4b00;
_Z21convert_uchar_sat_rtnl=0x852c9c80;
_Z21convert_uchar_sat_rtnm=0x852e4b20;
_Z21convert_uchar_sat_rtns=0x852c9cc0;
_Z21convert_uchar_sat_rtnt=0x852e4b40;
_Z21convert_uchar_sat_rtpc=0x852e4b60;
_Z21convert_uchar_sat_rtpd=0x85296a20;
_Z21convert_uchar_sat_rtpf=0x852b2540;
_Z21convert_uchar_sat_rtph=0x852e4b80;
_Z21convert_uchar_sat_rtpi=0x852c9d00;
_Z21convert_uchar_sat_rtpj=0x852e4ba0;
_Z21convert_uchar_sat_rtpl=0x852c9d40;
_Z21convert_uchar_sat_rtpm=0x852e4bc0;
_Z21convert_uchar_sat_rtps=0x852c9d80;
_Z21convert_uchar_sat_rtpt=0x852e4be0;
_Z21convert_uchar_sat_rtzc=0x852e4c00;
_Z21convert_uchar_sat_rtzd=0x852b25a0;
_Z21convert_uchar_sat_rtzf=0x852b2600;
_Z21convert_uchar_sat_rtzh=0x852e4c20;
_Z21convert_uchar_sat_rtzi=0x852c9dc0;
_Z21convert_uchar_sat_rtzj=0x852e4c40;
_Z21convert_uchar_sat_rtzl=0x852c9e00;
_Z21convert_uchar_sat_rtzm=0x852e4c60;
_Z21convert_uchar_sat_rtzs=0x852c9e40;
_Z21convert_uchar_sat_rtzt=0x852e4c80;
_Z21convert_uint2_sat_rteDv2_c=0x852c9e80;
_Z21convert_uint2_sat_rteDv2_d=0x8524ade0;
_Z21convert_uint2_sat_rteDv2_f=0x85265000;
_Z21convert_uint2_sat_rteDv2_h=0x852e4ca0;
_Z21convert_uint2_sat_rteDv2_i=0x852c9ec0;
_Z21convert_uint2_sat_rteDv2_j=0x852e4cc0;
_Z21convert_uint2_sat_rteDv2_l=0x852b2660;
_Z21convert_uint2_sat_rteDv2_m=0x852c9f00;
_Z21convert_uint2_sat_rteDv2_s=0x852c9f40;
_Z21convert_uint2_sat_rteDv2_t=0x852e4ce0;
_Z21convert_uint2_sat_rtnDv2_c=0x852c9f80;
_Z21convert_uint2_sat_rtnDv2_d=0x8524aec0;
_Z21convert_uint2_sat_rtnDv2_f=0x852650c0;
_Z21convert_uint2_sat_rtnDv2_h=0x852e4d00;
_Z21convert_uint2_sat_rtnDv2_i=0x852c9fc0;
_Z21convert_uint2_sat_rtnDv2_j=0x852e4d20;
_Z21convert_uint2_sat_rtnDv2_l=0x852b26c0;
_Z21convert_uint2_sat_rtnDv2_m=0x852ca000;
_Z21convert_uint2_sat_rtnDv2_s=0x852ca040;
_Z21convert_uint2_sat_rtnDv2_t=0x852e4d40;
_Z21convert_uint2_sat_rtpDv2_c=0x852ca080;
_Z21convert_uint2_sat_rtpDv2_d=0x8524afa0;
_Z21convert_uint2_sat_rtpDv2_f=0x85265180;
_Z21convert_uint2_sat_rtpDv2_h=0x852e4d60;
_Z21convert_uint2_sat_rtpDv2_i=0x852ca0c0;
_Z21convert_uint2_sat_rtpDv2_j=0x852e4d80;
_Z21convert_uint2_sat_rtpDv2_l=0x852b2720;
_Z21convert_uint2_sat_rtpDv2_m=0x852ca100;
_Z21convert_uint2_sat_rtpDv2_s=0x852ca140;
_Z21convert_uint2_sat_rtpDv2_t=0x852e4da0;
_Z21convert_uint2_sat_rtzDv2_c=0x852ca180;
_Z21convert_uint2_sat_rtzDv2_d=0x8524b080;
_Z21convert_uint2_sat_rtzDv2_f=0x8527b1c0;
_Z21convert_uint2_sat_rtzDv2_h=0x852e4dc0;
_Z21convert_uint2_sat_rtzDv2_i=0x852ca1c0;
_Z21convert_uint2_sat_rtzDv2_j=0x852e4de0;
_Z21convert_uint2_sat_rtzDv2_l=0x852b2780;
_Z21convert_uint2_sat_rtzDv2_m=0x852ca200;
_Z21convert_uint2_sat_rtzDv2_s=0x852ca240;
_Z21convert_uint2_sat_rtzDv2_t=0x852e4e00;
_Z21convert_uint3_sat_rteDv3_c=0x852ca280;
_Z21convert_uint3_sat_rteDv3_d=0x851fe180;
_Z21convert_uint3_sat_rteDv3_f=0x85217560;
_Z21convert_uint3_sat_rteDv3_h=0x852e4e20;
_Z21convert_uint3_sat_rteDv3_i=0x852ca2c0;
_Z21convert_uint3_sat_rteDv3_j=0x852e4e40;
_Z21convert_uint3_sat_rteDv3_l=0x8527b260;
_Z21convert_uint3_sat_rteDv3_m=0x852b27e0;
_Z21convert_uint3_sat_rteDv3_s=0x852ca300;
_Z21convert_uint3_sat_rteDv3_t=0x852e4e60;
_Z21convert_uint3_sat_rtnDv3_c=0x852ca340;
_Z21convert_uint3_sat_rtnDv3_d=0x851fe2c0;
_Z21convert_uint3_sat_rtnDv3_f=0x85217680;
_Z21convert_uint3_sat_rtnDv3_h=0x852e4e80;
_Z21convert_uint3_sat_rtnDv3_i=0x852ca380;
_Z21convert_uint3_sat_rtnDv3_j=0x852e4ea0;
_Z21convert_uint3_sat_rtnDv3_l=0x8527b300;
_Z21convert_uint3_sat_rtnDv3_m=0x852b2840;
_Z21convert_uint3_sat_rtnDv3_s=0x852ca3c0;
_Z21convert_uint3_sat_rtnDv3_t=0x852e4ec0;
_Z21convert_uint3_sat_rtpDv3_c=0x852ca400;
_Z21convert_uint3_sat_rtpDv3_d=0x851fe400;
_Z21convert_uint3_sat_rtpDv3_f=0x852177a0;
_Z21convert_uint3_sat_rtpDv3_h=0x852e4ee0;
_Z21convert_uint3_sat_rtpDv3_i=0x852ca440;
_Z21convert_uint3_sat_rtpDv3_j=0x852e4f00;
_Z21convert_uint3_sat_rtpDv3_l=0x8527b3a0;
_Z21convert_uint3_sat_rtpDv3_m=0x852b28a0;
_Z21convert_uint3_sat_rtpDv3_s=0x852ca480;
_Z21convert_uint3_sat_rtpDv3_t=0x852e4f20;
_Z21convert_uint3_sat_rtzDv3_c=0x852ca4c0;
_Z21convert_uint3_sat_rtzDv3_d=0x851fe540;
_Z21convert_uint3_sat_rtzDv3_f=0x8524b160;
_Z21convert_uint3_sat_rtzDv3_h=0x852e4f40;
_Z21convert_uint3_sat_rtzDv3_i=0x852ca500;
_Z21convert_uint3_sat_rtzDv3_j=0x852e4f60;
_Z21convert_uint3_sat_rtzDv3_l=0x8527b440;
_Z21convert_uint3_sat_rtzDv3_m=0x852b2900;
_Z21convert_uint3_sat_rtzDv3_s=0x852ca540;
_Z21convert_uint3_sat_rtzDv3_t=0x852e4f80;
_Z21convert_uint4_sat_rteDv4_c=0x852b2960;
_Z21convert_uint4_sat_rteDv4_d=0x851a1a60;
_Z21convert_uint4_sat_rteDv4_f=0x851fe680;
_Z21convert_uint4_sat_rteDv4_h=0x852ca580;
_Z21convert_uint4_sat_rteDv4_i=0x852b29c0;
_Z21convert_uint4_sat_rteDv4_j=0x852e4fa0;
_Z21convert_uint4_sat_rteDv4_l=0x8524b240;
_Z21convert_uint4_sat_rteDv4_m=0x85296aa0;
_Z21convert_uint4_sat_rteDv4_s=0x852b2a20;
_Z21convert_uint4_sat_rteDv4_t=0x852e4fc0;
_Z21convert_uint4_sat_rtnDv4_c=0x852b2a80;
_Z21convert_uint4_sat_rtnDv4_d=0x851a1c20;
_Z21convert_uint4_sat_rtnDv4_f=0x851fe7c0;
_Z21convert_uint4_sat_rtnDv4_h=0x852ca5c0;
_Z21convert_uint4_sat_rtnDv4_i=0x852b2ae0;
_Z21convert_uint4_sat_rtnDv4_j=0x852e4fe0;
_Z21convert_uint4_sat_rtnDv4_l=0x8524b320;
_Z21convert_uint4_sat_rtnDv4_m=0x85296b20;
_Z21convert_uint4_sat_rtnDv4_s=0x852b2b40;
_Z21convert_uint4_sat_rtnDv4_t=0x852e5000;
_Z21convert_uint4_sat_rtpDv4_c=0x852b2ba0;
_Z21convert_uint4_sat_rtpDv4_d=0x851a1de0;
_Z21convert_uint4_sat_rtpDv4_f=0x851fe900;
_Z21convert_uint4_sat_rtpDv4_h=0x852ca600;
_Z21convert_uint4_sat_rtpDv4_i=0x852b2c00;
_Z21convert_uint4_sat_rtpDv4_j=0x852e5020;
_Z21convert_uint4_sat_rtpDv4_l=0x8524b400;
_Z21convert_uint4_sat_rtpDv4_m=0x85296ba0;
_Z21convert_uint4_sat_rtpDv4_s=0x852b2c60;
_Z21convert_uint4_sat_rtpDv4_t=0x852e5040;
_Z21convert_uint4_sat_rtzDv4_c=0x852b2cc0;
_Z21convert_uint4_sat_rtzDv4_d=0x851cd540;
_Z21convert_uint4_sat_rtzDv4_f=0x852178c0;
_Z21convert_uint4_sat_rtzDv4_h=0x852ca640;
_Z21convert_uint4_sat_rtzDv4_i=0x852b2d20;
_Z21convert_uint4_sat_rtzDv4_j=0x852e5060;
_Z21convert_uint4_sat_rtzDv4_l=0x8524b4e0;
_Z21convert_uint4_sat_rtzDv4_m=0x85296c20;
_Z21convert_uint4_sat_rtzDv4_s=0x852b2d80;
_Z21convert_uint4_sat_rtzDv4_t=0x852e5080;
_Z21convert_uint8_sat_rteDv8_c=0x8524b5c0;
_Z21convert_uint8_sat_rteDv8_d=0x852179e0;
_Z21convert_uint8_sat_rteDv8_f=0x8524b6a0;
_Z21convert_uint8_sat_rteDv8_h=0x85296ca0;
_Z21convert_uint8_sat_rteDv8_i=0x8524b780;
_Z21convert_uint8_sat_rteDv8_j=0x852b2de0;
_Z21convert_uint8_sat_rteDv8_l=0x851527a0;
_Z21convert_uint8_sat_rteDv8_m=0x851e5000;
_Z21convert_uint8_sat_rteDv8_s=0x8524b860;
_Z21convert_uint8_sat_rteDv8_t=0x85296d20;
_Z21convert_uint8_sat_rtnDv8_c=0x8524b940;
_Z21convert_uint8_sat_rtnDv8_d=0x85217b00;
_Z21convert_uint8_sat_rtnDv8_f=0x8524ba20;
_Z21convert_uint8_sat_rtnDv8_h=0x85296da0;
_Z21convert_uint8_sat_rtnDv8_i=0x8524bb00;
_Z21convert_uint8_sat_rtnDv8_j=0x852b2e40;
_Z21convert_uint8_sat_rtnDv8_l=0x85152a00;
_Z21convert_uint8_sat_rtnDv8_m=0x851e5160;
_Z21convert_uint8_sat_rtnDv8_s=0x8524bbe0;
_Z21convert_uint8_sat_rtnDv8_t=0x85296e20;
_Z21convert_uint8_sat_rtpDv8_c=0x8524bcc0;
_Z21convert_uint8_sat_rtpDv8_d=0x85217c20;
_Z21convert_uint8_sat_rtpDv8_f=0x8524bda0;
_Z21convert_uint8_sat_rtpDv8_h=0x85296ea0;
_Z21convert_uint8_sat_rtpDv8_i=0x8524be80;
_Z21convert_uint8_sat_rtpDv8_j=0x852b2ea0;
_Z21convert_uint8_sat_rtpDv8_l=0x85152c60;
_Z21convert_uint8_sat_rtpDv8_m=0x851e52c0;
_Z21convert_uint8_sat_rtpDv8_s=0x8524bf60;
_Z21convert_uint8_sat_rtpDv8_t=0x85296f20;
_Z21convert_uint8_sat_rtzDv8_c=0x8524c040;
_Z21convert_uint8_sat_rtzDv8_d=0x85217d40;
_Z21convert_uint8_sat_rtzDv8_f=0x8524c120;
_Z21convert_uint8_sat_rtzDv8_h=0x85296fa0;
_Z21convert_uint8_sat_rtzDv8_i=0x8524c200;
_Z21convert_uint8_sat_rtzDv8_j=0x852b2f00;
_Z21convert_uint8_sat_rtzDv8_l=0x85152ec0;
_Z21convert_uint8_sat_rtzDv8_m=0x851e5420;
_Z21convert_uint8_sat_rtzDv8_s=0x8524c2e0;
_Z21convert_uint8_sat_rtzDv8_t=0x85297020;
_Z21convert_ulong_sat_rtec=0x852e50a0;
_Z21convert_ulong_sat_rted=0x852970a0;
_Z21convert_ulong_sat_rtef=0x85297120;
_Z21convert_ulong_sat_rteh=0x852e50c0;
_Z21convert_ulong_sat_rtei=0x852e50e0;
_Z21convert_ulong_sat_rtej=0x852e5100;
_Z21convert_ulong_sat_rtel=0x852e5120;
_Z21convert_ulong_sat_rtem=0x852e5140;
_Z21convert_ulong_sat_rtes=0x852e5160;
_Z21convert_ulong_sat_rtet=0x852e5180;
_Z21convert_ulong_sat_rtnc=0x852e51a0;
_Z21convert_ulong_sat_rtnd=0x852971a0;
_Z21convert_ulong_sat_rtnf=0x85297220;
_Z21convert_ulong_sat_rtnh=0x852e51c0;
_Z21convert_ulong_sat_rtni=0x852e51e0;
_Z21convert_ulong_sat_rtnj=0x852e5200;
_Z21convert_ulong_sat_rtnl=0x852e5220;
_Z21convert_ulong_sat_rtnm=0x852e5240;
_Z21convert_ulong_sat_rtns=0x852e5260;
_Z21convert_ulong_sat_rtnt=0x852e5280;
_Z21convert_ulong_sat_rtpc=0x852e52a0;
_Z21convert_ulong_sat_rtpd=0x852972a0;
_Z21convert_ulong_sat_rtpf=0x85297320;
_Z21convert_ulong_sat_rtph=0x852e52c0;
_Z21convert_ulong_sat_rtpi=0x852e52e0;
_Z21convert_ulong_sat_rtpj=0x852e5300;
_Z21convert_ulong_sat_rtpl=0x852e5320;
_Z21convert_ulong_sat_rtpm=0x852e5340;
_Z21convert_ulong_sat_rtps=0x852e5360;
_Z21convert_ulong_sat_rtpt=0x852e5380;
_Z21convert_ulong_sat_rtzc=0x852e53a0;
_Z21convert_ulong_sat_rtzd=0x852973a0;
_Z21convert_ulong_sat_rtzf=0x85297420;
_Z21convert_ulong_sat_rtzh=0x852e53c0;
_Z21convert_ulong_sat_rtzi=0x852e53e0;
_Z21convert_ulong_sat_rtzj=0x852e5400;
_Z21convert_ulong_sat_rtzl=0x852e5420;
_Z21convert_ulong_sat_rtzm=0x852e5440;
_Z21convert_ulong_sat_rtzs=0x852e5460;
_Z21convert_ulong_sat_rtzt=0x852e5480;
_Z22convert_char16_sat_rteDv16_c=0x852e54a0;
_Z22convert_char16_sat_rteDv16_d=0x851e5580;
_Z22convert_char16_sat_rteDv16_f=0x85265240;
_Z22convert_char16_sat_rteDv16_h=0x851e56e0;
_Z22convert_char16_sat_rteDv16_i=0x85100400;
_Z22convert_char16_sat_rteDv16_j=0x851fea40;
_Z22convert_char16_sat_rteDv16_l=0x850745a0;
_Z22convert_char16_sat_rteDv16_m=0x85115640;
_Z22convert_char16_sat_rteDv16_s=0x85145700;
_Z22convert_char16_sat_rteDv16_t=0x8518b1e0;
_Z22convert_char16_sat_rtnDv16_c=0x852e54c0;
_Z22convert_char16_sat_rtnDv16_d=0x851e5840;
_Z22convert_char16_sat_rtnDv16_f=0x85265300;
_Z22convert_char16_sat_rtnDv16_h=0x851e59a0;
_Z22convert_char16_sat_rtnDv16_i=0x85100760;
_Z22convert_char16_sat_rtnDv16_j=0x851feb80;
_Z22convert_char16_sat_rtnDv16_l=0x85074ce0;
_Z22convert_char16_sat_rtnDv16_m=0x85115960;
_Z22convert_char16_sat_rtnDv16_s=0x85145980;
_Z22convert_char16_sat_rtnDv16_t=0x8518b3c0;
_Z22convert_char16_sat_rtpDv16_c=0x852e54e0;
_Z22convert_char16_sat_rtpDv16_d=0x851e5b00;
_Z22convert_char16_sat_rtpDv16_f=0x852653c0;
_Z22convert_char16_sat_rtpDv16_h=0x851e5c60;
_Z22convert_char16_sat_rtpDv16_i=0x85100ac0;
_Z22convert_char16_sat_rtpDv16_j=0x851fecc0;
_Z22convert_char16_sat_rtpDv16_l=0x85075420;
_Z22convert_char16_sat_rtpDv16_m=0x85115c80;
_Z22convert_char16_sat_rtpDv16_s=0x85145c00;
_Z22convert_char16_sat_rtpDv16_t=0x8518b5a0;
_Z22convert_char16_sat_rtzDv16_c=0x852e5500;
_Z22convert_char16_sat_rtzDv16_d=0x851e5dc0;
_Z22convert_char16_sat_rtzDv16_f=0x85265480;
_Z22convert_char16_sat_rtzDv16_h=0x851e5f20;
_Z22convert_char16_sat_rtzDv16_i=0x85100e20;
_Z22convert_char16_sat_rtzDv16_j=0x851fee00;
_Z22convert_char16_sat_rtzDv16_l=0x85075b60;
_Z22convert_char16_sat_rtzDv16_m=0x85115fa0;
_Z22convert_char16_sat_rtzDv16_s=0x85145e80;
_Z22convert_char16_sat_rtzDv16_t=0x8518b780;
_Z22convert_long16_sat_rteDv16_c=0x851a1fa0;
_Z22convert_long16_sat_rteDv16_d=0x8513b080;
_Z22convert_long16_sat_rteDv16_f=0x851a2160;
_Z22convert_long16_sat_rteDv16_h=0x851a2320;
_Z22convert_long16_sat_rteDv16_i=0x851cd6c0;
_Z22convert_long16_sat_rteDv16_j=0x851cd840;
_Z22convert_long16_sat_rteDv16_l=0x852b2f60;
_Z22convert_long16_sat_rteDv16_m=0x85133540;
_Z22convert_long16_sat_rteDv16_s=0x851cd9c0;
_Z22convert_long16_sat_rteDv16_t=0x851e6080;
_Z22convert_long16_sat_rtnDv16_c=0x851a24e0;
_Z22convert_long16_sat_rtnDv16_d=0x8513b320;
_Z22convert_long16_sat_rtnDv16_f=0x851a26a0;
_Z22convert_long16_sat_rtnDv16_h=0x851a2860;
_Z22convert_long16_sat_rtnDv16_i=0x851cdb40;
_Z22convert_long16_sat_rtnDv16_j=0x851cdcc0;
_Z22convert_long16_sat_rtnDv16_l=0x852b2fc0;
_Z22convert_long16_sat_rtnDv16_m=0x85133800;
_Z22convert_long16_sat_rtnDv16_s=0x851cde40;
_Z22convert_long16_sat_rtnDv16_t=0x851e61e0;
_Z22convert_long16_sat_rtpDv16_c=0x851a2a20;
_Z22convert_long16_sat_rtpDv16_d=0x8513b5c0;
_Z22convert_long16_sat_rtpDv16_f=0x851a2be0;
_Z22convert_long16_sat_rtpDv16_h=0x851a2da0;
_Z22convert_long16_sat_rtpDv16_i=0x851cdfc0;
_Z22convert_long16_sat_rtpDv16_j=0x851ce140;
_Z22convert_long16_sat_rtpDv16_l=0x852b3020;
_Z22convert_long16_sat_rtpDv16_m=0x85133ac0;
_Z22convert_long16_sat_rtpDv16_s=0x851ce2c0;
_Z22convert_long16_sat_rtpDv16_t=0x851e6340;
_Z22convert_long16_sat_rtzDv16_c=0x851a2f60;
_Z22convert_long16_sat_rtzDv16_d=0x8513b860;
_Z22convert_long16_sat_rtzDv16_f=0x851a3120;
_Z22convert_long16_sat_rtzDv16_h=0x851a32e0;
_Z22convert_long16_sat_rtzDv16_i=0x851ce440;
_Z22convert_long16_sat_rtzDv16_j=0x851ce5c0;
_Z22convert_long16_sat_rtzDv16_l=0x852b3080;
_Z22convert_long16_sat_rtzDv16_m=0x85133d80;
_Z22convert_long16_sat_rtzDv16_s=0x851ce740;
_Z22convert_long16_sat_rtzDv16_t=0x851e64a0;
_Z22convert_short2_sat_rteDv2_c=0x852e5520;
_Z22convert_short2_sat_rteDv2_d=0x8524c3c0;
_Z22convert_short2_sat_rteDv2_f=0x85265540;
_Z22convert_short2_sat_rteDv2_h=0x852e5540;
_Z22convert_short2_sat_rteDv2_i=0x852ca680;
_Z22convert_short2_sat_rteDv2_j=0x852ca6c0;
_Z22convert_short2_sat_rteDv2_l=0x8527b4e0;
_Z22convert_short2_sat_rteDv2_m=0x852ca700;
_Z22convert_short2_sat_rteDv2_s=0x852e5560;
_Z22convert_short2_sat_rteDv2_t=0x852ca740;
_Z22convert_short2_sat_rtnDv2_c=0x852e5580;
_Z22convert_short2_sat_rtnDv2_d=0x8524c4a0;
_Z22convert_short2_sat_rtnDv2_f=0x85265600;
_Z22convert_short2_sat_rtnDv2_h=0x852e55a0;
_Z22convert_short2_sat_rtnDv2_i=0x852ca780;
_Z22convert_short2_sat_rtnDv2_j=0x852ca7c0;
_Z22convert_short2_sat_rtnDv2_l=0x8527b580;
_Z22convert_short2_sat_rtnDv2_m=0x852ca800;
_Z22convert_short2_sat_rtnDv2_s=0x852e55c0;
_Z22convert_short2_sat_rtnDv2_t=0x852ca840;
_Z22convert_short2_sat_rtpDv2_c=0x852e55e0;
_Z22convert_short2_sat_rtpDv2_d=0x8524c580;
_Z22convert_short2_sat_rtpDv2_f=0x852656c0;
_Z22convert_short2_sat_rtpDv2_h=0x852e5600;
_Z22convert_short2_sat_rtpDv2_i=0x852ca880;
_Z22convert_short2_sat_rtpDv2_j=0x852ca8c0;
_Z22convert_short2_sat_rtpDv2_l=0x8527b620;
_Z22convert_short2_sat_rtpDv2_m=0x852ca900;
_Z22convert_short2_sat_rtpDv2_s=0x852e5620;
_Z22convert_short2_sat_rtpDv2_t=0x852ca940;
_Z22convert_short2_sat_rtzDv2_c=0x852e5640;
_Z22convert_short2_sat_rtzDv2_d=0x8524c660;
_Z22convert_short2_sat_rtzDv2_f=0x85265780;
_Z22convert_short2_sat_rtzDv2_h=0x852e5660;
_Z22convert_short2_sat_rtzDv2_i=0x852ca980;
_Z22convert_short2_sat_rtzDv2_j=0x852ca9c0;
_Z22convert_short2_sat_rtzDv2_l=0x8527b6c0;
_Z22convert_short2_sat_rtzDv2_m=0x852caa00;
_Z22convert_short2_sat_rtzDv2_s=0x852e5680;
_Z22convert_short2_sat_rtzDv2_t=0x852caa40;
_Z22convert_short3_sat_rteDv3_c=0x852e56a0;
_Z22convert_short3_sat_rteDv3_d=0x851e6600;
_Z22convert_short3_sat_rteDv3_f=0x85217e60;
_Z22convert_short3_sat_rteDv3_h=0x852e56c0;
_Z22convert_short3_sat_rteDv3_i=0x852b30e0;
_Z22convert_short3_sat_rteDv3_j=0x852caa80;
_Z22convert_short3_sat_rteDv3_l=0x8522d8a0;
_Z22convert_short3_sat_rteDv3_m=0x8527b760;
_Z22convert_short3_sat_rteDv3_s=0x852e56e0;
_Z22convert_short3_sat_rteDv3_t=0x852caac0;
_Z22convert_short3_sat_rtnDv3_c=0x852e5700;
_Z22convert_short3_sat_rtnDv3_d=0x851e6760;
_Z22convert_short3_sat_rtnDv3_f=0x85217f80;
_Z22convert_short3_sat_rtnDv3_h=0x852e5720;
_Z22convert_short3_sat_rtnDv3_i=0x852b3140;
_Z22convert_short3_sat_rtnDv3_j=0x852cab00;
_Z22convert_short3_sat_rtnDv3_l=0x8522d9a0;
_Z22convert_short3_sat_rtnDv3_m=0x8527b800;
_Z22convert_short3_sat_rtnDv3_s=0x852e5740;
_Z22convert_short3_sat_rtnDv3_t=0x852cab40;
_Z22convert_short3_sat_rtpDv3_c=0x852e5760;
_Z22convert_short3_sat_rtpDv3_d=0x851e68c0;
_Z22convert_short3_sat_rtpDv3_f=0x852180a0;
_Z22convert_short3_sat_rtpDv3_h=0x852e5780;
_Z22convert_short3_sat_rtpDv3_i=0x852b31a0;
_Z22convert_short3_sat_rtpDv3_j=0x852cab80;
_Z22convert_short3_sat_rtpDv3_l=0x8522daa0;
_Z22convert_short3_sat_rtpDv3_m=0x8527b8a0;
_Z22convert_short3_sat_rtpDv3_s=0x852e57a0;
_Z22convert_short3_sat_rtpDv3_t=0x852cabc0;
_Z22convert_short3_sat_rtzDv3_c=0x852e57c0;
_Z22convert_short3_sat_rtzDv3_d=0x851e6a20;
_Z22convert_short3_sat_rtzDv3_f=0x8522dba0;
_Z22convert_short3_sat_rtzDv3_h=0x852e57e0;
_Z22convert_short3_sat_rtzDv3_i=0x852b3200;
_Z22convert_short3_sat_rtzDv3_j=0x852cac00;
_Z22convert_short3_sat_rtzDv3_l=0x8522dca0;
_Z22convert_short3_sat_rtzDv3_m=0x8527b940;
_Z22convert_short3_sat_rtzDv3_s=0x852e5800;
_Z22convert_short3_sat_rtzDv3_t=0x852cac40;
_Z22convert_short4_sat_rteDv4_c=0x852e5820;
_Z22convert_short4_sat_rteDv4_d=0x851a34a0;
_Z22convert_short4_sat_rteDv4_f=0x851fef40;
_Z22convert_short4_sat_rteDv4_h=0x852e5840;
_Z22convert_short4_sat_rteDv4_i=0x852974a0;
_Z22convert_short4_sat_rteDv4_j=0x852b3260;
_Z22convert_short4_sat_rteDv4_l=0x851e6b80;
_Z22convert_short4_sat_rteDv4_m=0x85265840;
_Z22convert_short4_sat_rteDv4_s=0x852e5860;
_Z22convert_short4_sat_rteDv4_t=0x852cac80;
_Z22convert_short4_sat_rtnDv4_c=0x852e5880;
_Z22convert_short4_sat_rtnDv4_d=0x851a3660;
_Z22convert_short4_sat_rtnDv4_f=0x851ff080;
_Z22convert_short4_sat_rtnDv4_h=0x852e58a0;
_Z22convert_short4_sat_rtnDv4_i=0x85297520;
_Z22convert_short4_sat_rtnDv4_j=0x852b32c0;
_Z22convert_short4_sat_rtnDv4_l=0x851e6ce0;
_Z22convert_short4_sat_rtnDv4_m=0x85265900;
_Z22convert_short4_sat_rtnDv4_s=0x852e58c0;
_Z22convert_short4_sat_rtnDv4_t=0x852cacc0;
_Z22convert_short4_sat_rtpDv4_c=0x852e58e0;
_Z22convert_short4_sat_rtpDv4_d=0x851a3820;
_Z22convert_short4_sat_rtpDv4_f=0x851ff1c0;
_Z22convert_short4_sat_rtpDv4_h=0x852e5900;
_Z22convert_short4_sat_rtpDv4_i=0x852975a0;
_Z22convert_short4_sat_rtpDv4_j=0x852b3320;
_Z22convert_short4_sat_rtpDv4_l=0x851e6e40;
_Z22convert_short4_sat_rtpDv4_m=0x852659c0;
_Z22convert_short4_sat_rtpDv4_s=0x852e5920;
_Z22convert_short4_sat_rtpDv4_t=0x852cad00;
_Z22convert_short4_sat_rtzDv4_c=0x852e5940;
_Z22convert_short4_sat_rtzDv4_d=0x851ce8c0;
_Z22convert_short4_sat_rtzDv4_f=0x851ff300;
_Z22convert_short4_sat_rtzDv4_h=0x852e5960;
_Z22convert_short4_sat_rtzDv4_i=0x85297620;
_Z22convert_short4_sat_rtzDv4_j=0x852b3380;
_Z22convert_short4_sat_rtzDv4_l=0x851e6fa0;
_Z22convert_short4_sat_rtzDv4_m=0x85265a80;
_Z22convert_short4_sat_rtzDv4_s=0x852e5980;
_Z22convert_short4_sat_rtzDv4_t=0x852cad40;
_Z22convert_short8_sat_rteDv8_c=0x852b33e0;
_Z22convert_short8_sat_rteDv8_d=0x85265b40;
_Z22convert_short8_sat_rteDv8_f=0x852b3440;
_Z22convert_short8_sat_rteDv8_h=0x852b34a0;
_Z22convert_short8_sat_rteDv8_i=0x851ff440;
_Z22convert_short8_sat_rteDv8_j=0x8527b9e0;
_Z22convert_short8_sat_rteDv8_l=0x8511b920;
_Z22convert_short8_sat_rteDv8_m=0x851ff580;
_Z22convert_short8_sat_rteDv8_s=0x852e59a0;
_Z22convert_short8_sat_rteDv8_t=0x8527ba80;
_Z22convert_short8_sat_rtnDv8_c=0x852b3500;
_Z22convert_short8_sat_rtnDv8_d=0x85265c00;
_Z22convert_short8_sat_rtnDv8_f=0x852b3560;
_Z22convert_short8_sat_rtnDv8_h=0x852b35c0;
_Z22convert_short8_sat_rtnDv8_i=0x851ff6c0;
_Z22convert_short8_sat_rtnDv8_j=0x8527bb20;
_Z22convert_short8_sat_rtnDv8_l=0x8511bc20;
_Z22convert_short8_sat_rtnDv8_m=0x851ff800;
_Z22convert_short8_sat_rtnDv8_s=0x852e59c0;
_Z22convert_short8_sat_rtnDv8_t=0x8527bbc0;
_Z22convert_short8_sat_rtpDv8_c=0x852b3620;
_Z22convert_short8_sat_rtpDv8_d=0x85265cc0;
_Z22convert_short8_sat_rtpDv8_f=0x852b3680;
_Z22convert_short8_sat_rtpDv8_h=0x852b36e0;
_Z22convert_short8_sat_rtpDv8_i=0x851ff940;
_Z22convert_short8_sat_rtpDv8_j=0x8527bc60;
_Z22convert_short8_sat_rtpDv8_l=0x8511bf20;
_Z22convert_short8_sat_rtpDv8_m=0x851ffa80;
_Z22convert_short8_sat_rtpDv8_s=0x852e59e0;
_Z22convert_short8_sat_rtpDv8_t=0x8527bd00;
_Z22convert_short8_sat_rtzDv8_c=0x852b3740;
_Z22convert_short8_sat_rtzDv8_d=0x85265d80;
_Z22convert_short8_sat_rtzDv8_f=0x852b37a0;
_Z22convert_short8_sat_rtzDv8_h=0x852b3800;
_Z22convert_short8_sat_rtzDv8_i=0x851ffbc0;
_Z22convert_short8_sat_rtzDv8_j=0x8527bda0;
_Z22convert_short8_sat_rtzDv8_l=0x8511c220;
_Z22convert_short8_sat_rtzDv8_m=0x851ffd00;
_Z22convert_short8_sat_rtzDv8_s=0x852e5a00;
_Z22convert_short8_sat_rtzDv8_t=0x8527be40;
_Z22convert_uchar2_sat_rteDv2_c=0x852cad80;
_Z22convert_uchar2_sat_rteDv2_d=0x8524c740;
_Z22convert_uchar2_sat_rteDv2_f=0x85265e40;
_Z22convert_uchar2_sat_rteDv2_h=0x852e5a20;
_Z22convert_uchar2_sat_rteDv2_i=0x852b3860;
_Z22convert_uchar2_sat_rteDv2_j=0x852cadc0;
_Z22convert_uchar2_sat_rteDv2_l=0x852b38c0;
_Z22convert_uchar2_sat_rteDv2_m=0x852cae00;
_Z22convert_uchar2_sat_rteDv2_s=0x852cae40;
_Z22convert_uchar2_sat_rteDv2_t=0x852cae80;
_Z22convert_uchar2_sat_rtnDv2_c=0x852caec0;
_Z22convert_uchar2_sat_rtnDv2_d=0x8524c820;
_Z22convert_uchar2_sat_rtnDv2_f=0x85265f00;
_Z22convert_uchar2_sat_rtnDv2_h=0x852e5a40;
_Z22convert_uchar2_sat_rtnDv2_i=0x852b3920;
_Z22convert_uchar2_sat_rtnDv2_j=0x852caf00;
_Z22convert_uchar2_sat_rtnDv2_l=0x852b3980;
_Z22convert_uchar2_sat_rtnDv2_m=0x852caf40;
_Z22convert_uchar2_sat_rtnDv2_s=0x852caf80;
_Z22convert_uchar2_sat_rtnDv2_t=0x852cafc0;
_Z22convert_uchar2_sat_rtpDv2_c=0x852cb000;
_Z22convert_uchar2_sat_rtpDv2_d=0x8524c900;
_Z22convert_uchar2_sat_rtpDv2_f=0x85265fc0;
_Z22convert_uchar2_sat_rtpDv2_h=0x852e5a60;
_Z22convert_uchar2_sat_rtpDv2_i=0x852b39e0;
_Z22convert_uchar2_sat_rtpDv2_j=0x852cb040;
_Z22convert_uchar2_sat_rtpDv2_l=0x852b3a40;
_Z22convert_uchar2_sat_rtpDv2_m=0x852cb080;
_Z22convert_uchar2_sat_rtpDv2_s=0x852cb0c0;
_Z22convert_uchar2_sat_rtpDv2_t=0x852cb100;
_Z22convert_uchar2_sat_rtzDv2_c=0x852cb140;
_Z22convert_uchar2_sat_rtzDv2_d=0x85266080;
_Z22convert_uchar2_sat_rtzDv2_f=0x85266140;
_Z22convert_uchar2_sat_rtzDv2_h=0x852e5a80;
_Z22convert_uchar2_sat_rtzDv2_i=0x852b3aa0;
_Z22convert_uchar2_sat_rtzDv2_j=0x852cb180;
_Z22convert_uchar2_sat_rtzDv2_l=0x852b3b00;
_Z22convert_uchar2_sat_rtzDv2_m=0x852cb1c0;
_Z22convert_uchar2_sat_rtzDv2_s=0x852cb200;
_Z22convert_uchar2_sat_rtzDv2_t=0x852cb240;
_Z22convert_uchar3_sat_rteDv3_c=0x852b3b60;
_Z22convert_uchar3_sat_rteDv3_d=0x851ffe40;
_Z22convert_uchar3_sat_rteDv3_f=0x8522dda0;
_Z22convert_uchar3_sat_rteDv3_h=0x852e5aa0;
_Z22convert_uchar3_sat_rteDv3_i=0x852b3bc0;
_Z22convert_uchar3_sat_rteDv3_j=0x852cb280;
_Z22convert_uchar3_sat_rteDv3_l=0x8524c9e0;
_Z22convert_uchar3_sat_rteDv3_m=0x8527bee0;
_Z22convert_uchar3_sat_rteDv3_s=0x852b3c20;
_Z22convert_uchar3_sat_rteDv3_t=0x852b3c80;
_Z22convert_uchar3_sat_rtnDv3_c=0x852b3ce0;
_Z22convert_uchar3_sat_rtnDv3_d=0x851fff80;
_Z22convert_uchar3_sat_rtnDv3_f=0x8522dea0;
_Z22convert_uchar3_sat_rtnDv3_h=0x852e5ac0;
_Z22convert_uchar3_sat_rtnDv3_i=0x852b3d40;
_Z22convert_uchar3_sat_rtnDv3_j=0x852cb2c0;
_Z22convert_uchar3_sat_rtnDv3_l=0x8524cac0;
_Z22convert_uchar3_sat_rtnDv3_m=0x8527bf80;
_Z22convert_uchar3_sat_rtnDv3_s=0x852b3da0;
_Z22convert_uchar3_sat_rtnDv3_t=0x852b3e00;
_Z22convert_uchar3_sat_rtpDv3_c=0x852b3e60;
_Z22convert_uchar3_sat_rtpDv3_d=0x852000c0;
_Z22convert_uchar3_sat_rtpDv3_f=0x8522dfa0;
_Z22convert_uchar3_sat_rtpDv3_h=0x852e5ae0;
_Z22convert_uchar3_sat_rtpDv3_i=0x852b3ec0;
_Z22convert_uchar3_sat_rtpDv3_j=0x852cb300;
_Z22convert_uchar3_sat_rtpDv3_l=0x8524cba0;
_Z22convert_uchar3_sat_rtpDv3_m=0x8527c020;
_Z22convert_uchar3_sat_rtpDv3_s=0x852b3f20;
_Z22convert_uchar3_sat_rtpDv3_t=0x852b3f80;
_Z22convert_uchar3_sat_rtzDv3_c=0x852b3fe0;
_Z22convert_uchar3_sat_rtzDv3_d=0x851e7100;
_Z22convert_uchar3_sat_rtzDv3_f=0x8522e0a0;
_Z22convert_uchar3_sat_rtzDv3_h=0x852e5b00;
_Z22convert_uchar3_sat_rtzDv3_i=0x852b4040;
_Z22convert_uchar3_sat_rtzDv3_j=0x852cb340;
_Z22convert_uchar3_sat_rtzDv3_l=0x8524cc80;
_Z22convert_uchar3_sat_rtzDv3_m=0x8527c0c0;
_Z22convert_uchar3_sat_rtzDv3_s=0x852b40a0;
_Z22convert_uchar3_sat_rtzDv3_t=0x852b4100;
_Z22convert_uchar4_sat_rteDv4_c=0x852b4160;
_Z22convert_uchar4_sat_rteDv4_d=0x851b5680;
_Z22convert_uchar4_sat_rteDv4_f=0x85200200;
_Z22convert_uchar4_sat_rteDv4_h=0x852e5b20;
_Z22convert_uchar4_sat_rteDv4_i=0x85266200;
_Z22convert_uchar4_sat_rteDv4_j=0x852cb380;
_Z22convert_uchar4_sat_rteDv4_l=0x852181c0;
_Z22convert_uchar4_sat_rteDv4_m=0x852662c0;
_Z22convert_uchar4_sat_rteDv4_s=0x85266380;
_Z22convert_uchar4_sat_rteDv4_t=0x852b41c0;
_Z22convert_uchar4_sat_rtnDv4_c=0x852b4220;
_Z22convert_uchar4_sat_rtnDv4_d=0x851b5820;
_Z22convert_uchar4_sat_rtnDv4_f=0x85200340;
_Z22convert_uchar4_sat_rtnDv4_h=0x852e5b40;
_Z22convert_uchar4_sat_rtnDv4_i=0x85266440;
_Z22convert_uchar4_sat_rtnDv4_j=0x852cb3c0;
_Z22convert_uchar4_sat_rtnDv4_l=0x852182e0;
_Z22convert_uchar4_sat_rtnDv4_m=0x85266500;
_Z22convert_uchar4_sat_rtnDv4_s=0x852665c0;
_Z22convert_uchar4_sat_rtnDv4_t=0x852b4280;
_Z22convert_uchar4_sat_rtpDv4_c=0x852b42e0;
_Z22convert_uchar4_sat_rtpDv4_d=0x851b59c0;
_Z22convert_uchar4_sat_rtpDv4_f=0x85200480;
_Z22convert_uchar4_sat_rtpDv4_h=0x852e5b60;
_Z22convert_uchar4_sat_rtpDv4_i=0x85266680;
_Z22convert_uchar4_sat_rtpDv4_j=0x852cb400;
_Z22convert_uchar4_sat_rtpDv4_l=0x85218400;
_Z22convert_uchar4_sat_rtpDv4_m=0x85266740;
_Z22convert_uchar4_sat_rtpDv4_s=0x85266800;
_Z22convert_uchar4_sat_rtpDv4_t=0x852b4340;
_Z22convert_uchar4_sat_rtzDv4_c=0x852b43a0;
_Z22convert_uchar4_sat_rtzDv4_d=0x851cea40;
_Z22convert_uchar4_sat_rtzDv4_f=0x852005c0;
_Z22convert_uchar4_sat_rtzDv4_h=0x852e5b80;
_Z22convert_uchar4_sat_rtzDv4_i=0x852668c0;
_Z22convert_uchar4_sat_rtzDv4_j=0x852cb440;
_Z22convert_uchar4_sat_rtzDv4_l=0x85218520;
_Z22convert_uchar4_sat_rtzDv4_m=0x85266980;
_Z22convert_uchar4_sat_rtzDv4_s=0x85266a40;
_Z22convert_uchar4_sat_rtzDv4_t=0x852b4400;
_Z22convert_uchar8_sat_rteDv8_c=0x85266b00;
_Z22convert_uchar8_sat_rteDv8_d=0x852b4460;
_Z22convert_uchar8_sat_rteDv8_f=0x852b44c0;
_Z22convert_uchar8_sat_rteDv8_h=0x852e5ba0;
_Z22convert_uchar8_sat_rteDv8_i=0x851b5b60;
_Z22convert_uchar8_sat_rteDv8_j=0x8524cd60;
_Z22convert_uchar8_sat_rteDv8_l=0x85153120;
_Z22convert_uchar8_sat_rteDv8_m=0x851e7260;
_Z22convert_uchar8_sat_rteDv8_s=0x851e73c0;
_Z22convert_uchar8_sat_rteDv8_t=0x8524ce40;
_Z22convert_uchar8_sat_rtnDv8_c=0x85266bc0;
_Z22convert_uchar8_sat_rtnDv8_d=0x852b4520;
_Z22convert_uchar8_sat_rtnDv8_f=0x852b4580;
_Z22convert_uchar8_sat_rtnDv8_h=0x852e5bc0;
_Z22convert_uchar8_sat_rtnDv8_i=0x851b5d00;
_Z22convert_uchar8_sat_rtnDv8_j=0x8524cf20;
_Z22convert_uchar8_sat_rtnDv8_l=0x85153380;
_Z22convert_uchar8_sat_rtnDv8_m=0x851e7520;
_Z22convert_uchar8_sat_rtnDv8_s=0x851e7680;
_Z22convert_uchar8_sat_rtnDv8_t=0x8524d000;
_Z22convert_uchar8_sat_rtpDv8_c=0x85266c80;
_Z22convert_uchar8_sat_rtpDv8_d=0x852b45e0;
_Z22convert_uchar8_sat_rtpDv8_f=0x852b4640;
_Z22convert_uchar8_sat_rtpDv8_h=0x852e5be0;
_Z22convert_uchar8_sat_rtpDv8_i=0x851b5ea0;
_Z22convert_uchar8_sat_rtpDv8_j=0x8524d0e0;
_Z22convert_uchar8_sat_rtpDv8_l=0x851535e0;
_Z22convert_uchar8_sat_rtpDv8_m=0x851e77e0;
_Z22convert_uchar8_sat_rtpDv8_s=0x851e7940;
_Z22convert_uchar8_sat_rtpDv8_t=0x8524d1c0;
_Z22convert_uchar8_sat_rtzDv8_c=0x85266d40;
_Z22convert_uchar8_sat_rtzDv8_d=0x852b46a0;
_Z22convert_uchar8_sat_rtzDv8_f=0x852b4700;
_Z22convert_uchar8_sat_rtzDv8_h=0x852e5c00;
_Z22convert_uchar8_sat_rtzDv8_i=0x851b6040;
_Z22convert_uchar8_sat_rtzDv8_j=0x8524d2a0;
_Z22convert_uchar8_sat_rtzDv8_l=0x85153840;
_Z22convert_uchar8_sat_rtzDv8_m=0x851e7aa0;
_Z22convert_uchar8_sat_rtzDv8_s=0x851e7c00;
_Z22convert_uchar8_sat_rtzDv8_t=0x8524d380;
_Z22convert_uint16_sat_rteDv16_c=0x851b61e0;
_Z22convert_uint16_sat_rteDv16_d=0x8515f0c0;
_Z22convert_uint16_sat_rteDv16_f=0x851e7d60;
_Z22convert_uint16_sat_rteDv16_h=0x8524d460;
_Z22convert_uint16_sat_rteDv16_i=0x851cebc0;
_Z22convert_uint16_sat_rteDv16_j=0x852b4760;
_Z22convert_uint16_sat_rteDv16_l=0x850b9660;
_Z22convert_uint16_sat_rteDv16_m=0x85127a20;
_Z22convert_uint16_sat_rteDv16_s=0x851ced40;
_Z22convert_uint16_sat_rteDv16_t=0x85266e00;
_Z22convert_uint16_sat_rtnDv16_c=0x851b6380;
_Z22convert_uint16_sat_rtnDv16_d=0x8515f300;
_Z22convert_uint16_sat_rtnDv16_f=0x851e7ec0;
_Z22convert_uint16_sat_rtnDv16_h=0x8524d540;
_Z22convert_uint16_sat_rtnDv16_i=0x851ceec0;
_Z22convert_uint16_sat_rtnDv16_j=0x852b47c0;
_Z22convert_uint16_sat_rtnDv16_l=0x850b9b00;
_Z22convert_uint16_sat_rtnDv16_m=0x85127d00;
_Z22convert_uint16_sat_rtnDv16_s=0x851cf040;
_Z22convert_uint16_sat_rtnDv16_t=0x85266ec0;
_Z22convert_uint16_sat_rtpDv16_c=0x851b6520;
_Z22convert_uint16_sat_rtpDv16_d=0x8515f540;
_Z22convert_uint16_sat_rtpDv16_f=0x851e8020;
_Z22convert_uint16_sat_rtpDv16_h=0x8524d620;
_Z22convert_uint16_sat_rtpDv16_i=0x851cf1c0;
_Z22convert_uint16_sat_rtpDv16_j=0x852b4820;
_Z22convert_uint16_sat_rtpDv16_l=0x850b9fa0;
_Z22convert_uint16_sat_rtpDv16_m=0x85127fe0;
_Z22convert_uint16_sat_rtpDv16_s=0x851cf340;
_Z22convert_uint16_sat_rtpDv16_t=0x85266f80;
_Z22convert_uint16_sat_rtzDv16_c=0x851b66c0;
_Z22convert_uint16_sat_rtzDv16_d=0x8515f780;
_Z22convert_uint16_sat_rtzDv16_f=0x851e8180;
_Z22convert_uint16_sat_rtzDv16_h=0x8524d700;
_Z22convert_uint16_sat_rtzDv16_i=0x851cf4c0;
_Z22convert_uint16_sat_rtzDv16_j=0x852b4880;
_Z22convert_uint16_sat_rtzDv16_l=0x850ba440;
_Z22convert_uint16_sat_rtzDv16_m=0x851282c0;
_Z22convert_uint16_sat_rtzDv16_s=0x851cf640;
_Z22convert_uint16_sat_rtzDv16_t=0x85267040;
_Z22convert_ulong2_sat_rteDv2_c=0x852cb480;
_Z22convert_ulong2_sat_rteDv2_d=0x85218640;
_Z22convert_ulong2_sat_rteDv2_f=0x8522e1a0;
_Z22convert_ulong2_sat_rteDv2_h=0x852e5c20;
_Z22convert_ulong2_sat_rteDv2_i=0x852cb4c0;
_Z22convert_ulong2_sat_rteDv2_j=0x852e5c40;
_Z22convert_ulong2_sat_rteDv2_l=0x852cb500;
_Z22convert_ulong2_sat_rteDv2_m=0x852e5c60;
_Z22convert_ulong2_sat_rteDv2_s=0x852cb540;
_Z22convert_ulong2_sat_rteDv2_t=0x852e5c80;
_Z22convert_ulong2_sat_rtnDv2_c=0x852cb580;
_Z22convert_ulong2_sat_rtnDv2_d=0x85218760;
_Z22convert_ulong2_sat_rtnDv2_f=0x8522e2a0;
_Z22convert_ulong2_sat_rtnDv2_h=0x852e5ca0;
_Z22convert_ulong2_sat_rtnDv2_i=0x852cb5c0;
_Z22convert_ulong2_sat_rtnDv2_j=0x852e5cc0;
_Z22convert_ulong2_sat_rtnDv2_l=0x852cb600;
_Z22convert_ulong2_sat_rtnDv2_m=0x852e5ce0;
_Z22convert_ulong2_sat_rtnDv2_s=0x852cb640;
_Z22convert_ulong2_sat_rtnDv2_t=0x852e5d00;
_Z22convert_ulong2_sat_rtpDv2_c=0x852cb680;
_Z22convert_ulong2_sat_rtpDv2_d=0x85218880;
_Z22convert_ulong2_sat_rtpDv2_f=0x8522e3a0;
_Z22convert_ulong2_sat_rtpDv2_h=0x852e5d20;
_Z22convert_ulong2_sat_rtpDv2_i=0x852cb6c0;
_Z22convert_ulong2_sat_rtpDv2_j=0x852e5d40;
_Z22convert_ulong2_sat_rtpDv2_l=0x852cb700;
_Z22convert_ulong2_sat_rtpDv2_m=0x852e5d60;
_Z22convert_ulong2_sat_rtpDv2_s=0x852cb740;
_Z22convert_ulong2_sat_rtpDv2_t=0x852e5d80;
_Z22convert_ulong2_sat_rtzDv2_c=0x852cb780;
_Z22convert_ulong2_sat_rtzDv2_d=0x852189a0;
_Z22convert_ulong2_sat_rtzDv2_f=0x8522e4a0;
_Z22convert_ulong2_sat_rtzDv2_h=0x852e5da0;
_Z22convert_ulong2_sat_rtzDv2_i=0x852cb7c0;
_Z22convert_ulong2_sat_rtzDv2_j=0x852e5dc0;
_Z22convert_ulong2_sat_rtzDv2_l=0x852cb800;
_Z22convert_ulong2_sat_rtzDv2_m=0x852e5de0;
_Z22convert_ulong2_sat_rtzDv2_s=0x852cb840;
_Z22convert_ulong2_sat_rtzDv2_t=0x852e5e00;
_Z22convert_ulong3_sat_rteDv3_c=0x8527c160;
_Z22convert_ulong3_sat_rteDv3_d=0x8518b960;
_Z22convert_ulong3_sat_rteDv3_f=0x851a39e0;
_Z22convert_ulong3_sat_rteDv3_h=0x852976a0;
_Z22convert_ulong3_sat_rteDv3_i=0x85297720;
_Z22convert_ulong3_sat_rteDv3_j=0x852b48e0;
_Z22convert_ulong3_sat_rteDv3_l=0x852977a0;
_Z22convert_ulong3_sat_rteDv3_m=0x852b4940;
_Z22convert_ulong3_sat_rteDv3_s=0x85297820;
_Z22convert_ulong3_sat_rteDv3_t=0x852b49a0;
_Z22convert_ulong3_sat_rtnDv3_c=0x8527c200;
_Z22convert_ulong3_sat_rtnDv3_d=0x8518bb40;
_Z22convert_ulong3_sat_rtnDv3_f=0x851a3ba0;
_Z22convert_ulong3_sat_rtnDv3_h=0x852978a0;
_Z22convert_ulong3_sat_rtnDv3_i=0x85297920;
_Z22convert_ulong3_sat_rtnDv3_j=0x852b4a00;
_Z22convert_ulong3_sat_rtnDv3_l=0x852979a0;
_Z22convert_ulong3_sat_rtnDv3_m=0x852b4a60;
_Z22convert_ulong3_sat_rtnDv3_s=0x85297a20;
_Z22convert_ulong3_sat_rtnDv3_t=0x852b4ac0;
_Z22convert_ulong3_sat_rtpDv3_c=0x8527c2a0;
_Z22convert_ulong3_sat_rtpDv3_d=0x8518bd20;
_Z22convert_ulong3_sat_rtpDv3_f=0x851a3d60;
_Z22convert_ulong3_sat_rtpDv3_h=0x85297aa0;
_Z22convert_ulong3_sat_rtpDv3_i=0x85297b20;
_Z22convert_ulong3_sat_rtpDv3_j=0x852b4b20;
_Z22convert_ulong3_sat_rtpDv3_l=0x85297ba0;
_Z22convert_ulong3_sat_rtpDv3_m=0x852b4b80;
_Z22convert_ulong3_sat_rtpDv3_s=0x85297c20;
_Z22convert_ulong3_sat_rtpDv3_t=0x852b4be0;
_Z22convert_ulong3_sat_rtzDv3_c=0x8527c340;
_Z22convert_ulong3_sat_rtzDv3_d=0x8517aba0;
_Z22convert_ulong3_sat_rtzDv3_f=0x851b6860;
_Z22convert_ulong3_sat_rtzDv3_h=0x85297ca0;
_Z22convert_ulong3_sat_rtzDv3_i=0x85297d20;
_Z22convert_ulong3_sat_rtzDv3_j=0x852b4c40;
_Z22convert_ulong3_sat_rtzDv3_l=0x85297da0;
_Z22convert_ulong3_sat_rtzDv3_m=0x852b4ca0;
_Z22convert_ulong3_sat_rtzDv3_s=0x85297e20;
_Z22convert_ulong3_sat_rtzDv3_t=0x852b4d00;
_Z22convert_ulong4_sat_rteDv4_c=0x85267100;
_Z22convert_ulong4_sat_rteDv4_d=0x85134040;
_Z22convert_ulong4_sat_rteDv4_f=0x8515f9c0;
_Z22convert_ulong4_sat_rteDv4_h=0x85297ea0;
_Z22convert_ulong4_sat_rteDv4_i=0x8527c3e0;
_Z22convert_ulong4_sat_rteDv4_j=0x85297f20;
_Z22convert_ulong4_sat_rteDv4_l=0x852671c0;
_Z22convert_ulong4_sat_rteDv4_m=0x852b4d60;
_Z22convert_ulong4_sat_rteDv4_s=0x85267280;
_Z22convert_ulong4_sat_rteDv4_t=0x85297fa0;
_Z22convert_ulong4_sat_rtnDv4_c=0x85267340;
_Z22convert_ulong4_sat_rtnDv4_d=0x85134300;
_Z22convert_ulong4_sat_rtnDv4_f=0x8515fc00;
_Z22convert_ulong4_sat_rtnDv4_h=0x85298020;
_Z22convert_ulong4_sat_rtnDv4_i=0x8527c480;
_Z22convert_ulong4_sat_rtnDv4_j=0x852980a0;
_Z22convert_ulong4_sat_rtnDv4_l=0x85267400;
_Z22convert_ulong4_sat_rtnDv4_m=0x852b4dc0;
_Z22convert_ulong4_sat_rtnDv4_s=0x852674c0;
_Z22convert_ulong4_sat_rtnDv4_t=0x85298120;
_Z22convert_ulong4_sat_rtpDv4_c=0x85267580;
_Z22convert_ulong4_sat_rtpDv4_d=0x851345c0;
_Z22convert_ulong4_sat_rtpDv4_f=0x8515fe40;
_Z22convert_ulong4_sat_rtpDv4_h=0x852981a0;
_Z22convert_ulong4_sat_rtpDv4_i=0x8527c520;
_Z22convert_ulong4_sat_rtpDv4_j=0x85298220;
_Z22convert_ulong4_sat_rtpDv4_l=0x85267640;
_Z22convert_ulong4_sat_rtpDv4_m=0x852b4e20;
_Z22convert_ulong4_sat_rtpDv4_s=0x85267700;
_Z22convert_ulong4_sat_rtpDv4_t=0x852982a0;
_Z22convert_ulong4_sat_rtzDv4_c=0x852677c0;
_Z22convert_ulong4_sat_rtzDv4_d=0x85146100;
_Z22convert_ulong4_sat_rtzDv4_f=0x8516f200;
_Z22convert_ulong4_sat_rtzDv4_h=0x85298320;
_Z22convert_ulong4_sat_rtzDv4_i=0x8527c5c0;
_Z22convert_ulong4_sat_rtzDv4_j=0x852983a0;
_Z22convert_ulong4_sat_rtzDv4_l=0x85267880;
_Z22convert_ulong4_sat_rtzDv4_m=0x852b4e80;
_Z22convert_ulong4_sat_rtzDv4_s=0x85267940;
_Z22convert_ulong4_sat_rtzDv4_t=0x85298420;
_Z22convert_ulong8_sat_rteDv8_c=0x851e82e0;
_Z22convert_ulong8_sat_rteDv8_d=0x851e8440;
_Z22convert_ulong8_sat_rteDv8_f=0x8524d7e0;
_Z22convert_ulong8_sat_rteDv8_h=0x8524d8c0;
_Z22convert_ulong8_sat_rteDv8_i=0x85200700;
_Z22convert_ulong8_sat_rteDv8_j=0x8524d9a0;
_Z22convert_ulong8_sat_rteDv8_l=0x85218ac0;
_Z22convert_ulong8_sat_rteDv8_m=0x852b4ee0;
_Z22convert_ulong8_sat_rteDv8_s=0x85200840;
_Z22convert_ulong8_sat_rteDv8_t=0x85267a00;
_Z22convert_ulong8_sat_rtnDv8_c=0x851e85a0;
_Z22convert_ulong8_sat_rtnDv8_d=0x851e8700;
_Z22convert_ulong8_sat_rtnDv8_f=0x8524da80;
_Z22convert_ulong8_sat_rtnDv8_h=0x8524db60;
_Z22convert_ulong8_sat_rtnDv8_i=0x85200980;
_Z22convert_ulong8_sat_rtnDv8_j=0x8524dc40;
_Z22convert_ulong8_sat_rtnDv8_l=0x85218be0;
_Z22convert_ulong8_sat_rtnDv8_m=0x852b4f40;
_Z22convert_ulong8_sat_rtnDv8_s=0x85200ac0;
_Z22convert_ulong8_sat_rtnDv8_t=0x85267ac0;
_Z22convert_ulong8_sat_rtpDv8_c=0x851e8860;
_Z22convert_ulong8_sat_rtpDv8_d=0x851e89c0;
_Z22convert_ulong8_sat_rtpDv8_f=0x8524dd20;
_Z22convert_ulong8_sat_rtpDv8_h=0x8524de00;
_Z22convert_ulong8_sat_rtpDv8_i=0x85200c00;
_Z22convert_ulong8_sat_rtpDv8_j=0x8524dee0;
_Z22convert_ulong8_sat_rtpDv8_l=0x85218d00;
_Z22convert_ulong8_sat_rtpDv8_m=0x852b4fa0;
_Z22convert_ulong8_sat_rtpDv8_s=0x85200d40;
_Z22convert_ulong8_sat_rtpDv8_t=0x85267b80;
_Z22convert_ulong8_sat_rtzDv8_c=0x851e8b20;
_Z22convert_ulong8_sat_rtzDv8_d=0x851e8c80;
_Z22convert_ulong8_sat_rtzDv8_f=0x8524dfc0;
_Z22convert_ulong8_sat_rtzDv8_h=0x8524e0a0;
_Z22convert_ulong8_sat_rtzDv8_i=0x85200e80;
_Z22convert_ulong8_sat_rtzDv8_j=0x8524e180;
_Z22convert_ulong8_sat_rtzDv8_l=0x85218e20;
_Z22convert_ulong8_sat_rtzDv8_m=0x852b5000;
_Z22convert_ulong8_sat_rtzDv8_s=0x85200fc0;
_Z22convert_ulong8_sat_rtzDv8_t=0x85267c40;
_Z22convert_ushort_sat_rtec=0x852e5e20;
_Z22convert_ushort_sat_rted=0x852984a0;
_Z22convert_ushort_sat_rtef=0x852b5060;
_Z22convert_ushort_sat_rteh=0x852e5e40;
_Z22convert_ushort_sat_rtei=0x852cb880;
_Z22convert_ushort_sat_rtej=0x852e5e60;
_Z22convert_ushort_sat_rtel=0x852cb8c0;
_Z22convert_ushort_sat_rtem=0x852cb900;
_Z22convert_ushort_sat_rtes=0x852e5e80;
_Z22convert_ushort_sat_rtet=0x852e5ea0;
_Z22convert_ushort_sat_rtnc=0x852e5ec0;
_Z22convert_ushort_sat_rtnd=0x85298520;
_Z22convert_ushort_sat_rtnf=0x852b50c0;
_Z22convert_ushort_sat_rtnh=0x852e5ee0;
_Z22convert_ushort_sat_rtni=0x852cb940;
_Z22convert_ushort_sat_rtnj=0x852e5f00;
_Z22convert_ushort_sat_rtnl=0x852cb980;
_Z22convert_ushort_sat_rtnm=0x852cb9c0;
_Z22convert_ushort_sat_rtns=0x852e5f20;
_Z22convert_ushort_sat_rtnt=0x852e5f40;
_Z22convert_ushort_sat_rtpc=0x852e5f60;
_Z22convert_ushort_sat_rtpd=0x852985a0;
_Z22convert_ushort_sat_rtpf=0x852b5120;
_Z22convert_ushort_sat_rtph=0x852e5f80;
_Z22convert_ushort_sat_rtpi=0x852cba00;
_Z22convert_ushort_sat_rtpj=0x852e5fa0;
_Z22convert_ushort_sat_rtpl=0x852cba40;
_Z22convert_ushort_sat_rtpm=0x852cba80;
_Z22convert_ushort_sat_rtps=0x852e5fc0;
_Z22convert_ushort_sat_rtpt=0x852e5fe0;
_Z22convert_ushort_sat_rtzc=0x852e6000;
_Z22convert_ushort_sat_rtzd=0x852b5180;
_Z22convert_ushort_sat_rtzf=0x852b51e0;
_Z22convert_ushort_sat_rtzh=0x852e6020;
_Z22convert_ushort_sat_rtzi=0x852cbac0;
_Z22convert_ushort_sat_rtzj=0x852e6040;
_Z22convert_ushort_sat_rtzl=0x852cbb00;
_Z22convert_ushort_sat_rtzm=0x852cbb40;
_Z22convert_ushort_sat_rtzs=0x852e6060;
_Z22convert_ushort_sat_rtzt=0x852e6080;
_Z23convert_short16_sat_rteDv16_c=0x8524e260;
_Z23convert_short16_sat_rteDv16_d=0x85160080;
_Z23convert_short16_sat_rteDv16_f=0x85201100;
_Z23convert_short16_sat_rteDv16_h=0x8524e340;
_Z23convert_short16_sat_rteDv16_i=0x85101180;
_Z23convert_short16_sat_rteDv16_j=0x851e8de0;
_Z23convert_short16_sat_rteDv16_l=0x8506e420;
_Z23convert_short16_sat_rteDv16_m=0x8510ccc0;
_Z23convert_short16_sat_rteDv16_s=0x852b5240;
_Z23convert_short16_sat_rteDv16_t=0x851cf7c0;
_Z23convert_short16_sat_rtnDv16_c=0x8524e420;
_Z23convert_short16_sat_rtnDv16_d=0x851602c0;
_Z23convert_short16_sat_rtnDv16_f=0x85201240;
_Z23convert_short16_sat_rtnDv16_h=0x8524e500;
_Z23convert_short16_sat_rtnDv16_i=0x851014e0;
_Z23convert_short16_sat_rtnDv16_j=0x851e8f40;
_Z23convert_short16_sat_rtnDv16_l=0x8506ebc0;
_Z23convert_short16_sat_rtnDv16_m=0x8510d000;
_Z23convert_short16_sat_rtnDv16_s=0x852b52a0;
_Z23convert_short16_sat_rtnDv16_t=0x851cf940;
_Z23convert_short16_sat_rtpDv16_c=0x8524e5e0;
_Z23convert_short16_sat_rtpDv16_d=0x85160500;
_Z23convert_short16_sat_rtpDv16_f=0x85201380;
_Z23convert_short16_sat_rtpDv16_h=0x8524e6c0;
_Z23convert_short16_sat_rtpDv16_i=0x85101840;
_Z23convert_short16_sat_rtpDv16_j=0x851e90a0;
_Z23convert_short16_sat_rtpDv16_l=0x8506f360;
_Z23convert_short16_sat_rtpDv16_m=0x8510d340;
_Z23convert_short16_sat_rtpDv16_s=0x852b5300;
_Z23convert_short16_sat_rtpDv16_t=0x851cfac0;
_Z23convert_short16_sat_rtzDv16_c=0x8524e7a0;
_Z23convert_short16_sat_rtzDv16_d=0x85160740;
_Z23convert_short16_sat_rtzDv16_f=0x852014c0;
_Z23convert_short16_sat_rtzDv16_h=0x8524e880;
_Z23convert_short16_sat_rtzDv16_i=0x85101ba0;
_Z23convert_short16_sat_rtzDv16_j=0x851e9200;
_Z23convert_short16_sat_rtzDv16_l=0x8506fb00;
_Z23convert_short16_sat_rtzDv16_m=0x8510d680;
_Z23convert_short16_sat_rtzDv16_s=0x852b5360;
_Z23convert_short16_sat_rtzDv16_t=0x851cfc40;
_Z23convert_uchar16_sat_rteDv16_c=0x851cfdc0;
_Z23convert_uchar16_sat_rteDv16_d=0x851e9360;
_Z23convert_uchar16_sat_rteDv16_f=0x85267d00;
_Z23convert_uchar16_sat_rteDv16_h=0x852e60a0;
_Z23convert_uchar16_sat_rteDv16_i=0x85134880;
_Z23convert_uchar16_sat_rteDv16_j=0x851e94c0;
_Z23convert_uchar16_sat_rteDv16_l=0x850a8560;
_Z23convert_uchar16_sat_rteDv16_m=0x8513bb00;
_Z23convert_uchar16_sat_rteDv16_s=0x851285a0;
_Z23convert_uchar16_sat_rteDv16_t=0x851a3f20;
_Z23convert_uchar16_sat_rtnDv16_c=0x851cff40;
_Z23convert_uchar16_sat_rtnDv16_d=0x851e9620;
_Z23convert_uchar16_sat_rtnDv16_f=0x85267dc0;
_Z23convert_uchar16_sat_rtnDv16_h=0x852e60c0;
_Z23convert_uchar16_sat_rtnDv16_i=0x85134b40;
_Z23convert_uchar16_sat_rtnDv16_j=0x851e9780;
_Z23convert_uchar16_sat_rtnDv16_l=0x850a8a40;
_Z23convert_uchar16_sat_rtnDv16_m=0x8513bda0;
_Z23convert_uchar16_sat_rtnDv16_s=0x85128880;
_Z23convert_uchar16_sat_rtnDv16_t=0x851a40e0;
_Z23convert_uchar16_sat_rtpDv16_c=0x851d00c0;
_Z23convert_uchar16_sat_rtpDv16_d=0x851e98e0;
_Z23convert_uchar16_sat_rtpDv16_f=0x85267e80;
_Z23convert_uchar16_sat_rtpDv16_h=0x852e60e0;
_Z23convert_uchar16_sat_rtpDv16_i=0x85134e00;
_Z23convert_uchar16_sat_rtpDv16_j=0x851e9a40;
_Z23convert_uchar16_sat_rtpDv16_l=0x850a8f20;
_Z23convert_uchar16_sat_rtpDv16_m=0x8513c040;
_Z23convert_uchar16_sat_rtpDv16_s=0x85128b60;
_Z23convert_uchar16_sat_rtpDv16_t=0x851a42a0;
_Z23convert_uchar16_sat_rtzDv16_c=0x851d0240;
_Z23convert_uchar16_sat_rtzDv16_d=0x851e9ba0;
_Z23convert_uchar16_sat_rtzDv16_f=0x85267f40;
_Z23convert_uchar16_sat_rtzDv16_h=0x852e6100;
_Z23convert_uchar16_sat_rtzDv16_i=0x851350c0;
_Z23convert_uchar16_sat_rtzDv16_j=0x851e9d00;
_Z23convert_uchar16_sat_rtzDv16_l=0x850a9400;
_Z23convert_uchar16_sat_rtzDv16_m=0x8513c2e0;
_Z23convert_uchar16_sat_rtzDv16_s=0x85128e40;
_Z23convert_uchar16_sat_rtzDv16_t=0x851a4460;
_Z23convert_ulong16_sat_rteDv16_c=0x8511c520;
_Z23convert_ulong16_sat_rteDv16_d=0x8513c580;
_Z23convert_ulong16_sat_rteDv16_f=0x851a4620;
_Z23convert_ulong16_sat_rteDv16_h=0x851a47e0;
_Z23convert_ulong16_sat_rteDv16_i=0x85135380;
_Z23convert_ulong16_sat_rteDv16_j=0x851d03c0;
_Z23convert_ulong16_sat_rteDv16_l=0x8510d9c0;
_Z23convert_ulong16_sat_rteDv16_m=0x852b53c0;
_Z23convert_ulong16_sat_rteDv16_s=0x8513c820;
_Z23convert_ulong16_sat_rteDv16_t=0x851e9e60;
_Z23convert_ulong16_sat_rtnDv16_c=0x8511c820;
_Z23convert_ulong16_sat_rtnDv16_d=0x8513cac0;
_Z23convert_ulong16_sat_rtnDv16_f=0x851a49a0;
_Z23convert_ulong16_sat_rtnDv16_h=0x851a4b60;
_Z23convert_ulong16_sat_rtnDv16_i=0x85135640;
_Z23convert_ulong16_sat_rtnDv16_j=0x851d0540;
_Z23convert_ulong16_sat_rtnDv16_l=0x8510dd00;
_Z23convert_ulong16_sat_rtnDv16_m=0x852b5420;
_Z23convert_ulong16_sat_rtnDv16_s=0x8513cd60;
_Z23convert_ulong16_sat_rtnDv16_t=0x851e9fc0;
_Z23convert_ulong16_sat_rtpDv16_c=0x8511cb20;
_Z23convert_ulong16_sat_rtpDv16_d=0x8513d000;
_Z23convert_ulong16_sat_rtpDv16_f=0x851a4d20;
_Z23convert_ulong16_sat_rtpDv16_h=0x851a4ee0;
_Z23convert_ulong16_sat_rtpDv16_i=0x85135900;
_Z23convert_ulong16_sat_rtpDv16_j=0x851d06c0;
_Z23convert_ulong16_sat_rtpDv16_l=0x8510e040;
_Z23convert_ulong16_sat_rtpDv16_m=0x852b5480;
_Z23convert_ulong16_sat_rtpDv16_s=0x8513d2a0;
_Z23convert_ulong16_sat_rtpDv16_t=0x851ea120;
_Z23convert_ulong16_sat_rtzDv16_c=0x8511ce20;
_Z23convert_ulong16_sat_rtzDv16_d=0x8513d540;
_Z23convert_ulong16_sat_rtzDv16_f=0x851a50a0;
_Z23convert_ulong16_sat_rtzDv16_h=0x851a5260;
_Z23convert_ulong16_sat_rtzDv16_i=0x85135bc0;
_Z23convert_ulong16_sat_rtzDv16_j=0x851d0840;
_Z23convert_ulong16_sat_rtzDv16_l=0x8510e380;
_Z23convert_ulong16_sat_rtzDv16_m=0x852b54e0;
_Z23convert_ulong16_sat_rtzDv16_s=0x8513d7e0;
_Z23convert_ulong16_sat_rtzDv16_t=0x851ea280;
_Z23convert_ushort2_sat_rteDv2_c=0x852cbb80;
_Z23convert_ushort2_sat_rteDv2_d=0x8524e960;
_Z23convert_ushort2_sat_rteDv2_f=0x85268000;
_Z23convert_ushort2_sat_rteDv2_h=0x852e6120;
_Z23convert_ushort2_sat_rteDv2_i=0x852cbbc0;
_Z23convert_ushort2_sat_rteDv2_j=0x852cbc00;
_Z23convert_ushort2_sat_rteDv2_l=0x852b5540;
_Z23convert_ushort2_sat_rteDv2_m=0x852cbc40;
_Z23convert_ushort2_sat_rteDv2_s=0x852cbc80;
_Z23convert_ushort2_sat_rteDv2_t=0x852e6140;
_Z23convert_ushort2_sat_rtnDv2_c=0x852cbcc0;
_Z23convert_ushort2_sat_rtnDv2_d=0x8524ea40;
_Z23convert_ushort2_sat_rtnDv2_f=0x852680c0;
_Z23convert_ushort2_sat_rtnDv2_h=0x852e6160;
_Z23convert_ushort2_sat_rtnDv2_i=0x852cbd00;
_Z23convert_ushort2_sat_rtnDv2_j=0x852cbd40;
_Z23convert_ushort2_sat_rtnDv2_l=0x852b55a0;
_Z23convert_ushort2_sat_rtnDv2_m=0x852cbd80;
_Z23convert_ushort2_sat_rtnDv2_s=0x852cbdc0;
_Z23convert_ushort2_sat_rtnDv2_t=0x852e6180;
_Z23convert_ushort2_sat_rtpDv2_c=0x852cbe00;
_Z23convert_ushort2_sat_rtpDv2_d=0x8524eb20;
_Z23convert_ushort2_sat_rtpDv2_f=0x85268180;
_Z23convert_ushort2_sat_rtpDv2_h=0x852e61a0;
_Z23convert_ushort2_sat_rtpDv2_i=0x852cbe40;
_Z23convert_ushort2_sat_rtpDv2_j=0x852cbe80;
_Z23convert_ushort2_sat_rtpDv2_l=0x852b5600;
_Z23convert_ushort2_sat_rtpDv2_m=0x852cbec0;
_Z23convert_ushort2_sat_rtpDv2_s=0x852cbf00;
_Z23convert_ushort2_sat_rtpDv2_t=0x852e61c0;
_Z23convert_ushort2_sat_rtzDv2_c=0x852cbf40;
_Z23convert_ushort2_sat_rtzDv2_d=0x85268240;
_Z23convert_ushort2_sat_rtzDv2_f=0x8527c660;
_Z23convert_ushort2_sat_rtzDv2_h=0x852e61e0;
_Z23convert_ushort2_sat_rtzDv2_i=0x852cbf80;
_Z23convert_ushort2_sat_rtzDv2_j=0x852cbfc0;
_Z23convert_ushort2_sat_rtzDv2_l=0x852b5660;
_Z23convert_ushort2_sat_rtzDv2_m=0x852cc000;
_Z23convert_ushort2_sat_rtzDv2_s=0x852cc040;
_Z23convert_ushort2_sat_rtzDv2_t=0x852e6200;
_Z23convert_ushort3_sat_rteDv3_c=0x852cc080;
_Z23convert_ushort3_sat_rteDv3_d=0x85201600;
_Z23convert_ushort3_sat_rteDv3_f=0x85218f40;
_Z23convert_ushort3_sat_rteDv3_h=0x852e6220;
_Z23convert_ushort3_sat_rteDv3_i=0x852b56c0;
_Z23convert_ushort3_sat_rteDv3_j=0x852cc0c0;
_Z23convert_ushort3_sat_rteDv3_l=0x85268300;
_Z23convert_ushort3_sat_rteDv3_m=0x8527c700;
_Z23convert_ushort3_sat_rteDv3_s=0x852cc100;
_Z23convert_ushort3_sat_rteDv3_t=0x852e6240;
_Z23convert_ushort3_sat_rtnDv3_c=0x852cc140;
_Z23convert_ushort3_sat_rtnDv3_d=0x85201740;
_Z23convert_ushort3_sat_rtnDv3_f=0x85219060;
_Z23convert_ushort3_sat_rtnDv3_h=0x852e6260;
_Z23convert_ushort3_sat_rtnDv3_i=0x852b5720;
_Z23convert_ushort3_sat_rtnDv3_j=0x852cc180;
_Z23convert_ushort3_sat_rtnDv3_l=0x852683c0;
_Z23convert_ushort3_sat_rtnDv3_m=0x8527c7a0;
_Z23convert_ushort3_sat_rtnDv3_s=0x852cc1c0;
_Z23convert_ushort3_sat_rtnDv3_t=0x852e6280;
_Z23convert_ushort3_sat_rtpDv3_c=0x852cc200;
_Z23convert_ushort3_sat_rtpDv3_d=0x85201880;
_Z23convert_ushort3_sat_rtpDv3_f=0x85219180;
_Z23convert_ushort3_sat_rtpDv3_h=0x852e62a0;
_Z23convert_ushort3_sat_rtpDv3_i=0x852b5780;
_Z23convert_ushort3_sat_rtpDv3_j=0x852cc240;
_Z23convert_ushort3_sat_rtpDv3_l=0x85268480;
_Z23convert_ushort3_sat_rtpDv3_m=0x8527c840;
_Z23convert_ushort3_sat_rtpDv3_s=0x852cc280;
_Z23convert_ushort3_sat_rtpDv3_t=0x852e62c0;
_Z23convert_ushort3_sat_rtzDv3_c=0x852cc2c0;
_Z23convert_ushort3_sat_rtzDv3_d=0x852019c0;
_Z23convert_ushort3_sat_rtzDv3_f=0x8522e5a0;
_Z23convert_ushort3_sat_rtzDv3_h=0x852e62e0;
_Z23convert_ushort3_sat_rtzDv3_i=0x852b57e0;
_Z23convert_ushort3_sat_rtzDv3_j=0x852cc300;
_Z23convert_ushort3_sat_rtzDv3_l=0x85268540;
_Z23convert_ushort3_sat_rtzDv3_m=0x8527c8e0;
_Z23convert_ushort3_sat_rtzDv3_s=0x852cc340;
_Z23convert_ushort3_sat_rtzDv3_t=0x852e6300;
_Z23convert_ushort4_sat_rteDv4_c=0x852b5840;
_Z23convert_ushort4_sat_rteDv4_d=0x851d09c0;
_Z23convert_ushort4_sat_rteDv4_f=0x85201b00;
_Z23convert_ushort4_sat_rteDv4_h=0x852e6320;
_Z23convert_ushort4_sat_rteDv4_i=0x85298620;
_Z23convert_ushort4_sat_rteDv4_j=0x852cc380;
_Z23convert_ushort4_sat_rteDv4_l=0x8522e6a0;
_Z23convert_ushort4_sat_rteDv4_m=0x85268600;
_Z23convert_ushort4_sat_rteDv4_s=0x852b58a0;
_Z23convert_ushort4_sat_rteDv4_t=0x852e6340;
_Z23convert_ushort4_sat_rtnDv4_c=0x852b5900;
_Z23convert_ushort4_sat_rtnDv4_d=0x851d0b40;
_Z23convert_ushort4_sat_rtnDv4_f=0x85201c40;
_Z23convert_ushort4_sat_rtnDv4_h=0x852e6360;
_Z23convert_ushort4_sat_rtnDv4_i=0x852986a0;
_Z23convert_ushort4_sat_rtnDv4_j=0x852cc3c0;
_Z23convert_ushort4_sat_rtnDv4_l=0x8522e7a0;
_Z23convert_ushort4_sat_rtnDv4_m=0x852686c0;
_Z23convert_ushort4_sat_rtnDv4_s=0x852b5960;
_Z23convert_ushort4_sat_rtnDv4_t=0x852e6380;
_Z23convert_ushort4_sat_rtpDv4_c=0x852b59c0;
_Z23convert_ushort4_sat_rtpDv4_d=0x851d0cc0;
_Z23convert_ushort4_sat_rtpDv4_f=0x85201d80;
_Z23convert_ushort4_sat_rtpDv4_h=0x852e63a0;
_Z23convert_ushort4_sat_rtpDv4_i=0x85298720;
_Z23convert_ushort4_sat_rtpDv4_j=0x852cc400;
_Z23convert_ushort4_sat_rtpDv4_l=0x8522e8a0;
_Z23convert_ushort4_sat_rtpDv4_m=0x85268780;
_Z23convert_ushort4_sat_rtpDv4_s=0x852b5a20;
_Z23convert_ushort4_sat_rtpDv4_t=0x852e63c0;
_Z23convert_ushort4_sat_rtzDv4_c=0x852b5a80;
_Z23convert_ushort4_sat_rtzDv4_d=0x851d0e40;
_Z23convert_ushort4_sat_rtzDv4_f=0x852192a0;
_Z23convert_ushort4_sat_rtzDv4_h=0x852e63e0;
_Z23convert_ushort4_sat_rtzDv4_i=0x852987a0;
_Z23convert_ushort4_sat_rtzDv4_j=0x852cc440;
_Z23convert_ushort4_sat_rtzDv4_l=0x8522e9a0;
_Z23convert_ushort4_sat_rtzDv4_m=0x85268840;
_Z23convert_ushort4_sat_rtzDv4_s=0x852b5ae0;
_Z23convert_ushort4_sat_rtzDv4_t=0x852e6400;
_Z23convert_ushort8_sat_rteDv8_c=0x85268900;
_Z23convert_ushort8_sat_rteDv8_d=0x852689c0;
_Z23convert_ushort8_sat_rteDv8_f=0x852b5b40;
_Z23convert_ushort8_sat_rteDv8_h=0x852b5ba0;
_Z23convert_ushort8_sat_rteDv8_i=0x852193c0;
_Z23convert_ushort8_sat_rteDv8_j=0x8527c980;
_Z23convert_ushort8_sat_rteDv8_l=0x8517ada0;
_Z23convert_ushort8_sat_rteDv8_m=0x85201ec0;
_Z23convert_ushort8_sat_rteDv8_s=0x8527ca20;
_Z23convert_ushort8_sat_rteDv8_t=0x852e6420;
_Z23convert_ushort8_sat_rtnDv8_c=0x85268a80;
_Z23convert_ushort8_sat_rtnDv8_d=0x85268b40;
_Z23convert_ushort8_sat_rtnDv8_f=0x852b5c00;
_Z23convert_ushort8_sat_rtnDv8_h=0x852b5c60;
_Z23convert_ushort8_sat_rtnDv8_i=0x852194e0;
_Z23convert_ushort8_sat_rtnDv8_j=0x8527cac0;
_Z23convert_ushort8_sat_rtnDv8_l=0x8517afa0;
_Z23convert_ushort8_sat_rtnDv8_m=0x85202000;
_Z23convert_ushort8_sat_rtnDv8_s=0x8527cb60;
_Z23convert_ushort8_sat_rtnDv8_t=0x852e6440;
_Z23convert_ushort8_sat_rtpDv8_c=0x85268c00;
_Z23convert_ushort8_sat_rtpDv8_d=0x85268cc0;
_Z23convert_ushort8_sat_rtpDv8_f=0x852b5cc0;
_Z23convert_ushort8_sat_rtpDv8_h=0x852b5d20;
_Z23convert_ushort8_sat_rtpDv8_i=0x85219600;
_Z23convert_ushort8_sat_rtpDv8_j=0x8527cc00;
_Z23convert_ushort8_sat_rtpDv8_l=0x8517b1a0;
_Z23convert_ushort8_sat_rtpDv8_m=0x85202140;
_Z23convert_ushort8_sat_rtpDv8_s=0x8527cca0;
_Z23convert_ushort8_sat_rtpDv8_t=0x852e6460;
_Z23convert_ushort8_sat_rtzDv8_c=0x85268d80;
_Z23convert_ushort8_sat_rtzDv8_d=0x85268e40;
_Z23convert_ushort8_sat_rtzDv8_f=0x852b5d80;
_Z23convert_ushort8_sat_rtzDv8_h=0x852b5de0;
_Z23convert_ushort8_sat_rtzDv8_i=0x85219720;
_Z23convert_ushort8_sat_rtzDv8_j=0x8527cd40;
_Z23convert_ushort8_sat_rtzDv8_l=0x8517b3a0;
_Z23convert_ushort8_sat_rtzDv8_m=0x85202280;
_Z23convert_ushort8_sat_rtzDv8_s=0x8527cde0;
_Z23convert_ushort8_sat_rtzDv8_t=0x852e6480;
_Z24convert_ushort16_sat_rteDv16_c=0x851b6a00;
_Z24convert_ushort16_sat_rteDv16_d=0x85160980;
_Z24convert_ushort16_sat_rteDv16_f=0x852023c0;
_Z24convert_ushort16_sat_rteDv16_h=0x8524ec00;
_Z24convert_ushort16_sat_rteDv16_i=0x85146380;
_Z24convert_ushort16_sat_rteDv16_j=0x851d0fc0;
_Z24convert_ushort16_sat_rteDv16_l=0x850ba8e0;
_Z24convert_ushort16_sat_rteDv16_m=0x8511d120;
_Z24convert_ushort16_sat_rteDv16_s=0x851d1140;
_Z24convert_ushort16_sat_rteDv16_t=0x852b5e40;
_Z24convert_ushort16_sat_rtnDv16_c=0x851b6ba0;
_Z24convert_ushort16_sat_rtnDv16_d=0x85160bc0;
_Z24convert_ushort16_sat_rtnDv16_f=0x85202500;
_Z24convert_ushort16_sat_rtnDv16_h=0x8524ece0;
_Z24convert_ushort16_sat_rtnDv16_i=0x85146600;
_Z24convert_ushort16_sat_rtnDv16_j=0x851d12c0;
_Z24convert_ushort16_sat_rtnDv16_l=0x850bad80;
_Z24convert_ushort16_sat_rtnDv16_m=0x8511d420;
_Z24convert_ushort16_sat_rtnDv16_s=0x851d1440;
_Z24convert_ushort16_sat_rtnDv16_t=0x852b5ea0;
_Z24convert_ushort16_sat_rtpDv16_c=0x851b6d40;
_Z24convert_ushort16_sat_rtpDv16_d=0x85160e00;
_Z24convert_ushort16_sat_rtpDv16_f=0x85202640;
_Z24convert_ushort16_sat_rtpDv16_h=0x8524edc0;
_Z24convert_ushort16_sat_rtpDv16_i=0x85146880;
_Z24convert_ushort16_sat_rtpDv16_j=0x851d15c0;
_Z24convert_ushort16_sat_rtpDv16_l=0x850bb220;
_Z24convert_ushort16_sat_rtpDv16_m=0x8511d720;
_Z24convert_ushort16_sat_rtpDv16_s=0x851d1740;
_Z24convert_ushort16_sat_rtpDv16_t=0x852b5f00;
_Z24convert_ushort16_sat_rtzDv16_c=0x851b6ee0;
_Z24convert_ushort16_sat_rtzDv16_d=0x85161040;
_Z24convert_ushort16_sat_rtzDv16_f=0x85202780;
_Z24convert_ushort16_sat_rtzDv16_h=0x8524eea0;
_Z24convert_ushort16_sat_rtzDv16_i=0x85146b00;
_Z24convert_ushort16_sat_rtzDv16_j=0x851d18c0;
_Z24convert_ushort16_sat_rtzDv16_l=0x850bb6c0;
_Z24convert_ushort16_sat_rtzDv16_m=0x8511da20;
_Z24convert_ushort16_sat_rtzDv16_s=0x851d1a40;
_Z24convert_ushort16_sat_rtzDv16_t=0x852b5f60;
_Z29async_work_group_strided_copyPU7CLlocalcPKU8CLglobalcjjP11__ocl_event=0x852e6ae0;
_Z29async_work_group_strided_copyPU7CLlocaldPKU8CLglobaldjjP11__ocl_event=0x852e6b00;
_Z29async_work_group_strided_copyPU7CLlocalDv16_cPKU8CLglobalS_jjP11__ocl_event=0x852e64a0;
_Z29async_work_group_strided_copyPU7CLlocalDv16_dPKU8CLglobalS_jjP11__ocl_event=0x852e64c0;
_Z29async_work_group_strided_copyPU7CLlocalDv16_fPKU8CLglobalS_jjP11__ocl_event=0x852e64e0;
_Z29async_work_group_strided_copyPU7CLlocalDv16_hPKU8CLglobalS_jjP11__ocl_event=0x852e6500;
_Z29async_work_group_strided_copyPU7CLlocalDv16_iPKU8CLglobalS_jjP11__ocl_event=0x852e6520;
_Z29async_work_group_strided_copyPU7CLlocalDv16_jPKU8CLglobalS_jjP11__ocl_event=0x852e6540;
_Z29async_work_group_strided_copyPU7CLlocalDv16_lPKU8CLglobalS_jjP11__ocl_event=0x852e6560;
_Z29async_work_group_strided_copyPU7CLlocalDv16_mPKU8CLglobalS_jjP11__ocl_event=0x852e6580;
_Z29async_work_group_strided_copyPU7CLlocalDv16_sPKU8CLglobalS_jjP11__ocl_event=0x852e65a0;
_Z29async_work_group_strided_copyPU7CLlocalDv16_tPKU8CLglobalS_jjP11__ocl_event=0x852e65c0;
_Z29async_work_group_strided_copyPU7CLlocalDv2_cPKU8CLglobalS_jjP11__ocl_event=0x852e65e0;
_Z29async_work_group_strided_copyPU7CLlocalDv2_dPKU8CLglobalS_jjP11__ocl_event=0x852e6600;
_Z29async_work_group_strided_copyPU7CLlocalDv2_fPKU8CLglobalS_jjP11__ocl_event=0x852e6620;
_Z29async_work_group_strided_copyPU7CLlocalDv2_hPKU8CLglobalS_jjP11__ocl_event=0x852e6640;
_Z29async_work_group_strided_copyPU7CLlocalDv2_iPKU8CLglobalS_jjP11__ocl_event=0x852e6660;
_Z29async_work_group_strided_copyPU7CLlocalDv2_jPKU8CLglobalS_jjP11__ocl_event=0x852e6680;
_Z29async_work_group_strided_copyPU7CLlocalDv2_lPKU8CLglobalS_jjP11__ocl_event=0x852e66a0;
_Z29async_work_group_strided_copyPU7CLlocalDv2_mPKU8CLglobalS_jjP11__ocl_event=0x852e66c0;
_Z29async_work_group_strided_copyPU7CLlocalDv2_sPKU8CLglobalS_jjP11__ocl_event=0x852e66e0;
_Z29async_work_group_strided_copyPU7CLlocalDv2_tPKU8CLglobalS_jjP11__ocl_event=0x852e6700;
_Z29async_work_group_strided_copyPU7CLlocalDv3_cPKU8CLglobalS_jjP11__ocl_event=0x852e6720;
_Z29async_work_group_strided_copyPU7CLlocalDv3_dPKU8CLglobalS_jjP11__ocl_event=0x852e6740;
_Z29async_work_group_strided_copyPU7CLlocalDv3_fPKU8CLglobalS_jjP11__ocl_event=0x852e6760;
_Z29async_work_group_strided_copyPU7CLlocalDv3_hPKU8CLglobalS_jjP11__ocl_event=0x852e6780;
_Z29async_work_group_strided_copyPU7CLlocalDv3_iPKU8CLglobalS_jjP11__ocl_event=0x852e67a0;
_Z29async_work_group_strided_copyPU7CLlocalDv3_jPKU8CLglobalS_jjP11__ocl_event=0x852e67c0;
_Z29async_work_group_strided_copyPU7CLlocalDv3_lPKU8CLglobalS_jjP11__ocl_event=0x852e67e0;
_Z29async_work_group_strided_copyPU7CLlocalDv3_mPKU8CLglobalS_jjP11__ocl_event=0x852e6800;
_Z29async_work_group_strided_copyPU7CLlocalDv3_sPKU8CLglobalS_jjP11__ocl_event=0x852e6820;
_Z29async_work_group_strided_copyPU7CLlocalDv3_tPKU8CLglobalS_jjP11__ocl_event=0x852e6840;
_Z29async_work_group_strided_copyPU7CLlocalDv4_cPKU8CLglobalS_jjP11__ocl_event=0x852e6860;
_Z29async_work_group_strided_copyPU7CLlocalDv4_dPKU8CLglobalS_jjP11__ocl_event=0x852e6880;
_Z29async_work_group_strided_copyPU7CLlocalDv4_fPKU8CLglobalS_jjP11__ocl_event=0x852e68a0;
_Z29async_work_group_strided_copyPU7CLlocalDv4_hPKU8CLglobalS_jjP11__ocl_event=0x852e68c0;
_Z29async_work_group_strided_copyPU7CLlocalDv4_iPKU8CLglobalS_jjP11__ocl_event=0x852e68e0;
_Z29async_work_group_strided_copyPU7CLlocalDv4_jPKU8CLglobalS_jjP11__ocl_event=0x852e6900;
_Z29async_work_group_strided_copyPU7CLlocalDv4_lPKU8CLglobalS_jjP11__ocl_event=0x852e6920;
_Z29async_work_group_strided_copyPU7CLlocalDv4_mPKU8CLglobalS_jjP11__ocl_event=0x852e6940;
_Z29async_work_group_strided_copyPU7CLlocalDv4_sPKU8CLglobalS_jjP11__ocl_event=0x852e6960;
_Z29async_work_group_strided_copyPU7CLlocalDv4_tPKU8CLglobalS_jjP11__ocl_event=0x852e6980;
_Z29async_work_group_strided_copyPU7CLlocalDv8_cPKU8CLglobalS_jjP11__ocl_event=0x852e69a0;
_Z29async_work_group_strided_copyPU7CLlocalDv8_dPKU8CLglobalS_jjP11__ocl_event=0x852e69c0;
_Z29async_work_group_strided_copyPU7CLlocalDv8_fPKU8CLglobalS_jjP11__ocl_event=0x852e69e0;
_Z29async_work_group_strided_copyPU7CLlocalDv8_hPKU8CLglobalS_jjP11__ocl_event=0x852e6a00;
_Z29async_work_group_strided_copyPU7CLlocalDv8_iPKU8CLglobalS_jjP11__ocl_event=0x852e6a20;
_Z29async_work_group_strided_copyPU7CLlocalDv8_jPKU8CLglobalS_jjP11__ocl_event=0x852e6a40;
_Z29async_work_group_strided_copyPU7CLlocalDv8_lPKU8CLglobalS_jjP11__ocl_event=0x852e6a60;
_Z29async_work_group_strided_copyPU7CLlocalDv8_mPKU8CLglobalS_jjP11__ocl_event=0x852e6a80;
_Z29async_work_group_strided_copyPU7CLlocalDv8_sPKU8CLglobalS_jjP11__ocl_event=0x852e6aa0;
_Z29async_work_group_strided_copyPU7CLlocalDv8_tPKU8CLglobalS_jjP11__ocl_event=0x852e6ac0;
_Z29async_work_group_strided_copyPU7CLlocalfPKU8CLglobalfjjP11__ocl_event=0x852e6b20;
_Z29async_work_group_strided_copyPU7CLlocalhPKU8CLglobalhjjP11__ocl_event=0x852e6b40;
_Z29async_work_group_strided_copyPU7CLlocaliPKU8CLglobalijjP11__ocl_event=0x852e6b60;
_Z29async_work_group_strided_copyPU7CLlocaljPKU8CLglobaljjjP11__ocl_event=0x852e6b80;
_Z29async_work_group_strided_copyPU7CLlocallPKU8CLgloballjjP11__ocl_event=0x852e6ba0;
_Z29async_work_group_strided_copyPU7CLlocalmPKU8CLglobalmjjP11__ocl_event=0x852e6bc0;
_Z29async_work_group_strided_copyPU7CLlocalsPKU8CLglobalsjjP11__ocl_event=0x852e6be0;
_Z29async_work_group_strided_copyPU7CLlocaltPKU8CLglobaltjjP11__ocl_event=0x852e6c00;
_Z29async_work_group_strided_copyPU8CLglobalcPKU7CLlocalcjjP11__ocl_event=0x852e7260;
_Z29async_work_group_strided_copyPU8CLglobaldPKU7CLlocaldjjP11__ocl_event=0x852e7280;
_Z29async_work_group_strided_copyPU8CLglobalDv16_cPKU7CLlocalS_jjP11__ocl_event=0x852e6c20;
_Z29async_work_group_strided_copyPU8CLglobalDv16_dPKU7CLlocalS_jjP11__ocl_event=0x852e6c40;
_Z29async_work_group_strided_copyPU8CLglobalDv16_fPKU7CLlocalS_jjP11__ocl_event=0x852e6c60;
_Z29async_work_group_strided_copyPU8CLglobalDv16_hPKU7CLlocalS_jjP11__ocl_event=0x852e6c80;
_Z29async_work_group_strided_copyPU8CLglobalDv16_iPKU7CLlocalS_jjP11__ocl_event=0x852e6ca0;
_Z29async_work_group_strided_copyPU8CLglobalDv16_jPKU7CLlocalS_jjP11__ocl_event=0x852e6cc0;
_Z29async_work_group_strided_copyPU8CLglobalDv16_lPKU7CLlocalS_jjP11__ocl_event=0x852e6ce0;
_Z29async_work_group_strided_copyPU8CLglobalDv16_mPKU7CLlocalS_jjP11__ocl_event=0x852e6d00;
_Z29async_work_group_strided_copyPU8CLglobalDv16_sPKU7CLlocalS_jjP11__ocl_event=0x852e6d20;
_Z29async_work_group_strided_copyPU8CLglobalDv16_tPKU7CLlocalS_jjP11__ocl_event=0x852e6d40;
_Z29async_work_group_strided_copyPU8CLglobalDv2_cPKU7CLlocalS_jjP11__ocl_event=0x852e6d60;
_Z29async_work_group_strided_copyPU8CLglobalDv2_dPKU7CLlocalS_jjP11__ocl_event=0x852e6d80;
_Z29async_work_group_strided_copyPU8CLglobalDv2_fPKU7CLlocalS_jjP11__ocl_event=0x852e6da0;
_Z29async_work_group_strided_copyPU8CLglobalDv2_hPKU7CLlocalS_jjP11__ocl_event=0x852e6dc0;
_Z29async_work_group_strided_copyPU8CLglobalDv2_iPKU7CLlocalS_jjP11__ocl_event=0x852e6de0;
_Z29async_work_group_strided_copyPU8CLglobalDv2_jPKU7CLlocalS_jjP11__ocl_event=0x852e6e00;
_Z29async_work_group_strided_copyPU8CLglobalDv2_lPKU7CLlocalS_jjP11__ocl_event=0x852e6e20;
_Z29async_work_group_strided_copyPU8CLglobalDv2_mPKU7CLlocalS_jjP11__ocl_event=0x852e6e40;
_Z29async_work_group_strided_copyPU8CLglobalDv2_sPKU7CLlocalS_jjP11__ocl_event=0x852e6e60;
_Z29async_work_group_strided_copyPU8CLglobalDv2_tPKU7CLlocalS_jjP11__ocl_event=0x852e6e80;
_Z29async_work_group_strided_copyPU8CLglobalDv3_cPKU7CLlocalS_jjP11__ocl_event=0x852e6ea0;
_Z29async_work_group_strided_copyPU8CLglobalDv3_dPKU7CLlocalS_jjP11__ocl_event=0x852e6ec0;
_Z29async_work_group_strided_copyPU8CLglobalDv3_fPKU7CLlocalS_jjP11__ocl_event=0x852e6ee0;
_Z29async_work_group_strided_copyPU8CLglobalDv3_hPKU7CLlocalS_jjP11__ocl_event=0x852e6f00;
_Z29async_work_group_strided_copyPU8CLglobalDv3_iPKU7CLlocalS_jjP11__ocl_event=0x852e6f20;
_Z29async_work_group_strided_copyPU8CLglobalDv3_jPKU7CLlocalS_jjP11__ocl_event=0x852e6f40;
_Z29async_work_group_strided_copyPU8CLglobalDv3_lPKU7CLlocalS_jjP11__ocl_event=0x852e6f60;
_Z29async_work_group_strided_copyPU8CLglobalDv3_mPKU7CLlocalS_jjP11__ocl_event=0x852e6f80;
_Z29async_work_group_strided_copyPU8CLglobalDv3_sPKU7CLlocalS_jjP11__ocl_event=0x852e6fa0;
_Z29async_work_group_strided_copyPU8CLglobalDv3_tPKU7CLlocalS_jjP11__ocl_event=0x852e6fc0;
_Z29async_work_group_strided_copyPU8CLglobalDv4_cPKU7CLlocalS_jjP11__ocl_event=0x852e6fe0;
_Z29async_work_group_strided_copyPU8CLglobalDv4_dPKU7CLlocalS_jjP11__ocl_event=0x852e7000;
_Z29async_work_group_strided_copyPU8CLglobalDv4_fPKU7CLlocalS_jjP11__ocl_event=0x852e7020;
_Z29async_work_group_strided_copyPU8CLglobalDv4_hPKU7CLlocalS_jjP11__ocl_event=0x852e7040;
_Z29async_work_group_strided_copyPU8CLglobalDv4_iPKU7CLlocalS_jjP11__ocl_event=0x852e7060;
_Z29async_work_group_strided_copyPU8CLglobalDv4_jPKU7CLlocalS_jjP11__ocl_event=0x852e7080;
_Z29async_work_group_strided_copyPU8CLglobalDv4_lPKU7CLlocalS_jjP11__ocl_event=0x852e70a0;
_Z29async_work_group_strided_copyPU8CLglobalDv4_mPKU7CLlocalS_jjP11__ocl_event=0x852e70c0;
_Z29async_work_group_strided_copyPU8CLglobalDv4_sPKU7CLlocalS_jjP11__ocl_event=0x852e70e0;
_Z29async_work_group_strided_copyPU8CLglobalDv4_tPKU7CLlocalS_jjP11__ocl_event=0x852e7100;
_Z29async_work_group_strided_copyPU8CLglobalDv8_cPKU7CLlocalS_jjP11__ocl_event=0x852e7120;
_Z29async_work_group_strided_copyPU8CLglobalDv8_dPKU7CLlocalS_jjP11__ocl_event=0x852e7140;
_Z29async_work_group_strided_copyPU8CLglobalDv8_fPKU7CLlocalS_jjP11__ocl_event=0x852e7160;
_Z29async_work_group_strided_copyPU8CLglobalDv8_hPKU7CLlocalS_jjP11__ocl_event=0x852e7180;
_Z29async_work_group_strided_copyPU8CLglobalDv8_iPKU7CLlocalS_jjP11__ocl_event=0x852e71a0;
_Z29async_work_group_strided_copyPU8CLglobalDv8_jPKU7CLlocalS_jjP11__ocl_event=0x852e71c0;
_Z29async_work_group_strided_copyPU8CLglobalDv8_lPKU7CLlocalS_jjP11__ocl_event=0x852e71e0;
_Z29async_work_group_strided_copyPU8CLglobalDv8_mPKU7CLlocalS_jjP11__ocl_event=0x852e7200;
_Z29async_work_group_strided_copyPU8CLglobalDv8_sPKU7CLlocalS_jjP11__ocl_event=0x852e7220;
_Z29async_work_group_strided_copyPU8CLglobalDv8_tPKU7CLlocalS_jjP11__ocl_event=0x852e7240;
_Z29async_work_group_strided_copyPU8CLglobalfPKU7CLlocalfjjP11__ocl_event=0x852e72a0;
_Z29async_work_group_strided_copyPU8CLglobalhPKU7CLlocalhjjP11__ocl_event=0x852e72c0;
_Z29async_work_group_strided_copyPU8CLglobaliPKU7CLlocalijjP11__ocl_event=0x852e72e0;
_Z29async_work_group_strided_copyPU8CLglobaljPKU7CLlocaljjjP11__ocl_event=0x852e7300;
_Z29async_work_group_strided_copyPU8CLgloballPKU7CLlocalljjP11__ocl_event=0x852e7320;
_Z29async_work_group_strided_copyPU8CLglobalmPKU7CLlocalmjjP11__ocl_event=0x852e7340;
_Z29async_work_group_strided_copyPU8CLglobalsPKU7CLlocalsjjP11__ocl_event=0x852e7360;
_Z29async_work_group_strided_copyPU8CLglobaltPKU7CLlocaltjjP11__ocl_event=0x852e7380;
_Z3absDv16_c=0x8522eaa0;
_Z3absDv16_i=0x8524ef80;
_Z3absDv16_l=0x851162c0;
_Z3absDv16_s=0x8524f060;
_Z3absDv2_c=0x852e73a0;
_Z3absDv2_i=0x852e73c0;
_Z3absDv2_l=0x852b5fc0;
_Z3absDv2_s=0x852e73e0;
_Z3absDv3_c=0x852cc480;
_Z3absDv3_i=0x852e7400;
_Z3absDv3_l=0x85268f00;
_Z3absDv3_s=0x852cc4c0;
_Z3absDv4_c=0x852cc500;
_Z3absDv4_i=0x852e7420;
_Z3absDv4_l=0x8524f140;
_Z3absDv4_s=0x852cc540;
_Z3absDv8_c=0x85298820;
_Z3absDv8_i=0x852988a0;
_Z3absDv8_l=0x851ea3e0;
_Z3absDv8_s=0x852b6020;
_Z3allDv16_c=0x85268fc0;
_Z3allDv16_i=0x8527ce80;
_Z3allDv16_l=0x85269080;
_Z3allDv16_s=0x85269140;
_Z3allDv3_c=0x852cc580;
_Z3allDv3_i=0x852e7440;
_Z3allDv3_l=0x852b6080;
_Z3allDv3_s=0x852e7460;
_Z3allDv4_c=0x852cc5c0;
_Z3allDv4_i=0x852e7480;
_Z3allDv4_l=0x852b60e0;
_Z3allDv4_s=0x852e74a0;
_Z3allDv8_c=0x852b6140;
_Z3allDv8_i=0x85298920;
_Z3allDv8_l=0x852989a0;
_Z3allDv8_s=0x852cc600;
_Z3anyDv16_c=0x85269200;
_Z3anyDv16_i=0x8527cf20;
_Z3anyDv16_l=0x852692c0;
_Z3anyDv16_s=0x85269380;
_Z3anyDv3_c=0x852cc640;
_Z3anyDv3_i=0x852e74c0;
_Z3anyDv3_l=0x852b61a0;
_Z3anyDv3_s=0x852e74e0;
_Z3anyDv4_c=0x852cc680;
_Z3anyDv4_i=0x852e7500;
_Z3anyDv4_l=0x852b6200;
_Z3anyDv4_s=0x852e7520;
_Z3anyDv8_c=0x852b6260;
_Z3anyDv8_i=0x85298a20;
_Z3anyDv8_l=0x85298aa0;
_Z3anyDv8_s=0x852cc6c0;
_Z3clzDv16_c=0x8517b5a0;
_Z3clzDv16_h=0x852028c0;
_Z3clzDv16_i=0x8524f220;
_Z3clzDv16_j=0x8524f300;
_Z3clzDv16_l=0x85129120;
_Z3clzDv16_m=0x85129400;
_Z3clzDv16_s=0x8518bf00;
_Z3clzDv16_t=0x85202a00;
_Z3clzDv2_c=0x852cc700;
_Z3clzDv2_h=0x852cc740;
_Z3clzDv2_i=0x852e7540;
_Z3clzDv2_j=0x852e7560;
_Z3clzDv2_l=0x852cc780;
_Z3clzDv2_m=0x852cc7c0;
_Z3clzDv2_s=0x852cc800;
_Z3clzDv2_t=0x852e7580;
_Z3clzDv3_c=0x852b62c0;
_Z3clzDv3_h=0x852cc840;
_Z3clzDv3_i=0x852e75a0;
_Z3clzDv3_j=0x852e75c0;
_Z3clzDv3_l=0x85269440;
_Z3clzDv3_m=0x85269500;
_Z3clzDv3_s=0x852b6320;
_Z3clzDv3_t=0x852cc880;
_Z3clzDv4_c=0x85298b20;
_Z3clzDv4_h=0x852b6380;
_Z3clzDv4_i=0x852e75e0;
_Z3clzDv4_j=0x852e7600;
_Z3clzDv4_l=0x8522eba0;
_Z3clzDv4_m=0x8522eca0;
_Z3clzDv4_s=0x85298ba0;
_Z3clzDv4_t=0x852cc8c0;
_Z3clzDv8_c=0x8522eda0;
_Z3clzDv8_h=0x8527cfc0;
_Z3clzDv8_i=0x85298c20;
_Z3clzDv8_j=0x85298ca0;
_Z3clzDv8_l=0x851ea540;
_Z3clzDv8_m=0x851ea6a0;
_Z3clzDv8_s=0x8524f3e0;
_Z3clzDv8_t=0x8527d060;
_Z3cosDv16_d=0x850e8de0;
_Z3cosDv16_f=0x8518c0e0;
_Z3cosDv2_d=0x852cc900;
_Z3cosDv2_f=0x852cc940;
_Z3cosDv3_d=0x852695c0;
_Z3cosDv3_f=0x852b63e0;
_Z3cosDv4_d=0x8524f4c0;
_Z3cosDv4_f=0x852b6440;
_Z3cosDv8_d=0x851ea800;
_Z3cosDv8_f=0x8522eea0;
_Z3erfDv16_d=0x850e9180;
_Z3erfDv16_f=0x8518c2c0;
_Z3erfDv2_d=0x852cc980;
_Z3erfDv2_f=0x852cc9c0;
_Z3erfDv3_d=0x85269680;
_Z3erfDv3_f=0x852b64a0;
_Z3erfDv4_d=0x8524f5a0;
_Z3erfDv4_f=0x852b6500;
_Z3erfDv8_d=0x851ea960;
_Z3erfDv8_f=0x8522efa0;
_Z3expDv16_d=0x850e9520;
_Z3expDv16_f=0x8518c4a0;
_Z3expDv2_d=0x852cca00;
_Z3expDv2_f=0x852cca40;
_Z3expDv3_d=0x85269740;
_Z3expDv3_f=0x852b6560;
_Z3expDv4_d=0x8524f680;
_Z3expDv4_f=0x852b65c0;
_Z3expDv8_d=0x851eaac0;
_Z3expDv8_f=0x8522f0a0;
_Z3fmaDv16_dS_S_=0x850898a0;
_Z3fmaDv16_fS_S_=0x851296e0;
_Z3fmaDv2_dS_S_=0x852b6620;
_Z3fmaDv2_fS_S_=0x852b6680;
_Z3fmaDv3_dS_S_=0x8522f1a0;
_Z3fmaDv3_fS_S_=0x85298d20;
_Z3fmaDv4_dS_S_=0x851eac20;
_Z3fmaDv4_fS_S_=0x8527d100;
_Z3fmaDv8_dS_S_=0x8516f420;
_Z3fmaDv8_fS_S_=0x851ead80;
_Z3logDv16_d=0x850e98c0;
_Z3logDv16_f=0x8518c680;
_Z3logDv2_d=0x852cca80;
_Z3logDv2_f=0x852ccac0;
_Z3logDv3_d=0x85269800;
_Z3logDv3_f=0x852b66e0;
_Z3logDv4_d=0x8524f760;
_Z3logDv4_f=0x852b6740;
_Z3logDv8_d=0x851eaee0;
_Z3logDv8_f=0x8522f2a0;
_Z3maxDv16_cc=0x8513da80;
_Z3maxDv16_cS_=0x851299c0;
_Z3maxDv16_dd=0x85061880;
_Z3maxDv16_dS_=0x85058680;
_Z3maxDv16_ff=0x850cb9c0;
_Z3maxDv16_fS_=0x850cb580;
_Z3maxDv16_hh=0x852b6800;
_Z3maxDv16_hS_=0x852b67a0;
_Z3maxDv16_ii=0x85161280;
_Z3maxDv16_iS_=0x85146d80;
_Z3maxDv16_jj=0x850d37e0;
_Z3maxDv16_jS_=0x850bbb60;
_Z3maxDv16_ll=0x85096f60;
_Z3maxDv16_lS_=0x8507c4e0;
_Z3maxDv16_mm=0x85056940;
_Z3maxDv16_mS_=0x85040160;
_Z3maxDv16_sS_=0x8524f840;
_Z3maxDv16_ss=0x8524f920;
_Z3maxDv16_tS_=0x85135e80;
_Z3maxDv16_tt=0x85147000;
_Z3maxDv3_cc=0x85298da0;
_Z3maxDv3_cS_=0x8527d1a0;
_Z3maxDv3_dd=0x8522f3a0;
_Z3maxDv3_dS_=0x85219840;
_Z3maxDv3_ff=0x852b68c0;
_Z3maxDv3_fS_=0x852b6860;
_Z3maxDv3_hh=0x85298e20;
_Z3maxDv3_hS_=0x8527d240;
_Z3maxDv3_ii=0x852b6980;
_Z3maxDv3_iS_=0x852b6920;
_Z3maxDv3_jj=0x852b6a40;
_Z3maxDv3_jS_=0x852b69e0;
_Z3maxDv3_ll=0x8524fae0;
_Z3maxDv3_lS_=0x8524fa00;
_Z3maxDv3_mm=0x85219a80;
_Z3maxDv3_mS_=0x85219960;
_Z3maxDv3_sS_=0x852b6aa0;
_Z3maxDv3_ss=0x852b6b00;
_Z3maxDv3_tS_=0x85298ea0;
_Z3maxDv3_tt=0x85298f20;
_Z3maxDv4_cc=0x8527d2e0;
_Z3maxDv4_cS_=0x852698c0;
_Z3maxDv4_dd=0x851eb040;
_Z3maxDv4_dS_=0x851d1bc0;
_Z3maxDv4_ff=0x85299020;
_Z3maxDv4_fS_=0x85298fa0;
_Z3maxDv4_hh=0x852ccb40;
_Z3maxDv4_hS_=0x852ccb00;
_Z3maxDv4_ii=0x852990a0;
_Z3maxDv4_iS_=0x852b6b60;
_Z3maxDv4_jj=0x852991a0;
_Z3maxDv4_jS_=0x85299120;
_Z3maxDv4_ll=0x8522f4a0;
_Z3maxDv4_lS_=0x85219ba0;
_Z3maxDv4_mm=0x851d1d40;
_Z3maxDv4_mS_=0x851a5420;
_Z3maxDv4_sS_=0x852ccb80;
_Z3maxDv4_ss=0x852ccbc0;
_Z3maxDv4_tS_=0x85299220;
_Z3maxDv4_tt=0x852b6bc0;
_Z3maxDv8_cc=0x85202b40;
_Z3maxDv8_cS_=0x851eb1a0;
_Z3maxDv8_dd=0x8511dd20;
_Z3maxDv8_dS_=0x850e2320;
_Z3maxDv8_ff=0x8518ca40;
_Z3maxDv8_fS_=0x8518c860;
_Z3maxDv8_hh=0x852ccc40;
_Z3maxDv8_hS_=0x852ccc00;
_Z3maxDv8_ii=0x85219cc0;
_Z3maxDv8_iS_=0x85202c80;
_Z3maxDv8_jj=0x851a55e0;
_Z3maxDv8_jS_=0x851b7080;
_Z3maxDv8_ll=0x8518cc20;
_Z3maxDv8_lS_=0x8516f640;
_Z3maxDv8_mm=0x850fa6c0;
_Z3maxDv8_mS_=0x850bc000;
_Z3maxDv8_sS_=0x852b6c20;
_Z3maxDv8_ss=0x852b6c80;
_Z3maxDv8_tS_=0x8524fbc0;
_Z3maxDv8_tt=0x8524fca0;
_Z3minDv16_cc=0x8513dd20;
_Z3minDv16_cS_=0x85129ca0;
_Z3minDv16_dd=0x85062120;
_Z3minDv16_dS_=0x85059000;
_Z3minDv16_ff=0x850cc240;
_Z3minDv16_fS_=0x850cbe00;
_Z3minDv16_hh=0x852b6d40;
_Z3minDv16_hS_=0x852b6ce0;
_Z3minDv16_ii=0x851614c0;
_Z3minDv16_iS_=0x85147280;
_Z3minDv16_jj=0x850d3be0;
_Z3minDv16_jS_=0x850bc4a0;
_Z3minDv16_ll=0x85097500;
_Z3minDv16_lS_=0x8507cbc0;
_Z3minDv16_mm=0x85057300;
_Z3minDv16_mS_=0x85040d40;
_Z3minDv16_sS_=0x8524fd80;
_Z3minDv16_ss=0x8524fe60;
_Z3minDv16_tS_=0x85136140;
_Z3minDv16_tt=0x85147500;
_Z3minDv3_cc=0x852992a0;
_Z3minDv3_cS_=0x8527d380;
_Z3minDv3_dd=0x8522f5a0;
_Z3minDv3_dS_=0x85219de0;
_Z3minDv3_ff=0x852b6e00;
_Z3minDv3_fS_=0x852b6da0;
_Z3minDv3_hh=0x85299320;
_Z3minDv3_hS_=0x8527d420;
_Z3minDv3_ii=0x852b6ec0;
_Z3minDv3_iS_=0x852b6e60;
_Z3minDv3_jj=0x852b6f80;
_Z3minDv3_jS_=0x852b6f20;
_Z3minDv3_ll=0x85250020;
_Z3minDv3_lS_=0x8524ff40;
_Z3minDv3_mm=0x8521a020;
_Z3minDv3_mS_=0x85219f00;
_Z3minDv3_sS_=0x852b6fe0;
_Z3minDv3_ss=0x852b7040;
_Z3minDv3_tS_=0x852993a0;
_Z3minDv3_tt=0x85299420;
_Z3minDv4_cc=0x8527d4c0;
_Z3minDv4_cS_=0x85269980;
_Z3minDv4_dd=0x851eb300;
_Z3minDv4_dS_=0x851d1ec0;
_Z3minDv4_ff=0x85299520;
_Z3minDv4_fS_=0x852994a0;
_Z3minDv4_hh=0x852ccc80;
_Z3minDv4_hS_=0x852e7620;
_Z3minDv4_ii=0x852995a0;
_Z3minDv4_iS_=0x852b70a0;
_Z3minDv4_jj=0x852996a0;
_Z3minDv4_jS_=0x85299620;
_Z3minDv4_ll=0x8522f6a0;
_Z3minDv4_lS_=0x8521a140;
_Z3minDv4_mm=0x851d2040;
_Z3minDv4_mS_=0x851a57a0;
_Z3minDv4_sS_=0x852cccc0;
_Z3minDv4_ss=0x852ccd00;
_Z3minDv4_tS_=0x85299720;
_Z3minDv4_tt=0x852b7100;
_Z3minDv8_cc=0x85202dc0;
_Z3minDv8_cS_=0x851eb460;
_Z3minDv8_dd=0x8511e020;
_Z3minDv8_dS_=0x850e26e0;
_Z3minDv8_ff=0x8518cfe0;
_Z3minDv8_fS_=0x8518ce00;
_Z3minDv8_hh=0x852ccd40;
_Z3minDv8_hS_=0x852e7640;
_Z3minDv8_ii=0x8521a260;
_Z3minDv8_iS_=0x85202f00;
_Z3minDv8_jj=0x851a5960;
_Z3minDv8_jS_=0x851b7220;
_Z3minDv8_ll=0x8518d1c0;
_Z3minDv8_lS_=0x8516f860;
_Z3minDv8_mm=0x850faa40;
_Z3minDv8_mS_=0x850bc940;
_Z3minDv8_sS_=0x852b7160;
_Z3minDv8_ss=0x852b71c0;
_Z3minDv8_tS_=0x85250100;
_Z3minDv8_tt=0x852501e0;
_Z3mixDv16_cS_c=0x85299820;
_Z3mixDv16_cS_S_=0x852997a0;
_Z3mixDv16_dS_d=0x850e2aa0;
_Z3mixDv16_dS_S_=0x8509d7a0;
_Z3mixDv16_fS_f=0x851eb5c0;
_Z3mixDv16_fS_S_=0x85147780;
_Z3mixDv16_hS_h=0x85299920;
_Z3mixDv16_hS_S_=0x852998a0;
_Z3mixDv16_iS_i=0x851d21c0;
_Z3mixDv16_iS_S_=0x85147a00;
_Z3mixDv16_jS_j=0x851d2340;
_Z3mixDv16_jS_S_=0x85147c80;
_Z3mixDv16_lS_l=0x85047320;
_Z3mixDv16_lS_S_=0x850377e0;
_Z3mixDv16_mS_m=0x85047dc0;
_Z3mixDv16_mS_S_=0x850384e0;
_Z3mixDv16_sS_S_=0x85203040;
_Z3mixDv16_sS_s=0x8521a380;
_Z3mixDv16_tS_S_=0x85203180;
_Z3mixDv16_tS_t=0x8521a4a0;
_Z3mixDv3_cS_c=0x852999a0;
_Z3mixDv3_cS_S_=0x8527d560;
_Z3mixDv3_dS_d=0x8527d600;
_Z3mixDv3_dS_S_=0x852502c0;
_Z3mixDv3_fS_f=0x852ccdc0;
_Z3mixDv3_fS_S_=0x852ccd80;
_Z3mixDv3_hS_h=0x85299a20;
_Z3mixDv3_hS_S_=0x8527d6a0;
_Z3mixDv3_iS_i=0x852cce40;
_Z3mixDv3_iS_S_=0x852cce00;
_Z3mixDv3_jS_j=0x852ccec0;
_Z3mixDv3_jS_S_=0x852cce80;
_Z3mixDv3_lS_l=0x8521a5c0;
_Z3mixDv3_lS_S_=0x852032c0;
_Z3mixDv3_mS_m=0x8521a6e0;
_Z3mixDv3_mS_S_=0x85203400;
_Z3mixDv3_sS_S_=0x852ccf00;
_Z3mixDv3_sS_s=0x852ccf40;
_Z3mixDv3_tS_S_=0x852ccf80;
_Z3mixDv3_tS_t=0x852ccfc0;
_Z3mixDv4_cS_c=0x852e7680;
_Z3mixDv4_cS_S_=0x852e7660;
_Z3mixDv4_dS_d=0x852503a0;
_Z3mixDv4_dS_S_=0x8522f7a0;
_Z3mixDv4_fS_f=0x852b7220;
_Z3mixDv4_fS_S_=0x852cd000;
_Z3mixDv4_hS_h=0x852e76c0;
_Z3mixDv4_hS_S_=0x852e76a0;
_Z3mixDv4_iS_i=0x852cd080;
_Z3mixDv4_iS_S_=0x852cd040;
_Z3mixDv4_jS_j=0x852cd100;
_Z3mixDv4_jS_S_=0x852cd0c0;
_Z3mixDv4_lS_l=0x851eb720;
_Z3mixDv4_lS_S_=0x851d24c0;
_Z3mixDv4_mS_m=0x851eb880;
_Z3mixDv4_mS_S_=0x851d2640;
_Z3mixDv4_sS_s=0x852cd140;
_Z3mixDv4_sS_S_=0x852e76e0;
_Z3mixDv4_tS_S_=0x852e7700;
_Z3mixDv4_tS_t=0x852cd180;
_Z3mixDv8_cS_c=0x852cd200;
_Z3mixDv8_cS_S_=0x852cd1c0;
_Z3mixDv8_dS_d=0x851eb9e0;
_Z3mixDv8_dS_S_=0x851a5b20;
_Z3mixDv8_fS_f=0x85250480;
_Z3mixDv8_fS_S_=0x8522f8a0;
_Z3mixDv8_hS_h=0x852cd280;
_Z3mixDv8_hS_S_=0x852cd240;
_Z3mixDv8_iS_i=0x85250560;
_Z3mixDv8_iS_S_=0x8521a800;
_Z3mixDv8_jS_j=0x85250640;
_Z3mixDv8_jS_S_=0x8521a920;
_Z3mixDv8_lS_l=0x85101f00;
_Z3mixDv8_lS_S_=0x850dca40;
_Z3mixDv8_mS_m=0x85102260;
_Z3mixDv8_mS_S_=0x850dce20;
_Z3mixDv8_sS_s=0x85299aa0;
_Z3mixDv8_sS_S_=0x852b7280;
_Z3mixDv8_tS_S_=0x852b72e0;
_Z3mixDv8_tS_t=0x85299b20;
_Z3nanDv16_j=0x85250720;
_Z3nanDv16_m=0x8516fa80;
_Z3nanDv2_j=0x852e7720;
_Z3nanDv2_m=0x852cd2c0;
_Z3nanDv3_j=0x852e7740;
_Z3nanDv3_m=0x85299ba0;
_Z3nanDv4_j=0x852cd300;
_Z3nanDv4_m=0x8527d740;
_Z3nanDv8_j=0x85299c20;
_Z3nanDv8_m=0x8522f9a0;
_Z3powDv16_dS_=0x850b16a0;
_Z3powDv16_fS_=0x8516fca0;
_Z3powDv2_dS_=0x852b7340;
_Z3powDv2_fS_=0x852cd340;
_Z3powDv3_dS_=0x85250800;
_Z3powDv3_fS_=0x85299ca0;
_Z3powDv4_dS_=0x8521aa40;
_Z3powDv4_fS_=0x85299d20;
_Z3powDv8_dS_=0x851b73c0;
_Z3powDv8_fS_=0x85203540;
_Z3sinDv16_d=0x850e9c60;
_Z3sinDv16_f=0x8518d3a0;
_Z3sinDv2_d=0x852cd380;
_Z3sinDv2_f=0x852cd3c0;
_Z3sinDv3_d=0x85269a40;
_Z3sinDv3_f=0x852b73a0;
_Z3sinDv4_d=0x852508e0;
_Z3sinDv4_f=0x852b7400;
_Z3sinDv8_d=0x851ebb40;
_Z3sinDv8_f=0x8522faa0;
_Z3tanDv16_d=0x850ea000;
_Z3tanDv16_f=0x8518d580;
_Z3tanDv2_d=0x852cd400;
_Z3tanDv2_f=0x852cd440;
_Z3tanDv3_d=0x85269b00;
_Z3tanDv3_f=0x852b7460;
_Z3tanDv4_d=0x852509c0;
_Z3tanDv4_f=0x852b74c0;
_Z3tanDv8_d=0x851ebca0;
_Z3tanDv8_f=0x8522fba0;
_Z4acosDv16_d=0x850ea3a0;
_Z4acosDv16_f=0x8518d760;
_Z4acosDv2_d=0x852cd480;
_Z4acosDv2_f=0x852cd4c0;
_Z4acosDv3_d=0x85269bc0;
_Z4acosDv3_f=0x852b7520;
_Z4acosDv4_d=0x85250aa0;
_Z4acosDv4_f=0x852b7580;
_Z4acosDv8_d=0x851ebe00;
_Z4acosDv8_f=0x8522fca0;
_Z4asinDv16_d=0x850ea740;
_Z4asinDv16_f=0x8518d940;
_Z4asinDv2_d=0x852cd500;
_Z4asinDv2_f=0x852cd540;
_Z4asinDv3_d=0x85269c80;
_Z4asinDv3_f=0x852b75e0;
_Z4asinDv4_d=0x85250b80;
_Z4asinDv4_f=0x852b7640;
_Z4asinDv8_d=0x851ebf60;
_Z4asinDv8_f=0x8522fda0;
_Z4atanDv16_d=0x850eaae0;
_Z4atanDv16_f=0x8518db20;
_Z4atanDv2_d=0x852cd580;
_Z4atanDv2_f=0x852cd5c0;
_Z4atanDv3_d=0x85269d40;
_Z4atanDv3_f=0x852b76a0;
_Z4atanDv4_d=0x85250c60;
_Z4atanDv4_f=0x852b7700;
_Z4atanDv8_d=0x851ec0c0;
_Z4atanDv8_f=0x8522fea0;
_Z4cbrtDv16_d=0x850eae80;
_Z4cbrtDv16_f=0x8518dd00;
_Z4cbrtDv2_d=0x852cd600;
_Z4cbrtDv2_f=0x852cd640;
_Z4cbrtDv3_d=0x85269e00;
_Z4cbrtDv3_f=0x852b7760;
_Z4cbrtDv4_d=0x85250d40;
_Z4cbrtDv4_f=0x852b77c0;
_Z4cbrtDv8_d=0x851ec220;
_Z4cbrtDv8_f=0x8522ffa0;
_Z4ceilDv16_d=0x850eb220;
_Z4ceilDv16_f=0x8518dee0;
_Z4ceilDv2_d=0x852cd680;
_Z4ceilDv2_f=0x852cd6c0;
_Z4ceilDv3_d=0x85269ec0;
_Z4ceilDv3_f=0x852b7820;
_Z4ceilDv4_d=0x85250e20;
_Z4ceilDv4_f=0x852b7880;
_Z4ceilDv8_d=0x851ec380;
_Z4ceilDv8_f=0x852300a0;
_Z4coshDv16_d=0x850eb5c0;
_Z4coshDv16_f=0x8518e0c0;
_Z4coshDv2_d=0x852cd700;
_Z4coshDv2_f=0x852cd740;
_Z4coshDv3_d=0x85269f80;
_Z4coshDv3_f=0x852b78e0;
_Z4coshDv4_d=0x85250f00;
_Z4coshDv4_f=0x852b7940;
_Z4coshDv8_d=0x851ec4e0;
_Z4coshDv8_f=0x852301a0;
_Z4erfcDv16_d=0x850eb960;
_Z4erfcDv16_f=0x8518e2a0;
_Z4erfcDv2_d=0x852cd780;
_Z4erfcDv2_f=0x852cd7c0;
_Z4erfcDv3_d=0x8526a040;
_Z4erfcDv3_f=0x852b79a0;
_Z4erfcDv4_d=0x85250fe0;
_Z4erfcDv4_f=0x852b7a00;
_Z4erfcDv8_d=0x851ec640;
_Z4erfcDv8_f=0x852302a0;
_Z4exp2Dv16_d=0x850ebd00;
_Z4exp2Dv16_f=0x8518e480;
_Z4exp2Dv2_d=0x852cd800;
_Z4exp2Dv2_f=0x852cd840;
_Z4exp2Dv3_d=0x8526a100;
_Z4exp2Dv3_f=0x852b7a60;
_Z4exp2Dv4_d=0x852510c0;
_Z4exp2Dv4_f=0x852b7ac0;
_Z4exp2Dv8_d=0x851ec7a0;
_Z4exp2Dv8_f=0x852303a0;
_Z4fabsDv16_d=0x851d27c0;
_Z4fabsDv16_f=0x852511a0;
_Z4fabsDv2_d=0x852e7760;
_Z4fabsDv2_f=0x852e7780;
_Z4fabsDv3_d=0x852b7b20;
_Z4fabsDv3_f=0x852e77a0;
_Z4fabsDv4_d=0x85299da0;
_Z4fabsDv4_f=0x852e77c0;
_Z4fabsDv8_d=0x8526a1c0;
_Z4fabsDv8_f=0x85299e20;
_Z4fdimDv16_dS_=0x850b1b60;
_Z4fdimDv16_fS_=0x8516fec0;
_Z4fdimDv2_dS_=0x852b7b80;
_Z4fdimDv2_fS_=0x852cd880;
_Z4fdimDv3_dS_=0x85251280;
_Z4fdimDv3_fS_=0x85299ea0;
_Z4fdimDv4_dS_=0x8521ab60;
_Z4fdimDv4_fS_=0x85299f20;
_Z4fdimDv8_dS_=0x851b7560;
_Z4fdimDv8_fS_=0x85203680;
_Z4fmaxDv16_dS_=0x850b2020;
_Z4fmaxDv16_fS_=0x851700e0;
_Z4fmaxDv2_dS_=0x852b7be0;
_Z4fmaxDv2_fS_=0x852cd8c0;
_Z4fmaxDv3_dS_=0x85251360;
_Z4fmaxDv3_fS_=0x85299fa0;
_Z4fmaxDv4_dS_=0x8521ac80;
_Z4fmaxDv4_fS_=0x8529a020;
_Z4fmaxDv8_dS_=0x851b7700;
_Z4fmaxDv8_fS_=0x852037c0;
_Z4fminDv16_dS_=0x850b24e0;
_Z4fminDv16_fS_=0x85170300;
_Z4fminDv2_dS_=0x852b7c40;
_Z4fminDv2_fS_=0x852cd900;
_Z4fminDv3_dS_=0x85251440;
_Z4fminDv3_fS_=0x8529a0a0;
_Z4fminDv4_dS_=0x8521ada0;
_Z4fminDv4_fS_=0x8529a120;
_Z4fminDv8_dS_=0x851b78a0;
_Z4fminDv8_fS_=0x85203900;
_Z4fmodDv16_dS_=0x850b29a0;
_Z4fmodDv16_fS_=0x85170520;
_Z4fmodDv2_dS_=0x852b7ca0;
_Z4fmodDv2_fS_=0x852cd940;
_Z4fmodDv3_dS_=0x85251520;
_Z4fmodDv3_fS_=0x8529a1a0;
_Z4fmodDv4_dS_=0x8521aec0;
_Z4fmodDv4_fS_=0x8529a220;
_Z4fmodDv8_dS_=0x851b7a40;
_Z4fmodDv8_fS_=0x85203a40;
_Z4haddDv16_cS_=0x851025c0;
_Z4haddDv16_hS_=0x85102920;
_Z4haddDv16_iS_=0x85147f00;
_Z4haddDv16_jS_=0x850c09a0;
_Z4haddDv16_lS_=0x85050fa0;
_Z4haddDv16_mS_=0x8503b800;
_Z4haddDv16_sS_=0x8510e6c0;
_Z4haddDv16_tS_=0x850d3fe0;
_Z4haddDv2_cS_=0x852b7d00;
_Z4haddDv2_hS_=0x852b7d60;
_Z4haddDv2_iS_=0x852cd980;
_Z4haddDv2_jS_=0x852cd9c0;
_Z4haddDv2_lS_=0x8527d7e0;
_Z4haddDv2_mS_=0x8527d880;
_Z4haddDv2_sS_=0x852cda00;
_Z4haddDv2_tS_=0x852cda40;
_Z4haddDv3_cS_=0x8529a2a0;
_Z4haddDv3_hS_=0x8529a320;
_Z4haddDv3_iS_=0x852b7dc0;
_Z4haddDv3_jS_=0x852b7e20;
_Z4haddDv3_lS_=0x8518e660;
_Z4haddDv3_mS_=0x85170740;
_Z4haddDv3_sS_=0x852b7e80;
_Z4haddDv3_tS_=0x852b7ee0;
_Z4haddDv4_cS_=0x8526a280;
_Z4haddDv4_hS_=0x8526a340;
_Z4haddDv4_iS_=0x852b7f40;
_Z4haddDv4_jS_=0x852b7fa0;
_Z4haddDv4_lS_=0x8513dfc0;
_Z4haddDv4_mS_=0x8513e260;
_Z4haddDv4_sS_=0x852cda80;
_Z4haddDv4_tS_=0x852cdac0;
_Z4haddDv8_cS_=0x851b7be0;
_Z4haddDv8_hS_=0x851b7d80;
_Z4haddDv8_iS_=0x85203b80;
_Z4haddDv8_jS_=0x851b7f20;
_Z4haddDv8_lS_=0x850c0e20;
_Z4haddDv8_mS_=0x8508c820;
_Z4haddDv8_sS_=0x852b8000;
_Z4haddDv8_tS_=0x852b8060;
_Z4log2Dv16_d=0x850ec0a0;
_Z4log2Dv16_f=0x8518e840;
_Z4log2Dv2_d=0x852cdb00;
_Z4log2Dv2_f=0x852cdb40;
_Z4log2Dv3_d=0x8526a400;
_Z4log2Dv3_f=0x852b80c0;
_Z4log2Dv4_d=0x85251600;
_Z4log2Dv4_f=0x852b8120;
_Z4log2Dv8_d=0x851ec900;
_Z4log2Dv8_f=0x852304a0;
_Z4logbDv16_d=0x850ec440;
_Z4logbDv16_f=0x8518ea20;
_Z4logbDv2_d=0x852cdb80;
_Z4logbDv2_f=0x852cdbc0;
_Z4logbDv3_d=0x8526a4c0;
_Z4logbDv3_f=0x852b8180;
_Z4logbDv4_d=0x852516e0;
_Z4logbDv4_f=0x852b81e0;
_Z4logbDv8_d=0x851eca60;
_Z4logbDv8_f=0x852305a0;
_Z4modfdPd=0x852e7820;
_Z4modfdPU7CLlocald=0x852e77e0;
_Z4modfdPU8CLglobald=0x852e7800;
_Z4modfDv16_dPS_=0x850d43e0;
_Z4modfDv16_dPU7CLlocalS_=0x850d47e0;
_Z4modfDv16_dPU8CLglobalS_=0x850d4be0;
_Z4modfDv16_fPS_=0x8517b7a0;
_Z4modfDv16_fPU7CLlocalS_=0x8517b9a0;
_Z4modfDv16_fPU8CLglobalS_=0x8517bba0;
_Z4modfDv2_dPS_=0x852b8240;
_Z4modfDv2_dPU7CLlocalS_=0x852b82a0;
_Z4modfDv2_dPU8CLglobalS_=0x852b8300;
_Z4modfDv2_fPS_=0x852b8360;
_Z4modfDv2_fPU7CLlocalS_=0x852b83c0;
_Z4modfDv2_fPU8CLglobalS_=0x852b8420;
_Z4modfDv3_dPS_=0x852517c0;
_Z4modfDv3_dPU7CLlocalS_=0x852518a0;
_Z4modfDv3_dPU8CLglobalS_=0x85251980;
_Z4modfDv3_fPS_=0x852b8480;
_Z4modfDv3_fPU7CLlocalS_=0x852b84e0;
_Z4modfDv3_fPU8CLglobalS_=0x852b8540;
_Z4modfDv4_dPS_=0x852306a0;
_Z4modfDv4_dPU7CLlocalS_=0x852307a0;
_Z4modfDv4_dPU8CLglobalS_=0x852308a0;
_Z4modfDv4_fPS_=0x8529a3a0;
_Z4modfDv4_fPU7CLlocalS_=0x8529a420;
_Z4modfDv4_fPU8CLglobalS_=0x8529a4a0;
_Z4modfDv8_dPS_=0x851d2940;
_Z4modfDv8_dPU7CLlocalS_=0x851d2ac0;
_Z4modfDv8_dPU8CLglobalS_=0x851d2c40;
_Z4modfDv8_fPS_=0x85203cc0;
_Z4modfDv8_fPU7CLlocalS_=0x85203e00;
_Z4modfDv8_fPU8CLglobalS_=0x85203f40;
_Z4modffPf=0x852e7880;
_Z4modffPU7CLlocalf=0x852e7840;
_Z4modffPU8CLglobalf=0x852e7860;
_Z4pownDv16_dDv16_i=0x850d16e0;
_Z4pownDv16_fDv16_i=0x85170960;
_Z4pownDv2_dDv2_i=0x852b85a0;
_Z4pownDv2_fDv2_i=0x852cdc00;
_Z4pownDv3_dDv3_i=0x85251a60;
_Z4pownDv3_fDv3_i=0x8529a520;
_Z4pownDv4_dDv4_i=0x852309a0;
_Z4pownDv4_fDv4_i=0x8529a5a0;
_Z4pownDv8_dDv8_i=0x851d2dc0;
_Z4pownDv8_fDv8_i=0x85204080;
_Z4powrDv16_dS_=0x850b2e60;
_Z4powrDv16_fS_=0x85170b80;
_Z4powrDv2_dS_=0x852b8600;
_Z4powrDv2_fS_=0x852cdc40;
_Z4powrDv3_dS_=0x85251b40;
_Z4powrDv3_fS_=0x8529a620;
_Z4powrDv4_dS_=0x8521afe0;
_Z4powrDv4_fS_=0x8529a6a0;
_Z4powrDv8_dS_=0x851b80c0;
_Z4powrDv8_fS_=0x852041c0;
_Z4rintDv16_d=0x850ec7e0;
_Z4rintDv16_f=0x8518ec00;
_Z4rintDv2_d=0x852cdc80;
_Z4rintDv2_f=0x852cdcc0;
_Z4rintDv3_d=0x8526a580;
_Z4rintDv3_f=0x852b8660;
_Z4rintDv4_d=0x85251c20;
_Z4rintDv4_f=0x852b86c0;
_Z4rintDv8_d=0x851ecbc0;
_Z4rintDv8_f=0x85230aa0;
_Z4signDv16_d=0x85022d40;
_Z4signDv16_f=0x85035d20;
_Z4signDv3_d=0x85136400;
_Z4signDv3_f=0x8521b100;
_Z4signDv4_d=0x850a98e0;
_Z4signDv4_f=0x851ecd20;
_Z4signDv8_d=0x850629c0;
_Z4signDv8_f=0x8509a1e0;
_Z4sinhDv16_d=0x850ecb80;
_Z4sinhDv16_f=0x8518ede0;
_Z4sinhDv2_d=0x852cdd00;
_Z4sinhDv2_f=0x852cdd40;
_Z4sinhDv3_d=0x8526a640;
_Z4sinhDv3_f=0x852b8720;
_Z4sinhDv4_d=0x85251d00;
_Z4sinhDv4_f=0x852b8780;
_Z4sinhDv8_d=0x851ece80;
_Z4sinhDv8_f=0x85230ba0;
_Z4sqrtDv16_d=0x850ecf20;
_Z4sqrtDv16_f=0x8518efc0;
_Z4sqrtDv2_d=0x852cdd80;
_Z4sqrtDv2_f=0x852cddc0;
_Z4sqrtDv3_d=0x8526a700;
_Z4sqrtDv3_f=0x852b87e0;
_Z4sqrtDv4_d=0x85251de0;
_Z4sqrtDv4_f=0x852b8840;
_Z4sqrtDv8_d=0x851ecfe0;
_Z4sqrtDv8_f=0x85230ca0;
_Z4stepdDv16_d=0x850808a0;
_Z4stepdDv3_d=0x8521b340;
_Z4stepdDv4_d=0x851d30c0;
_Z4stepdDv8_d=0x85102c80;
_Z4stepDv16_dS_=0x85070a20;
_Z4stepDv16_fS_=0x8509a760;
_Z4stepDv3_dS_=0x8521b220;
_Z4stepDv3_fS_=0x8529a720;
_Z4stepDv4_dS_=0x851d2f40;
_Z4stepDv4_fS_=0x8527d920;
_Z4stepDv8_dS_=0x850fadc0;
_Z4stepDv8_fS_=0x8517bda0;
_Z4stepfDv16_f=0x85097aa0;
_Z4stepfDv3_f=0x8529a7a0;
_Z4stepfDv4_f=0x8527d9c0;
_Z4stepfDv8_f=0x85170da0;
_Z4tanhDv16_d=0x850ed2c0;
_Z4tanhDv16_f=0x8518f1a0;
_Z4tanhDv2_d=0x852cde00;
_Z4tanhDv2_f=0x852cde40;
_Z4tanhDv3_d=0x8526a7c0;
_Z4tanhDv3_f=0x852b88a0;
_Z4tanhDv4_d=0x85251ec0;
_Z4tanhDv4_f=0x852b8900;
_Z4tanhDv8_d=0x851ed140;
_Z4tanhDv8_f=0x85230da0;
_Z5acoshDv16_d=0x850ed660;
_Z5acoshDv16_f=0x8518f380;
_Z5acoshDv2_d=0x852cde80;
_Z5acoshDv2_f=0x852cdec0;
_Z5acoshDv3_d=0x8526a880;
_Z5acoshDv3_f=0x852b8960;
_Z5acoshDv4_d=0x85251fa0;
_Z5acoshDv4_f=0x852b89c0;
_Z5acoshDv8_d=0x851ed2a0;
_Z5acoshDv8_f=0x85230ea0;
_Z5asinhDv16_d=0x850eda00;
_Z5asinhDv16_f=0x8518f560;
_Z5asinhDv2_d=0x852cdf00;
_Z5asinhDv2_f=0x852cdf40;
_Z5asinhDv3_d=0x8526a940;
_Z5asinhDv3_f=0x852b8a20;
_Z5asinhDv4_d=0x85252080;
_Z5asinhDv4_f=0x852b8a80;
_Z5asinhDv8_d=0x851ed400;
_Z5asinhDv8_f=0x85230fa0;
_Z5atan2Dv16_dS_=0x850b3320;
_Z5atan2Dv16_fS_=0x85170fc0;
_Z5atan2Dv2_dS_=0x852b8ae0;
_Z5atan2Dv2_fS_=0x852cdf80;
_Z5atan2Dv3_dS_=0x85252160;
_Z5atan2Dv3_fS_=0x8529a820;
_Z5atan2Dv4_dS_=0x8521b460;
_Z5atan2Dv4_fS_=0x8529a8a0;
_Z5atan2Dv8_dS_=0x851b8260;
_Z5atan2Dv8_fS_=0x85204300;
_Z5atanhDv16_d=0x850edda0;
_Z5atanhDv16_f=0x8518f740;
_Z5atanhDv2_d=0x852cdfc0;
_Z5atanhDv2_f=0x852ce000;
_Z5atanhDv3_d=0x8526aa00;
_Z5atanhDv3_f=0x852b8b40;
_Z5atanhDv4_d=0x85252240;
_Z5atanhDv4_f=0x852b8ba0;
_Z5atanhDv8_d=0x851ed560;
_Z5atanhDv8_f=0x852310a0;
_Z5clampDv16_ccc=0x8509b7a0;
_Z5clampDv16_cS_S_=0x850867c0;
_Z5clampDv16_ddd=0x8502d120;
_Z5clampDv16_dS_S_=0x8501ddc0;
_Z5clampDv16_fff=0x85059980;
_Z5clampDv16_fS_S_=0x85054200;
_Z5clampDv16_hhh=0x8527db00;
_Z5clampDv16_hS_S_=0x8527da60;
_Z5clampDv16_iii=0x850930c0;
_Z5clampDv16_iS_S_=0x8508ce00;
_Z5clampDv16_jjj=0x8505ac80;
_Z5clampDv16_jS_S_=0x8504b2c0;
_Z5clampDv16_lll=0x8503e980;
_Z5clampDv16_lS_S_=0x850312a0;
_Z5clampDv16_mmm=0x85019a40;
_Z5clampDv16_mS_S_=0x85014d00;
_Z5clampDv16_sS_S_=0x851d3240;
_Z5clampDv16_sss=0x851ed6c0;
_Z5clampDv16_tS_S_=0x8508d3e0;
_Z5clampDv16_ttt=0x850bcde0;
_Z5clampDv2_ccc=0x8527dc40;
_Z5clampDv2_cS_S_=0x8527dba0;
_Z5clampDv2_ddd=0x8527dd80;
_Z5clampDv2_dS_S_=0x8527dce0;
_Z5clampDv2_fff=0x8529a920;
_Z5clampDv2_fS_S_=0x852b8c00;
_Z5clampDv2_hhh=0x8527dec0;
_Z5clampDv2_hS_S_=0x8527de20;
_Z5clampDv2_iii=0x8529a9a0;
_Z5clampDv2_iS_S_=0x852b8c60;
_Z5clampDv2_jjj=0x852b8d20;
_Z5clampDv2_jS_S_=0x852b8cc0;
_Z5clampDv2_lll=0x8526ab80;
_Z5clampDv2_lS_S_=0x8526aac0;
_Z5clampDv2_mmm=0x8526ad00;
_Z5clampDv2_mS_S_=0x8526ac40;
_Z5clampDv2_sS_S_=0x852b8d80;
_Z5clampDv2_sss=0x852b8de0;
_Z5clampDv2_tS_S_=0x8529aa20;
_Z5clampDv2_ttt=0x8529aaa0;
_Z5clampDv3_ccc=0x85252320;
_Z5clampDv3_cS_S_=0x8521b580;
_Z5clampDv3_ddd=0x851a5ce0;
_Z5clampDv3_dS_S_=0x8518f920;
_Z5clampDv3_fff=0x8526adc0;
_Z5clampDv3_fS_S_=0x8527df60;
_Z5clampDv3_hhh=0x85252400;
_Z5clampDv3_hS_S_=0x8521b6a0;
_Z5clampDv3_iii=0x8527e0a0;
_Z5clampDv3_iS_S_=0x8527e000;
_Z5clampDv3_jjj=0x8526ae80;
_Z5clampDv3_jS_S_=0x8527e140;
_Z5clampDv3_lll=0x851ed820;
_Z5clampDv3_lS_S_=0x85204440;
_Z5clampDv3_mmm=0x8518fce0;
_Z5clampDv3_mS_S_=0x8518fb00;
_Z5clampDv3_sS_S_=0x8527e1e0;
_Z5clampDv3_sss=0x8527e280;
_Z5clampDv3_tS_S_=0x852311a0;
_Z5clampDv3_ttt=0x852312a0;
_Z5clampDv4_ccc=0x85204580;
_Z5clampDv4_cS_S_=0x851ed980;
_Z5clampDv4_ddd=0x8513e500;
_Z5clampDv4_dS_S_=0x851366c0;
_Z5clampDv4_fff=0x852313a0;
_Z5clampDv4_fS_S_=0x852524e0;
_Z5clampDv4_hhh=0x852b8e40;
_Z5clampDv4_hS_S_=0x852ce040;
_Z5clampDv4_iii=0x8526b000;
_Z5clampDv4_iS_S_=0x8526af40;
_Z5clampDv4_jjj=0x8526b180;
_Z5clampDv4_jS_S_=0x8526b0c0;
_Z5clampDv4_lll=0x851b8400;
_Z5clampDv4_lS_S_=0x851a5ea0;
_Z5clampDv4_mmm=0x85136980;
_Z5clampDv4_mS_S_=0x851165e0;
_Z5clampDv4_sS_S_=0x852b8ea0;
_Z5clampDv4_sss=0x852b8f00;
_Z5clampDv4_tS_S_=0x8526b240;
_Z5clampDv4_ttt=0x8526b300;
_Z5clampDv8_ccc=0x85161700;
_Z5clampDv8_cS_S_=0x8513e7a0;
_Z5clampDv8_ddd=0x85082940;
_Z5clampDv8_dS_S_=0x85077100;
_Z5clampDv8_fff=0x85102fe0;
_Z5clampDv8_fS_S_=0x850ee140;
_Z5clampDv8_hhh=0x852b8f60;
_Z5clampDv8_hS_S_=0x852ce080;
_Z5clampDv8_iii=0x8517bfa0;
_Z5clampDv8_iS_S_=0x85161940;
_Z5clampDv8_jjj=0x85103340;
_Z5clampDv8_jS_S_=0x850d1b00;
_Z5clampDv8_lll=0x850fb140;
_Z5clampDv8_lS_S_=0x850a9dc0;
_Z5clampDv8_mmm=0x85064380;
_Z5clampDv8_mS_S_=0x8504bd20;
_Z5clampDv8_sS_S_=0x8527e320;
_Z5clampDv8_sss=0x8527e3c0;
_Z5clampDv8_tS_S_=0x851b85a0;
_Z5clampDv8_ttt=0x851d33c0;
_Z5cospiDv16_d=0x850ee4e0;
_Z5cospiDv16_f=0x8518fec0;
_Z5cospiDv2_d=0x852ce0c0;
_Z5cospiDv2_f=0x852ce100;
_Z5cospiDv3_d=0x8526b3c0;
_Z5cospiDv3_f=0x852b8fc0;
_Z5cospiDv4_d=0x852525c0;
_Z5cospiDv4_f=0x852b9020;
_Z5cospiDv8_d=0x851edae0;
_Z5cospiDv8_f=0x852314a0;
_Z5crossDv3_dS_=0x8527e460;
_Z5crossDv3_fS_=0x852ce140;
_Z5crossDv4_dS_=0x8527e500;
_Z5crossDv4_fS_=0x852ce180;
_Z5exp10Dv16_d=0x850ee880;
_Z5exp10Dv16_f=0x851900a0;
_Z5exp10Dv2_d=0x852ce1c0;
_Z5exp10Dv2_f=0x852ce200;
_Z5exp10Dv3_d=0x8526b480;
_Z5exp10Dv3_f=0x852b9080;
_Z5exp10Dv4_d=0x852526a0;
_Z5exp10Dv4_f=0x852b90e0;
_Z5exp10Dv8_d=0x851edc40;
_Z5exp10Dv8_f=0x852315a0;
_Z5expm1Dv16_d=0x850eec20;
_Z5expm1Dv16_f=0x85190280;
_Z5expm1Dv2_d=0x852ce240;
_Z5expm1Dv2_f=0x852ce280;
_Z5expm1Dv3_d=0x8526b540;
_Z5expm1Dv3_f=0x852b9140;
_Z5expm1Dv4_d=0x85252780;
_Z5expm1Dv4_f=0x852b91a0;
_Z5expm1Dv8_d=0x851edda0;
_Z5expm1Dv8_f=0x852316a0;
_Z5floorDv16_d=0x850eefc0;
_Z5floorDv16_f=0x85190460;
_Z5floorDv2_d=0x852ce2c0;
_Z5floorDv2_f=0x852ce300;
_Z5floorDv3_d=0x8526b600;
_Z5floorDv3_f=0x852b9200;
_Z5floorDv4_d=0x85252860;
_Z5floorDv4_f=0x852b9260;
_Z5floorDv8_d=0x851edf00;
_Z5floorDv8_f=0x852317a0;
_Z5fractdPd=0x8527e6e0;
_Z5fractdPU7CLlocald=0x8527e5a0;
_Z5fractdPU8CLglobald=0x8527e640;
_Z5fractDv16_dPS_=0x850aa2a0;
_Z5fractDv16_dPU7CLlocalS_=0x850aa780;
_Z5fractDv16_dPU8CLglobalS_=0x850aac60;
_Z5fractDv16_fPS_=0x8511e320;
_Z5fractDv16_fPU7CLlocalS_=0x8511e620;
_Z5fractDv16_fPU8CLglobalS_=0x8511e920;
_Z5fractDv2_dPS_=0x8521b7c0;
_Z5fractDv2_dPU7CLlocalS_=0x8521b8e0;
_Z5fractDv2_dPU8CLglobalS_=0x8521ba00;
_Z5fractDv2_fPS_=0x8526b6c0;
_Z5fractDv2_fPU7CLlocalS_=0x8526b780;
_Z5fractDv2_fPU8CLglobalS_=0x8526b840;
_Z5fractDv3_dPS_=0x8517c1a0;
_Z5fractDv3_dPU7CLlocalS_=0x8517c3a0;
_Z5fractDv3_dPU8CLglobalS_=0x8517c5a0;
_Z5fractDv3_fPS_=0x852046c0;
_Z5fractDv3_fPU7CLlocalS_=0x85204800;
_Z5fractDv3_fPU8CLglobalS_=0x85204940;
_Z5fractDv4_dPS_=0x8517c7a0;
_Z5fractDv4_dPU7CLlocalS_=0x8517c9a0;
_Z5fractDv4_dPU8CLglobalS_=0x8517cba0;
_Z5fractDv4_fPS_=0x85204a80;
_Z5fractDv4_fPU7CLlocalS_=0x85204bc0;
_Z5fractDv4_fPU8CLglobalS_=0x85204d00;
_Z5fractDv8_dPS_=0x85148180;
_Z5fractDv8_dPU7CLlocalS_=0x85148400;
_Z5fractDv8_dPU8CLglobalS_=0x85148680;
_Z5fractDv8_fPS_=0x8517cda0;
_Z5fractDv8_fPU7CLlocalS_=0x8517cfa0;
_Z5fractDv8_fPU8CLglobalS_=0x8517d1a0;
_Z5fractfPf=0x8529ac20;
_Z5fractfPU7CLlocalf=0x8529ab20;
_Z5fractfPU8CLglobalf=0x8529aba0;
_Z5frexpdPi=0x852e78e0;
_Z5frexpdPU7CLlocali=0x852e78a0;
_Z5frexpdPU8CLglobali=0x852e78c0;
_Z5frexpDv16_dPDv16_i=0x850d4fe0;
_Z5frexpDv16_dPU7CLlocalDv16_i=0x850d53e0;
_Z5frexpDv16_dPU8CLglobalDv16_i=0x850d57e0;
_Z5frexpDv16_fPDv16_i=0x8517d3a0;
_Z5frexpDv16_fPU7CLlocalDv16_i=0x8517d5a0;
_Z5frexpDv16_fPU8CLglobalDv16_i=0x8517d7a0;
_Z5frexpDv2_dPDv2_i=0x852b92c0;
_Z5frexpDv2_dPU7CLlocalDv2_i=0x852b9320;
_Z5frexpDv2_dPU8CLglobalDv2_i=0x852b9380;
_Z5frexpDv2_fPDv2_i=0x852b93e0;
_Z5frexpDv2_fPU7CLlocalDv2_i=0x852b9440;
_Z5frexpDv2_fPU8CLglobalDv2_i=0x852b94a0;
_Z5frexpDv3_dPDv3_i=0x8526b900;
_Z5frexpDv3_dPU7CLlocalDv3_i=0x8526b9c0;
_Z5frexpDv3_dPU8CLglobalDv3_i=0x8526ba80;
_Z5frexpDv3_fPDv3_i=0x852b9500;
_Z5frexpDv3_fPU7CLlocalDv3_i=0x852b9560;
_Z5frexpDv3_fPU8CLglobalDv3_i=0x852b95c0;
_Z5frexpDv4_dPDv4_i=0x852318a0;
_Z5frexpDv4_dPU7CLlocalDv4_i=0x852319a0;
_Z5frexpDv4_dPU8CLglobalDv4_i=0x85231aa0;
_Z5frexpDv4_fPDv4_i=0x8529aca0;
_Z5frexpDv4_fPU7CLlocalDv4_i=0x8529ad20;
_Z5frexpDv4_fPU8CLglobalDv4_i=0x8529ada0;
_Z5frexpDv8_dPDv8_i=0x851d3540;
_Z5frexpDv8_dPU7CLlocalDv8_i=0x851d36c0;
_Z5frexpDv8_dPU8CLglobalDv8_i=0x851d3840;
_Z5frexpDv8_fPDv8_i=0x85204e40;
_Z5frexpDv8_fPU7CLlocalDv8_i=0x85204f80;
_Z5frexpDv8_fPU8CLglobalDv8_i=0x852050c0;
_Z5frexpfPi=0x852e7940;
_Z5frexpfPU7CLlocali=0x852e7900;
_Z5frexpfPU8CLglobali=0x852e7920;
_Z5hypotDv16_dS_=0x850b37e0;
_Z5hypotDv16_fS_=0x851711e0;
_Z5hypotDv2_dS_=0x852b9620;
_Z5hypotDv2_fS_=0x852ce340;
_Z5hypotDv3_dS_=0x85252940;
_Z5hypotDv3_fS_=0x8529ae20;
_Z5hypotDv4_dS_=0x8521bb20;
_Z5hypotDv4_fS_=0x8529aea0;
_Z5hypotDv8_dS_=0x851b8740;
_Z5hypotDv8_fS_=0x85205200;
_Z5ilogbDv16_d=0x8517d9a0;
_Z5ilogbDv16_f=0x85190640;
_Z5ilogbDv2_d=0x852ce380;
_Z5ilogbDv2_f=0x852ce3c0;
_Z5ilogbDv3_d=0x852b9680;
_Z5ilogbDv3_f=0x852b96e0;
_Z5ilogbDv4_d=0x8529af20;
_Z5ilogbDv4_f=0x852b9740;
_Z5ilogbDv8_d=0x85205340;
_Z5ilogbDv8_f=0x85231ba0;
_Z5isinfDv16_d=0x8513ea40;
_Z5isinfDv16_f=0x851d39c0;
_Z5isinfDv2_d=0x852ce400;
_Z5isinfDv2_f=0x852ce440;
_Z5isinfDv3_d=0x8527e780;
_Z5isinfDv3_f=0x852ce480;
_Z5isinfDv4_d=0x8526bb40;
_Z5isinfDv4_f=0x852b97a0;
_Z5isinfDv8_d=0x851ee060;
_Z5isinfDv8_f=0x85252a20;
_Z5isnanDv16_d=0x85161b80;
_Z5isnanDv16_f=0x851d3b40;
_Z5isnanDv2_d=0x852ce4c0;
_Z5isnanDv2_f=0x852ce500;
_Z5isnanDv3_d=0x8529afa0;
_Z5isnanDv3_f=0x852ce540;
_Z5isnanDv4_d=0x8526bc00;
_Z5isnanDv4_f=0x852b9800;
_Z5isnanDv8_d=0x85205480;
_Z5isnanDv8_f=0x85252b00;
_Z5ldexpDv16_dDv16_i=0x850d1f20;
_Z5ldexpDv16_fDv16_i=0x85171400;
_Z5ldexpDv2_dDv2_i=0x852b9860;
_Z5ldexpDv2_fDv2_i=0x852ce580;
_Z5ldexpDv3_dDv3_i=0x85252be0;
_Z5ldexpDv3_fDv3_i=0x8529b020;
_Z5ldexpDv4_dDv4_i=0x85231ca0;
_Z5ldexpDv4_fDv4_i=0x8529b0a0;
_Z5ldexpDv8_dDv8_i=0x851d3cc0;
_Z5ldexpDv8_fDv8_i=0x852055c0;
_Z5log10Dv16_d=0x850ef360;
_Z5log10Dv16_f=0x85190820;
_Z5log10Dv2_d=0x852ce5c0;
_Z5log10Dv2_f=0x852ce600;
_Z5log10Dv3_d=0x8526bcc0;
_Z5log10Dv3_f=0x852b98c0;
_Z5log10Dv4_d=0x85252cc0;
_Z5log10Dv4_f=0x852b9920;
_Z5log10Dv8_d=0x851ee1c0;
_Z5log10Dv8_f=0x85231da0;
_Z5log1pDv16_d=0x850ef700;
_Z5log1pDv16_f=0x85190a00;
_Z5log1pDv2_d=0x852ce640;
_Z5log1pDv2_f=0x852ce680;
_Z5log1pDv3_d=0x8526bd80;
_Z5log1pDv3_f=0x852b9980;
_Z5log1pDv4_d=0x85252da0;
_Z5log1pDv4_f=0x852b99e0;
_Z5log1pDv8_d=0x851ee320;
_Z5log1pDv8_f=0x85231ea0;
_Z5rhaddDv16_cS_=0x851036a0;
_Z5rhaddDv16_iS_=0x85148900;
_Z5rhaddDv16_jS_=0x850c12a0;
_Z5rhaddDv16_lS_=0x85054be0;
_Z5rhaddDv16_mS_=0x8503c480;
_Z5rhaddDv16_tS_=0x850d5be0;
_Z5rhaddDv2_cS_=0x852b9a40;
_Z5rhaddDv2_iS_=0x852ce6c0;
_Z5rhaddDv2_jS_=0x852ce700;
_Z5rhaddDv2_lS_=0x8527e820;
_Z5rhaddDv2_mS_=0x8527e8c0;
_Z5rhaddDv2_tS_=0x852ce740;
_Z5rhaddDv3_cS_=0x8529b120;
_Z5rhaddDv3_iS_=0x852b9aa0;
_Z5rhaddDv3_jS_=0x852b9b00;
_Z5rhaddDv3_lS_=0x85190be0;
_Z5rhaddDv3_mS_=0x85171620;
_Z5rhaddDv3_tS_=0x852b9b60;
_Z5rhaddDv4_cS_=0x8526be40;
_Z5rhaddDv4_iS_=0x852b9bc0;
_Z5rhaddDv4_jS_=0x852b9c20;
_Z5rhaddDv4_lS_=0x8513ece0;
_Z5rhaddDv4_mS_=0x8513ef80;
_Z5rhaddDv4_tS_=0x852ce780;
_Z5rhaddDv8_cS_=0x851b88e0;
_Z5rhaddDv8_iS_=0x85205700;
_Z5rhaddDv8_jS_=0x851b8a80;
_Z5rhaddDv8_lS_=0x850bd280;
_Z5rhaddDv8_mS_=0x8508d9c0;
_Z5rhaddDv8_tS_=0x852b9c80;
_Z5rootnDv16_dDv16_i=0x850d2340;
_Z5rootnDv16_fDv16_i=0x85171840;
_Z5rootnDv2_dDv2_i=0x852b9ce0;
_Z5rootnDv2_fDv2_i=0x852ce7c0;
_Z5rootnDv3_dDv3_i=0x85252e80;
_Z5rootnDv3_fDv3_i=0x8529b1a0;
_Z5rootnDv4_dDv4_i=0x85231fa0;
_Z5rootnDv4_fDv4_i=0x8529b220;
_Z5rootnDv8_dDv8_i=0x851d3e40;
_Z5rootnDv8_fDv8_i=0x85205840;
_Z5roundDv16_d=0x850efaa0;
_Z5roundDv16_f=0x85190dc0;
_Z5roundDv2_d=0x852ce800;
_Z5roundDv2_f=0x852ce840;
_Z5roundDv3_d=0x8526bf00;
_Z5roundDv3_f=0x852b9d40;
_Z5roundDv4_d=0x85252f60;
_Z5roundDv4_f=0x852b9da0;
_Z5roundDv8_d=0x851ee480;
_Z5roundDv8_f=0x852320a0;
_Z5rsqrtDv16_d=0x850efe40;
_Z5rsqrtDv16_f=0x85190fa0;
_Z5rsqrtDv2_d=0x852ce880;
_Z5rsqrtDv2_f=0x852ce8c0;
_Z5rsqrtDv3_d=0x8526bfc0;
_Z5rsqrtDv3_f=0x852b9e00;
_Z5rsqrtDv4_d=0x85253040;
_Z5rsqrtDv4_f=0x852b9e60;
_Z5rsqrtDv8_d=0x851ee5e0;
_Z5rsqrtDv8_f=0x852321a0;
_Z5sinpiDv16_d=0x850f01e0;
_Z5sinpiDv16_f=0x85191180;
_Z5sinpiDv2_d=0x852ce900;
_Z5sinpiDv2_f=0x852ce940;
_Z5sinpiDv3_d=0x8526c080;
_Z5sinpiDv3_f=0x852b9ec0;
_Z5sinpiDv4_d=0x85253120;
_Z5sinpiDv4_f=0x852b9f20;
_Z5sinpiDv8_d=0x851ee740;
_Z5sinpiDv8_f=0x852322a0;
_Z5tanpiDv16_d=0x850f0580;
_Z5tanpiDv16_f=0x85191360;
_Z5tanpiDv2_d=0x852ce980;
_Z5tanpiDv2_f=0x852ce9c0;
_Z5tanpiDv3_d=0x8526c140;
_Z5tanpiDv3_f=0x852b9f80;
_Z5tanpiDv4_d=0x85253200;
_Z5tanpiDv4_f=0x852b9fe0;
_Z5tanpiDv8_d=0x851ee8a0;
_Z5tanpiDv8_f=0x852323a0;
_Z5truncDv16_d=0x850f0920;
_Z5truncDv16_f=0x85191540;
_Z5truncDv2_d=0x852cea00;
_Z5truncDv2_f=0x852cea40;
_Z5truncDv3_d=0x8526c200;
_Z5truncDv3_f=0x852ba040;
_Z5truncDv4_d=0x852532e0;
_Z5truncDv4_f=0x852ba0a0;
_Z5truncDv8_d=0x851eea00;
_Z5truncDv8_f=0x852324a0;
_Z6acospiDv16_d=0x850cc680;
_Z6acospiDv16_f=0x85148b80;
_Z6acospiDv2_d=0x852ba100;
_Z6acospiDv2_f=0x852ba160;
_Z6acospiDv3_d=0x852533c0;
_Z6acospiDv3_f=0x8529b2a0;
_Z6acospiDv4_d=0x8521bc40;
_Z6acospiDv4_f=0x8526c2c0;
_Z6acospiDv8_d=0x851b8c20;
_Z6acospiDv8_f=0x851d3fc0;
_Z6asinpiDv16_d=0x850ccac0;
_Z6asinpiDv16_f=0x85148e00;
_Z6asinpiDv2_d=0x852ba1c0;
_Z6asinpiDv2_f=0x852ba220;
_Z6asinpiDv3_d=0x852534a0;
_Z6asinpiDv3_f=0x8529b320;
_Z6asinpiDv4_d=0x8521bd60;
_Z6asinpiDv4_f=0x8526c380;
_Z6asinpiDv8_d=0x851b8dc0;
_Z6asinpiDv8_f=0x851d4140;
_Z6atanpiDv16_d=0x850ccf00;
_Z6atanpiDv16_f=0x85149080;
_Z6atanpiDv2_d=0x852ba280;
_Z6atanpiDv2_f=0x852ba2e0;
_Z6atanpiDv3_d=0x85253580;
_Z6atanpiDv3_f=0x8529b3a0;
_Z6atanpiDv4_d=0x8521be80;
_Z6atanpiDv4_f=0x8526c440;
_Z6atanpiDv8_d=0x851b8f60;
_Z6atanpiDv8_f=0x851d42c0;
_Z6islessDv16_dS_=0x8502c040;
_Z6islessDv16_fS_=0x8521bfa0;
_Z6islessDv2_dS_=0x8517dba0;
_Z6islessDv2_fS_=0x852e7960;
_Z6islessDv3_dS_=0x85103a00;
_Z6islessDv3_fS_=0x852cea80;
_Z6islessDv4_dS_=0x850c5140;
_Z6islessDv4_fS_=0x852ceac0;
_Z6islessDv8_dS_=0x85069e20;
_Z6islessDv8_fS_=0x8526c500;
_Z6lengthDv2_d=0x852325a0;
_Z6lengthDv2_f=0x8526c5c0;
_Z6lengthDv3_d=0x851b9100;
_Z6lengthDv3_f=0x85205980;
_Z6lengthDv4_d=0x85191720;
_Z6lengthDv4_f=0x851d4440;
_Z6lgammaDv16_d=0x850f0cc0;
_Z6lgammaDv16_f=0x85191900;
_Z6lgammaDv2_d=0x852ceb00;
_Z6lgammaDv2_f=0x852ceb40;
_Z6lgammaDv3_d=0x8526c680;
_Z6lgammaDv3_f=0x852ba340;
_Z6lgammaDv4_d=0x85253660;
_Z6lgammaDv4_f=0x852ba3a0;
_Z6lgammaDv8_d=0x851eeb60;
_Z6lgammaDv8_f=0x852326a0;
_Z6maxmagDv16_dS_=0x850b3ca0;
_Z6maxmagDv16_fS_=0x85171a60;
_Z6maxmagDv2_dS_=0x852ba400;
_Z6maxmagDv2_fS_=0x852ceb80;
_Z6maxmagDv3_dS_=0x85253740;
_Z6maxmagDv3_fS_=0x8529b420;
_Z6maxmagDv4_dS_=0x8521c0c0;
_Z6maxmagDv4_fS_=0x8529b4a0;
_Z6maxmagDv8_dS_=0x851b92a0;
_Z6maxmagDv8_fS_=0x85205ac0;
_Z6minmagDv16_dS_=0x850b4160;
_Z6minmagDv16_fS_=0x85171c80;
_Z6minmagDv2_dS_=0x852ba460;
_Z6minmagDv2_fS_=0x852cebc0;
_Z6minmagDv3_dS_=0x85253820;
_Z6minmagDv3_fS_=0x8529b520;
_Z6minmagDv4_dS_=0x8521c1e0;
_Z6minmagDv4_fS_=0x8529b5a0;
_Z6minmagDv8_dS_=0x851b9440;
_Z6minmagDv8_fS_=0x85205c00;
_Z6mul_hiDv16_cS_=0x851b95e0;
_Z6mul_hiDv16_hS_=0x851b9780;
_Z6mul_hiDv16_iS_=0x8521c300;
_Z6mul_hiDv16_jS_=0x8521c420;
_Z6mul_hiDv16_lS_=0x85007520;
_Z6mul_hiDv16_mS_=0x8500bc80;
_Z6mul_hiDv16_sS_=0x851eecc0;
_Z6mul_hiDv16_tS_=0x851eee20;
_Z6mul_hiDv2_cS_=0x852cec00;
_Z6mul_hiDv2_hS_=0x852cec40;
_Z6mul_hiDv2_iS_=0x852e7980;
_Z6mul_hiDv2_jS_=0x852e79a0;
_Z6mul_hiDv2_lS_=0x85191ae0;
_Z6mul_hiDv2_mS_=0x85191cc0;
_Z6mul_hiDv2_sS_=0x852e79c0;
_Z6mul_hiDv2_tS_=0x852e79e0;
_Z6mul_hiDv3_cS_=0x852ba4c0;
_Z6mul_hiDv3_hS_=0x852ba520;
_Z6mul_hiDv3_iS_=0x852e7a00;
_Z6mul_hiDv3_jS_=0x852e7a20;
_Z6mul_hiDv3_lS_=0x85116900;
_Z6mul_hiDv3_mS_=0x85129f80;
_Z6mul_hiDv3_sS_=0x852cec80;
_Z6mul_hiDv3_tS_=0x852cecc0;
_Z6mul_hiDv4_cS_=0x852ba580;
_Z6mul_hiDv4_hS_=0x852ba5e0;
_Z6mul_hiDv4_iS_=0x852e7a40;
_Z6mul_hiDv4_jS_=0x852e7a60;
_Z6mul_hiDv4_lS_=0x850ab140;
_Z6mul_hiDv4_mS_=0x850cd340;
_Z6mul_hiDv4_sS_=0x852ced00;
_Z6mul_hiDv4_tS_=0x852ced40;
_Z6mul_hiDv8_cS_=0x8526c740;
_Z6mul_hiDv8_hS_=0x8526c800;
_Z6mul_hiDv8_iS_=0x8527e960;
_Z6mul_hiDv8_jS_=0x8527ea00;
_Z6mul_hiDv8_lS_=0x85036a80;
_Z6mul_hiDv8_mS_=0x85041920;
_Z6mul_hiDv8_sS_=0x8529b620;
_Z6mul_hiDv8_tS_=0x8529b6a0;
_Z6mul_hill=0x852327a0;
_Z6mul_himm=0x85253900;
_Z6remquoDv16_dS_PDv16_i=0x850a4ea0;
_Z6remquoDv16_dS_PU7CLlocalDv16_i=0x850a53a0;
_Z6remquoDv16_dS_PU8CLglobalDv16_i=0x850a58a0;
_Z6remquoDv16_fS_PDv16_i=0x85153aa0;
_Z6remquoDv16_fS_PU7CLlocalDv16_i=0x85153d00;
_Z6remquoDv16_fS_PU8CLglobalDv16_i=0x85153f60;
_Z6remquoDv2_dS_PDv2_i=0x852ba640;
_Z6remquoDv2_dS_PU7CLlocalDv2_i=0x852ba6a0;
_Z6remquoDv2_dS_PU8CLglobalDv2_i=0x852ba700;
_Z6remquoDv2_fS_PDv2_i=0x852ba760;
_Z6remquoDv2_fS_PU7CLlocalDv2_i=0x852ba7c0;
_Z6remquoDv2_fS_PU8CLglobalDv2_i=0x852ba820;
_Z6remquoDv3_dS_PDv3_i=0x852539e0;
_Z6remquoDv3_dS_PU7CLlocalDv3_i=0x85253ac0;
_Z6remquoDv3_dS_PU8CLglobalDv3_i=0x85253ba0;
_Z6remquoDv3_fS_PDv3_i=0x8527eaa0;
_Z6remquoDv3_fS_PU7CLlocalDv3_i=0x8527eb40;
_Z6remquoDv3_fS_PU8CLglobalDv3_i=0x8527ebe0;
_Z6remquoDv4_dS_PDv4_i=0x85205d40;
_Z6remquoDv4_dS_PU7CLlocalDv4_i=0x85205e80;
_Z6remquoDv4_dS_PU8CLglobalDv4_i=0x85205fc0;
_Z6remquoDv4_fS_PDv4_i=0x8527ec80;
_Z6remquoDv4_fS_PU7CLlocalDv4_i=0x8527ed20;
_Z6remquoDv4_fS_PU8CLglobalDv4_i=0x8527edc0;
_Z6remquoDv8_dS_PDv8_i=0x851a6060;
_Z6remquoDv8_dS_PU7CLlocalDv8_i=0x851a6220;
_Z6remquoDv8_dS_PU8CLglobalDv8_i=0x851a63e0;
_Z6remquoDv8_fS_PDv8_i=0x851eef80;
_Z6remquoDv8_fS_PU7CLlocalDv8_i=0x851ef0e0;
_Z6remquoDv8_fS_PU8CLglobalDv8_i=0x851ef240;
_Z6rotatecc=0x852cee00;
_Z6rotateDv16_cS_=0x850d5fe0;
_Z6rotateDv16_hS_=0x850c55a0;
_Z6rotateDv16_iS_=0x852328a0;
_Z6rotateDv16_jS_=0x852329a0;
_Z6rotateDv16_lS_=0x85048860;
_Z6rotateDv16_mS_=0x85049300;
_Z6rotateDv16_sS_=0x850d63e0;
_Z6rotateDv16_tS_=0x850c1720;
_Z6rotateDv2_cS_=0x852ba880;
_Z6rotateDv2_hS_=0x8529b720;
_Z6rotateDv2_iS_=0x852e7a80;
_Z6rotateDv2_jS_=0x852e7aa0;
_Z6rotateDv2_lS_=0x8521c540;
_Z6rotateDv2_mS_=0x8521c660;
_Z6rotateDv2_sS_=0x852ba8e0;
_Z6rotateDv2_tS_=0x8529b7a0;
_Z6rotateDv3_cS_=0x8527ee60;
_Z6rotateDv3_hS_=0x8526c8c0;
_Z6rotateDv3_iS_=0x852e7ac0;
_Z6rotateDv3_jS_=0x852e7ae0;
_Z6rotateDv3_lS_=0x8517dda0;
_Z6rotateDv3_mS_=0x8517dfa0;
_Z6rotateDv3_sS_=0x8529b820;
_Z6rotateDv3_tS_=0x8527ef00;
_Z6rotateDv4_cS_=0x85253c80;
_Z6rotateDv4_hS_=0x85253d60;
_Z6rotateDv4_iS_=0x852ced80;
_Z6rotateDv4_jS_=0x852cedc0;
_Z6rotateDv4_lS_=0x851541c0;
_Z6rotateDv4_mS_=0x85154420;
_Z6rotateDv4_sS_=0x8526c980;
_Z6rotateDv4_tS_=0x85253e40;
_Z6rotateDv8_cS_=0x851a65a0;
_Z6rotateDv8_hS_=0x85191ea0;
_Z6rotateDv8_iS_=0x8527efa0;
_Z6rotateDv8_jS_=0x8527f040;
_Z6rotateDv8_lS_=0x850b4620;
_Z6rotateDv8_mS_=0x850b4ae0;
_Z6rotateDv8_sS_=0x851b9920;
_Z6rotateDv8_tS_=0x851a6760;
_Z6rotatehh=0x852cee40;
_Z6rotatell=0x8527f0e0;
_Z6rotatemm=0x8527f180;
_Z6rotatess=0x852cee80;
_Z6rotatett=0x852ceec0;
_Z6selectDv16_cS_Dv16_h=0x85192080;
_Z6selectDv16_cS_S_=0x85192260;
_Z6selectDv16_dS_Dv16_l=0x8507ede0;
_Z6selectDv16_dS_Dv16_m=0x8507f4a0;
_Z6selectDv16_fS_Dv16_i=0x850e2e60;
_Z6selectDv16_fS_Dv16_j=0x850e3220;
_Z6selectDv16_hS_Dv16_c=0x85192440;
_Z6selectDv16_hS_S_=0x85192620;
_Z6selectDv16_iS_Dv16_j=0x8517e1a0;
_Z6selectDv16_iS_S_=0x8517e3a0;
_Z6selectDv16_jS_Dv16_i=0x8517e5a0;
_Z6selectDv16_jS_S_=0x8517e7a0;
_Z6selectDv16_lS_Dv16_m=0x850a5da0;
_Z6selectDv16_lS_S_=0x850a62a0;
_Z6selectDv16_mS_Dv16_l=0x850a67a0;
_Z6selectDv16_mS_S_=0x850a6ca0;
_Z6selectDv16_sS_Dv16_t=0x85192800;
_Z6selectDv16_sS_S_=0x851929e0;
_Z6selectDv16_tS_Dv16_s=0x85192bc0;
_Z6selectDv16_tS_S_=0x85192da0;
_Z6selectDv2_cS_Dv2_h=0x852ba940;
_Z6selectDv2_cS_S_=0x852ba9a0;
_Z6selectDv2_dS_Dv2_l=0x852cef00;
_Z6selectDv2_dS_Dv2_m=0x852cef40;
_Z6selectDv2_fS_Dv2_i=0x852cef80;
_Z6selectDv2_fS_Dv2_j=0x852cefc0;
_Z6selectDv2_hS_Dv2_c=0x852baa00;
_Z6selectDv2_hS_S_=0x852baa60;
_Z6selectDv2_iS_Dv2_j=0x852cf000;
_Z6selectDv2_iS_S_=0x852cf040;
_Z6selectDv2_jS_Dv2_i=0x852cf080;
_Z6selectDv2_jS_S_=0x852cf0c0;
_Z6selectDv2_lS_Dv2_m=0x852cf100;
_Z6selectDv2_lS_S_=0x852cf140;
_Z6selectDv2_mS_Dv2_l=0x852cf180;
_Z6selectDv2_mS_S_=0x852cf1c0;
_Z6selectDv2_sS_Dv2_t=0x852cf200;
_Z6selectDv2_sS_S_=0x852cf240;
_Z6selectDv2_tS_Dv2_s=0x852cf280;
_Z6selectDv2_tS_S_=0x852cf2c0;
_Z6selectDv3_cS_Dv3_h=0x8529b8a0;
_Z6selectDv3_cS_S_=0x8529b920;
_Z6selectDv3_dS_Dv3_l=0x851b9ac0;
_Z6selectDv3_dS_Dv3_m=0x851b9c60;
_Z6selectDv3_fS_Dv3_i=0x852baac0;
_Z6selectDv3_fS_Dv3_j=0x852bab20;
_Z6selectDv3_hS_Dv3_c=0x8529b9a0;
_Z6selectDv3_hS_S_=0x8529ba20;
_Z6selectDv3_iS_Dv3_j=0x852bab80;
_Z6selectDv3_iS_S_=0x852babe0;
_Z6selectDv3_jS_Dv3_i=0x852bac40;
_Z6selectDv3_jS_S_=0x852baca0;
_Z6selectDv3_lS_Dv3_m=0x85206100;
_Z6selectDv3_lS_S_=0x85206240;
_Z6selectDv3_mS_Dv3_l=0x85206380;
_Z6selectDv3_mS_S_=0x852064c0;
_Z6selectDv3_sS_Dv3_t=0x852bad00;
_Z6selectDv3_sS_S_=0x852bad60;
_Z6selectDv3_tS_Dv3_s=0x852badc0;
_Z6selectDv3_tS_S_=0x852bae20;
_Z6selectDv4_cS_Dv4_h=0x852bae80;
_Z6selectDv4_cS_S_=0x852baee0;
_Z6selectDv4_dS_Dv4_l=0x8517e9a0;
_Z6selectDv4_dS_Dv4_m=0x8517eba0;
_Z6selectDv4_fS_Dv4_i=0x852baf40;
_Z6selectDv4_fS_Dv4_j=0x852bafa0;
_Z6selectDv4_hS_Dv4_c=0x852bb000;
_Z6selectDv4_hS_S_=0x852bb060;
_Z6selectDv4_iS_Dv4_j=0x852bb0c0;
_Z6selectDv4_iS_S_=0x852bb120;
_Z6selectDv4_jS_Dv4_i=0x852bb180;
_Z6selectDv4_jS_S_=0x852bb1e0;
_Z6selectDv4_lS_Dv4_m=0x851b9e00;
_Z6selectDv4_lS_S_=0x851b9fa0;
_Z6selectDv4_mS_Dv4_l=0x851ba140;
_Z6selectDv4_mS_S_=0x851ba2e0;
_Z6selectDv4_sS_Dv4_t=0x852cf300;
_Z6selectDv4_sS_S_=0x852cf340;
_Z6selectDv4_tS_Dv4_s=0x852cf380;
_Z6selectDv4_tS_S_=0x852cf3c0;
_Z6selectDv8_cS_Dv8_h=0x8526ca40;
_Z6selectDv8_cS_S_=0x8526cb00;
_Z6selectDv8_dS_Dv8_l=0x8510ea00;
_Z6selectDv8_dS_Dv8_m=0x8510ed40;
_Z6selectDv8_fS_Dv8_i=0x851ba480;
_Z6selectDv8_fS_Dv8_j=0x851ba620;
_Z6selectDv8_hS_Dv8_c=0x8526cbc0;
_Z6selectDv8_hS_S_=0x8526cc80;
_Z6selectDv8_iS_Dv8_j=0x8521c780;
_Z6selectDv8_iS_S_=0x8521c8a0;
_Z6selectDv8_jS_Dv8_i=0x8521c9c0;
_Z6selectDv8_jS_S_=0x8521cae0;
_Z6selectDv8_lS_Dv8_m=0x85154680;
_Z6selectDv8_lS_S_=0x851548e0;
_Z6selectDv8_mS_Dv8_l=0x85154b40;
_Z6selectDv8_mS_S_=0x85154da0;
_Z6selectDv8_sS_Dv8_t=0x852bb240;
_Z6selectDv8_sS_S_=0x852bb2a0;
_Z6selectDv8_tS_Dv8_s=0x852bb300;
_Z6selectDv8_tS_S_=0x852bb360;
_Z6sincosDv16_dPS_=0x850fb4c0;
_Z6sincosDv16_dPU7CLlocalS_=0x850fb840;
_Z6sincosDv16_dPU8CLglobalS_=0x850fbbc0;
_Z6sincosDv16_fPS_=0x85171ea0;
_Z6sincosDv16_fPU7CLlocalS_=0x851720c0;
_Z6sincosDv16_fPU8CLglobalS_=0x851722e0;
_Z6sincosDv2_dPS_=0x852bb3c0;
_Z6sincosDv2_dPU7CLlocalS_=0x852bb420;
_Z6sincosDv2_dPU8CLglobalS_=0x852bb480;
_Z6sincosDv2_fPS_=0x852bb4e0;
_Z6sincosDv2_fPU7CLlocalS_=0x852bb540;
_Z6sincosDv2_fPU8CLglobalS_=0x852bb5a0;
_Z6sincosDv3_dPS_=0x85253f20;
_Z6sincosDv3_dPU7CLlocalS_=0x85254000;
_Z6sincosDv3_dPU8CLglobalS_=0x852540e0;
_Z6sincosDv3_fPS_=0x8529baa0;
_Z6sincosDv3_fPU7CLlocalS_=0x8529bb20;
_Z6sincosDv3_fPU8CLglobalS_=0x8529bba0;
_Z6sincosDv4_dPS_=0x85232aa0;
_Z6sincosDv4_dPU7CLlocalS_=0x85232ba0;
_Z6sincosDv4_dPU8CLglobalS_=0x85232ca0;
_Z6sincosDv4_fPS_=0x8527f220;
_Z6sincosDv4_fPU7CLlocalS_=0x8527f2c0;
_Z6sincosDv4_fPU8CLglobalS_=0x8527f360;
_Z6sincosDv8_dPS_=0x851ba7c0;
_Z6sincosDv8_dPU7CLlocalS_=0x851ba960;
_Z6sincosDv8_dPU8CLglobalS_=0x851bab00;
_Z6sincosDv8_fPS_=0x85206600;
_Z6sincosDv8_fPU7CLlocalS_=0x85206740;
_Z6sincosDv8_fPU8CLglobalS_=0x85206880;
_Z6tgammaDv16_d=0x850f1060;
_Z6tgammaDv16_f=0x85192f80;
_Z6tgammaDv2_d=0x852cf400;
_Z6tgammaDv2_f=0x852cf440;
_Z6tgammaDv3_d=0x8526cd40;
_Z6tgammaDv3_f=0x852bb600;
_Z6tgammaDv4_d=0x852541c0;
_Z6tgammaDv4_f=0x852bb660;
_Z6tgammaDv8_d=0x851ef3a0;
_Z6tgammaDv8_f=0x85232da0;
_Z7add_satDv16_cS_=0x851baca0;
_Z7add_satDv16_hS_=0x851ef500;
_Z7add_satDv16_iS_=0x852542a0;
_Z7add_satDv16_jS_=0x8510f080;
_Z7add_satDv16_lS_=0x8500fc40;
_Z7add_satDv16_mS_=0x85066520;
_Z7add_satDv16_sS_=0x852069c0;
_Z7add_satDv16_tS_=0x85172500;
_Z7add_satDv2_cS_=0x852cf480;
_Z7add_satDv2_hS_=0x852cf4c0;
_Z7add_satDv2_iS_=0x852e7b00;
_Z7add_satDv2_jS_=0x852cf500;
_Z7add_satDv2_lS_=0x85206b00;
_Z7add_satDv2_mS_=0x8529bc20;
_Z7add_satDv2_sS_=0x852e7b20;
_Z7add_satDv2_tS_=0x852cf540;
_Z7add_satDv3_cS_=0x852bb6c0;
_Z7add_satDv3_hS_=0x852bb720;
_Z7add_satDv3_iS_=0x852e7b40;
_Z7add_satDv3_jS_=0x8529bca0;
_Z7add_satDv3_lS_=0x85161dc0;
_Z7add_satDv3_mS_=0x85254380;
_Z7add_satDv3_sS_=0x852cf580;
_Z7add_satDv3_tS_=0x852bb780;
_Z7add_satDv4_cS_=0x852bb7e0;
_Z7add_satDv4_hS_=0x852bb840;
_Z7add_satDv4_iS_=0x852cf5c0;
_Z7add_satDv4_jS_=0x8529bd20;
_Z7add_satDv4_lS_=0x85103d60;
_Z7add_satDv4_mS_=0x85206c40;
_Z7add_satDv4_sS_=0x852cf600;
_Z7add_satDv4_tS_=0x852bb8a0;
_Z7add_satDv8_cS_=0x85254460;
_Z7add_satDv8_hS_=0x8526ce00;
_Z7add_satDv8_iS_=0x8527f400;
_Z7add_satDv8_jS_=0x85193160;
_Z7add_satDv8_lS_=0x8504c780;
_Z7add_satDv8_mS_=0x85162000;
_Z7add_satDv8_sS_=0x8529bda0;
_Z7add_satDv8_tS_=0x85254540;
_Z7atan2piDv16_dS_=0x8509dce0;
_Z7atan2piDv16_fS_=0x85155000;
_Z7atan2piDv2_dS_=0x8529be20;
_Z7atan2piDv2_fS_=0x852bb900;
_Z7atan2piDv3_dS_=0x85232ea0;
_Z7atan2piDv3_fS_=0x8529bea0;
_Z7atan2piDv4_dS_=0x85206d80;
_Z7atan2piDv4_fS_=0x8527f4a0;
_Z7atan2piDv8_dS_=0x8517eda0;
_Z7atan2piDv8_fS_=0x85206ec0;
_Z7degreesDv16_d=0x85172720;
_Z7degreesDv16_f=0x8521cc00;
_Z7degreesDv3_d=0x8526cec0;
_Z7degreesDv3_f=0x852cf640;
_Z7degreesDv4_d=0x8526cf80;
_Z7degreesDv4_f=0x852bb960;
_Z7degreesDv8_d=0x8521cd20;
_Z7degreesDv8_f=0x8526d040;
_Z7isequalDv16_dS_=0x8504f0e0;
_Z7isequalDv16_fS_=0x8521ce40;
_Z7isequalDv2_dS_=0x8521cf60;
_Z7isequalDv2_fS_=0x852e7b60;
_Z7isequalDv3_dS_=0x851a6920;
_Z7isequalDv3_fS_=0x852cf680;
_Z7isequalDv4_dS_=0x85149300;
_Z7isequalDv4_fS_=0x852cf6c0;
_Z7isequalDv8_dS_=0x850bd720;
_Z7isequalDv8_fS_=0x8526d100;
_Z7mad_satDv16_cS_S_=0x850c5a00;
_Z7mad_satDv16_hS_S_=0x8511ec20;
_Z7mad_satDv16_iS_S_=0x85049da0;
_Z7mad_satDv16_jS_S_=0x850dd200;
_Z7mad_satDv16_lS_S_=0x85004080;
_Z7mad_satDv16_mS_S_=0x85024080;
_Z7mad_satDv16_sS_S_=0x850c5e60;
_Z7mad_satDv16_tS_S_=0x85136c40;
_Z7mad_satDv2_cS_S_=0x8529bf20;
_Z7mad_satDv2_hS_S_=0x852bb9c0;
_Z7mad_satDv2_iS_S_=0x8526d1c0;
_Z7mad_satDv2_jS_S_=0x852bba20;
_Z7mad_satDv2_lS_S_=0x85093680;
_Z7mad_satDv2_mS_S_=0x851bae40;
_Z7mad_satDv2_sS_S_=0x852bba80;
_Z7mad_satDv2_tS_S_=0x852bbae0;
_Z7mad_satDv3_cS_S_=0x8526d280;
_Z7mad_satDv3_hS_S_=0x8529bfa0;
_Z7mad_satDv3_iS_S_=0x8521d080;
_Z7mad_satDv3_jS_S_=0x8527f540;
_Z7mad_satDv3_lS_S_=0x8505fe60;
_Z7mad_satDv3_mS_S_=0x8511ef20;
_Z7mad_satDv3_sS_S_=0x8527f5e0;
_Z7mad_satDv3_tS_S_=0x8529c020;
_Z7mad_satDv4_cS_S_=0x85232fa0;
_Z7mad_satDv4_hS_S_=0x8527f680;
_Z7mad_satDv4_iS_S_=0x851bafe0;
_Z7mad_satDv4_jS_S_=0x8527f720;
_Z7mad_satDv4_lS_S_=0x8503dd60;
_Z7mad_satDv4_mS_S_=0x850dd5e0;
_Z7mad_satDv4_sS_S_=0x85254620;
_Z7mad_satDv4_tS_S_=0x8527f7c0;
_Z7mad_satDv8_cS_S_=0x8517efa0;
_Z7mad_satDv8_hS_S_=0x851ef660;
_Z7mad_satDv8_iS_S_=0x850dd9c0;
_Z7mad_satDv8_jS_S_=0x8517f1a0;
_Z7mad_satDv8_lS_S_=0x85018180;
_Z7mad_satDv8_mS_S_=0x8505db00;
_Z7mad_satDv8_sS_S_=0x85193340;
_Z7mad_satDv8_tS_S_=0x85207000;
_Z7radiansDv16_d=0x850d2760;
_Z7radiansDv16_f=0x85136f00;
_Z7radiansDv3_d=0x8521d1a0;
_Z7radiansDv3_f=0x8527f860;
_Z7radiansDv4_d=0x851ef7c0;
_Z7radiansDv4_f=0x8526d340;
_Z7radiansDv8_d=0x85172940;
_Z7radiansDv8_f=0x851bb180;
_Z7shuffleDv16_cDv16_h=0x851d45c0;
_Z7shuffleDv16_cDv16_j=0x85207140;
_Z7shuffleDv16_cDv16_m=0x851ef920;
_Z7shuffleDv16_cDv16_t=0x851efa80;
_Z7shuffleDv16_cDv2_h=0x852bbb40;
_Z7shuffleDv16_cDv2_j=0x852cf700;
_Z7shuffleDv16_cDv2_m=0x852cf740;
_Z7shuffleDv16_cDv2_t=0x852cf780;
_Z7shuffleDv16_cDv4_h=0x8529c0a0;
_Z7shuffleDv16_cDv4_j=0x852bbba0;
_Z7shuffleDv16_cDv4_m=0x8527f900;
_Z7shuffleDv16_cDv4_t=0x852bbc00;
_Z7shuffleDv16_cDv8_h=0x85254700;
_Z7shuffleDv16_cDv8_j=0x852330a0;
_Z7shuffleDv16_cDv8_m=0x8521d2c0;
_Z7shuffleDv16_cDv8_t=0x8526d400;
_Z7shuffleDv16_dDv16_h=0x851371c0;
_Z7shuffleDv16_dDv16_j=0x8511f220;
_Z7shuffleDv16_dDv16_m=0x85149580;
_Z7shuffleDv16_dDv16_t=0x85149800;
_Z7shuffleDv16_dDv2_h=0x8527f9a0;
_Z7shuffleDv16_dDv2_j=0x8527fa40;
_Z7shuffleDv16_dDv2_m=0x8527fae0;
_Z7shuffleDv16_dDv2_t=0x8527fb80;
_Z7shuffleDv16_dDv4_h=0x8521d3e0;
_Z7shuffleDv16_dDv4_j=0x8521d500;
_Z7shuffleDv16_dDv4_m=0x8521d620;
_Z7shuffleDv16_dDv4_t=0x8521d740;
_Z7shuffleDv16_dDv8_h=0x851d4740;
_Z7shuffleDv16_dDv8_j=0x851bb320;
_Z7shuffleDv16_dDv8_m=0x851efbe0;
_Z7shuffleDv16_dDv8_t=0x851d48c0;
_Z7shuffleDv16_fDv16_h=0x85162240;
_Z7shuffleDv16_fDv16_j=0x85155260;
_Z7shuffleDv16_fDv16_m=0x85193520;
_Z7shuffleDv16_fDv16_t=0x85193700;
_Z7shuffleDv16_fDv2_h=0x8529c120;
_Z7shuffleDv16_fDv2_j=0x8529c1a0;
_Z7shuffleDv16_fDv2_m=0x8527fc20;
_Z7shuffleDv16_fDv2_t=0x8529c220;
_Z7shuffleDv16_fDv4_h=0x8526d4c0;
_Z7shuffleDv16_fDv4_j=0x8526d580;
_Z7shuffleDv16_fDv4_m=0x8526d640;
_Z7shuffleDv16_fDv4_t=0x8526d700;
_Z7shuffleDv16_fDv8_h=0x851d4a40;
_Z7shuffleDv16_fDv8_j=0x851efd40;
_Z7shuffleDv16_fDv8_m=0x851efea0;
_Z7shuffleDv16_fDv8_t=0x851d4bc0;
_Z7shuffleDv16_hDv16_j=0x85207280;
_Z7shuffleDv16_hDv16_m=0x851f0000;
_Z7shuffleDv16_hDv16_t=0x851f0160;
_Z7shuffleDv16_hDv2_h=0x852bbc60;
_Z7shuffleDv16_hDv2_j=0x852cf7c0;
_Z7shuffleDv16_hDv2_m=0x852cf800;
_Z7shuffleDv16_hDv2_t=0x852cf840;
_Z7shuffleDv16_hDv4_h=0x8529c2a0;
_Z7shuffleDv16_hDv4_j=0x852bbcc0;
_Z7shuffleDv16_hDv4_m=0x8527fcc0;
_Z7shuffleDv16_hDv4_t=0x852bbd20;
_Z7shuffleDv16_hDv8_h=0x852547e0;
_Z7shuffleDv16_hDv8_j=0x852331a0;
_Z7shuffleDv16_hDv8_m=0x8521d860;
_Z7shuffleDv16_hDv8_t=0x8526d7c0;
_Z7shuffleDv16_hS_=0x851d4d40;
_Z7shuffleDv16_iDv16_h=0x85162480;
_Z7shuffleDv16_iDv16_j=0x851554c0;
_Z7shuffleDv16_iDv16_m=0x851938e0;
_Z7shuffleDv16_iDv16_t=0x85193ac0;
_Z7shuffleDv16_iDv2_h=0x8529c320;
_Z7shuffleDv16_iDv2_j=0x8529c3a0;
_Z7shuffleDv16_iDv2_m=0x8527fd60;
_Z7shuffleDv16_iDv2_t=0x8529c420;
_Z7shuffleDv16_iDv4_h=0x8526d880;
_Z7shuffleDv16_iDv4_j=0x8526d940;
_Z7shuffleDv16_iDv4_m=0x8526da00;
_Z7shuffleDv16_iDv4_t=0x8526dac0;
_Z7shuffleDv16_iDv8_h=0x851d4ec0;
_Z7shuffleDv16_iDv8_j=0x851f02c0;
_Z7shuffleDv16_iDv8_m=0x851f0420;
_Z7shuffleDv16_iDv8_t=0x851d5040;
_Z7shuffleDv16_jDv16_h=0x851626c0;
_Z7shuffleDv16_jDv16_m=0x85193ca0;
_Z7shuffleDv16_jDv16_t=0x85193e80;
_Z7shuffleDv16_jDv2_h=0x8529c4a0;
_Z7shuffleDv16_jDv2_j=0x8529c520;
_Z7shuffleDv16_jDv2_m=0x8527fe00;
_Z7shuffleDv16_jDv2_t=0x8529c5a0;
_Z7shuffleDv16_jDv4_h=0x8526db80;
_Z7shuffleDv16_jDv4_j=0x8526dc40;
_Z7shuffleDv16_jDv4_m=0x8526dd00;
_Z7shuffleDv16_jDv4_t=0x8526ddc0;
_Z7shuffleDv16_jDv8_h=0x851d51c0;
_Z7shuffleDv16_jDv8_j=0x851f0580;
_Z7shuffleDv16_jDv8_m=0x851f06e0;
_Z7shuffleDv16_jDv8_t=0x851d5340;
_Z7shuffleDv16_jS_=0x85155720;
_Z7shuffleDv16_lDv16_h=0x85137480;
_Z7shuffleDv16_lDv16_j=0x8511f520;
_Z7shuffleDv16_lDv16_m=0x85149a80;
_Z7shuffleDv16_lDv16_t=0x85149d00;
_Z7shuffleDv16_lDv2_h=0x8527fea0;
_Z7shuffleDv16_lDv2_j=0x8527ff40;
_Z7shuffleDv16_lDv2_m=0x8527ffe0;
_Z7shuffleDv16_lDv2_t=0x85280080;
_Z7shuffleDv16_lDv4_h=0x8521d980;
_Z7shuffleDv16_lDv4_j=0x8521daa0;
_Z7shuffleDv16_lDv4_m=0x8521dbc0;
_Z7shuffleDv16_lDv4_t=0x8521dce0;
_Z7shuffleDv16_lDv8_h=0x851d54c0;
_Z7shuffleDv16_lDv8_j=0x851bb4c0;
_Z7shuffleDv16_lDv8_m=0x851f0840;
_Z7shuffleDv16_lDv8_t=0x851d5640;
_Z7shuffleDv16_mDv16_h=0x85137740;
_Z7shuffleDv16_mDv16_j=0x8511f820;
_Z7shuffleDv16_mDv16_t=0x85149f80;
_Z7shuffleDv16_mDv2_h=0x85280120;
_Z7shuffleDv16_mDv2_j=0x852801c0;
_Z7shuffleDv16_mDv2_m=0x85280260;
_Z7shuffleDv16_mDv2_t=0x85280300;
_Z7shuffleDv16_mDv4_h=0x8521de00;
_Z7shuffleDv16_mDv4_j=0x8521df20;
_Z7shuffleDv16_mDv4_m=0x8521e040;
_Z7shuffleDv16_mDv4_t=0x8521e160;
_Z7shuffleDv16_mDv8_h=0x851d57c0;
_Z7shuffleDv16_mDv8_j=0x851bb660;
_Z7shuffleDv16_mDv8_m=0x851f09a0;
_Z7shuffleDv16_mDv8_t=0x851d5940;
_Z7shuffleDv16_mS_=0x8514a200;
_Z7shuffleDv16_sDv16_h=0x85155980;
_Z7shuffleDv16_sDv16_j=0x85194060;
_Z7shuffleDv16_sDv16_m=0x85172b60;
_Z7shuffleDv16_sDv16_t=0x8517f3a0;
_Z7shuffleDv16_sDv2_h=0x852803a0;
_Z7shuffleDv16_sDv2_j=0x8529c620;
_Z7shuffleDv16_sDv2_m=0x85280440;
_Z7shuffleDv16_sDv2_t=0x852804e0;
_Z7shuffleDv16_sDv4_h=0x8526de80;
_Z7shuffleDv16_sDv4_j=0x8526df40;
_Z7shuffleDv16_sDv4_m=0x852548c0;
_Z7shuffleDv16_sDv4_t=0x8526e000;
_Z7shuffleDv16_sDv8_h=0x8521e280;
_Z7shuffleDv16_sDv8_j=0x852332a0;
_Z7shuffleDv16_sDv8_m=0x8521e3a0;
_Z7shuffleDv16_sDv8_t=0x8521e4c0;
_Z7shuffleDv16_tDv16_h=0x85155be0;
_Z7shuffleDv16_tDv16_j=0x85194240;
_Z7shuffleDv16_tDv16_m=0x85172d80;
_Z7shuffleDv16_tDv2_h=0x85280580;
_Z7shuffleDv16_tDv2_j=0x8529c6a0;
_Z7shuffleDv16_tDv2_m=0x85280620;
_Z7shuffleDv16_tDv2_t=0x852806c0;
_Z7shuffleDv16_tDv4_h=0x8526e0c0;
_Z7shuffleDv16_tDv4_j=0x8526e180;
_Z7shuffleDv16_tDv4_m=0x852549a0;
_Z7shuffleDv16_tDv4_t=0x8526e240;
_Z7shuffleDv16_tDv8_h=0x8521e5e0;
_Z7shuffleDv16_tDv8_j=0x852333a0;
_Z7shuffleDv16_tDv8_m=0x8521e700;
_Z7shuffleDv16_tDv8_t=0x8521e820;
_Z7shuffleDv16_tS_=0x8517f5a0;
_Z7shuffleDv2_cDv16_h=0x851d5ac0;
_Z7shuffleDv2_cDv16_j=0x852073c0;
_Z7shuffleDv2_cDv16_m=0x851f0b00;
_Z7shuffleDv2_cDv16_t=0x851f0c60;
_Z7shuffleDv2_cDv2_h=0x852cf880;
_Z7shuffleDv2_cDv2_j=0x852cf8c0;
_Z7shuffleDv2_cDv2_m=0x852cf900;
_Z7shuffleDv2_cDv2_t=0x852cf940;
_Z7shuffleDv2_cDv4_h=0x8529c720;
_Z7shuffleDv2_cDv4_j=0x852bbd80;
_Z7shuffleDv2_cDv4_m=0x85280760;
_Z7shuffleDv2_cDv4_t=0x852bbde0;
_Z7shuffleDv2_cDv8_h=0x8526e300;
_Z7shuffleDv2_cDv8_j=0x852334a0;
_Z7shuffleDv2_cDv8_m=0x852335a0;
_Z7shuffleDv2_cDv8_t=0x8526e3c0;
_Z7shuffleDv2_dDv16_h=0x85137a00;
_Z7shuffleDv2_dDv16_j=0x85155e40;
_Z7shuffleDv2_dDv16_m=0x8514a480;
_Z7shuffleDv2_dDv16_t=0x8514a700;
_Z7shuffleDv2_dDv2_h=0x852cf980;
_Z7shuffleDv2_dDv2_j=0x852cf9c0;
_Z7shuffleDv2_dDv2_m=0x852cfa00;
_Z7shuffleDv2_dDv2_t=0x852cfa40;
_Z7shuffleDv2_dDv4_h=0x8526e480;
_Z7shuffleDv2_dDv4_j=0x85280800;
_Z7shuffleDv2_dDv4_m=0x8526e540;
_Z7shuffleDv2_dDv4_t=0x8526e600;
_Z7shuffleDv2_dDv8_h=0x85207500;
_Z7shuffleDv2_dDv8_j=0x8521e940;
_Z7shuffleDv2_dDv8_m=0x85207640;
_Z7shuffleDv2_dDv8_t=0x85207780;
_Z7shuffleDv2_fDv16_h=0x8517f7a0;
_Z7shuffleDv2_fDv16_j=0x851bb800;
_Z7shuffleDv2_fDv16_m=0x85194420;
_Z7shuffleDv2_fDv16_t=0x85194600;
_Z7shuffleDv2_fDv2_h=0x852cfa80;
_Z7shuffleDv2_fDv2_j=0x852cfac0;
_Z7shuffleDv2_fDv2_m=0x852cfb00;
_Z7shuffleDv2_fDv2_t=0x852cfb40;
_Z7shuffleDv2_fDv4_h=0x8529c7a0;
_Z7shuffleDv2_fDv4_j=0x852bbe40;
_Z7shuffleDv2_fDv4_m=0x852bbea0;
_Z7shuffleDv2_fDv4_t=0x852bbf00;
_Z7shuffleDv2_fDv8_h=0x852336a0;
_Z7shuffleDv2_fDv8_j=0x85254a80;
_Z7shuffleDv2_fDv8_m=0x852337a0;
_Z7shuffleDv2_fDv8_t=0x852338a0;
_Z7shuffleDv2_hDv16_h=0x851d5c40;
_Z7shuffleDv2_hDv16_j=0x852078c0;
_Z7shuffleDv2_hDv16_m=0x851f0dc0;
_Z7shuffleDv2_hDv16_t=0x851f0f20;
_Z7shuffleDv2_hDv2_j=0x852cfb80;
_Z7shuffleDv2_hDv2_m=0x852cfbc0;
_Z7shuffleDv2_hDv2_t=0x852cfc00;
_Z7shuffleDv2_hDv4_h=0x8529c820;
_Z7shuffleDv2_hDv4_j=0x852bbf60;
_Z7shuffleDv2_hDv4_m=0x852808a0;
_Z7shuffleDv2_hDv4_t=0x852bbfc0;
_Z7shuffleDv2_hDv8_h=0x8526e6c0;
_Z7shuffleDv2_hDv8_j=0x852339a0;
_Z7shuffleDv2_hDv8_m=0x85233aa0;
_Z7shuffleDv2_hDv8_t=0x8526e780;
_Z7shuffleDv2_hS_=0x852cfc40;
_Z7shuffleDv2_iDv16_h=0x8517f9a0;
_Z7shuffleDv2_iDv16_j=0x851bb9a0;
_Z7shuffleDv2_iDv16_m=0x851947e0;
_Z7shuffleDv2_iDv16_t=0x851949c0;
_Z7shuffleDv2_iDv2_h=0x852cfc80;
_Z7shuffleDv2_iDv2_j=0x852cfcc0;
_Z7shuffleDv2_iDv2_m=0x852cfd00;
_Z7shuffleDv2_iDv2_t=0x852cfd40;
_Z7shuffleDv2_iDv4_h=0x8529c8a0;
_Z7shuffleDv2_iDv4_j=0x852bc020;
_Z7shuffleDv2_iDv4_m=0x852bc080;
_Z7shuffleDv2_iDv4_t=0x852bc0e0;
_Z7shuffleDv2_iDv8_h=0x85233ba0;
_Z7shuffleDv2_iDv8_j=0x85254b60;
_Z7shuffleDv2_iDv8_m=0x85233ca0;
_Z7shuffleDv2_iDv8_t=0x85233da0;
_Z7shuffleDv2_jDv16_h=0x8517fba0;
_Z7shuffleDv2_jDv16_j=0x851bbb40;
_Z7shuffleDv2_jDv16_m=0x85194ba0;
_Z7shuffleDv2_jDv16_t=0x85194d80;
_Z7shuffleDv2_jDv2_h=0x852cfd80;
_Z7shuffleDv2_jDv2_m=0x852cfdc0;
_Z7shuffleDv2_jDv2_t=0x852cfe00;
_Z7shuffleDv2_jDv4_h=0x8529c920;
_Z7shuffleDv2_jDv4_j=0x852bc140;
_Z7shuffleDv2_jDv4_m=0x852bc1a0;
_Z7shuffleDv2_jDv4_t=0x852bc200;
_Z7shuffleDv2_jDv8_h=0x85233ea0;
_Z7shuffleDv2_jDv8_j=0x85254c40;
_Z7shuffleDv2_jDv8_m=0x85233fa0;
_Z7shuffleDv2_jDv8_t=0x852340a0;
_Z7shuffleDv2_jS_=0x852cfe40;
_Z7shuffleDv2_lDv16_h=0x85137cc0;
_Z7shuffleDv2_lDv16_j=0x851560a0;
_Z7shuffleDv2_lDv16_m=0x8514a980;
_Z7shuffleDv2_lDv16_t=0x8514ac00;
_Z7shuffleDv2_lDv2_h=0x852cfe80;
_Z7shuffleDv2_lDv2_j=0x852cfec0;
_Z7shuffleDv2_lDv2_m=0x852cff00;
_Z7shuffleDv2_lDv2_t=0x852cff40;
_Z7shuffleDv2_lDv4_h=0x8526e840;
_Z7shuffleDv2_lDv4_j=0x85280940;
_Z7shuffleDv2_lDv4_m=0x8526e900;
_Z7shuffleDv2_lDv4_t=0x8526e9c0;
_Z7shuffleDv2_lDv8_h=0x85207a00;
_Z7shuffleDv2_lDv8_j=0x8521ea60;
_Z7shuffleDv2_lDv8_m=0x85207b40;
_Z7shuffleDv2_lDv8_t=0x85207c80;
_Z7shuffleDv2_mDv16_h=0x85137f80;
_Z7shuffleDv2_mDv16_j=0x85156300;
_Z7shuffleDv2_mDv16_m=0x8514ae80;
_Z7shuffleDv2_mDv16_t=0x8514b100;
_Z7shuffleDv2_mDv2_h=0x852cff80;
_Z7shuffleDv2_mDv2_j=0x852cffc0;
_Z7shuffleDv2_mDv2_t=0x852d0000;
_Z7shuffleDv2_mDv4_h=0x8526ea80;
_Z7shuffleDv2_mDv4_j=0x852809e0;
_Z7shuffleDv2_mDv4_m=0x8526eb40;
_Z7shuffleDv2_mDv4_t=0x8526ec00;
_Z7shuffleDv2_mDv8_h=0x85207dc0;
_Z7shuffleDv2_mDv8_j=0x8521eb80;
_Z7shuffleDv2_mDv8_m=0x85207f00;
_Z7shuffleDv2_mDv8_t=0x85208040;
_Z7shuffleDv2_mS_=0x852d0040;
_Z7shuffleDv2_sDv16_h=0x8517fda0;
_Z7shuffleDv2_sDv16_j=0x851bbce0;
_Z7shuffleDv2_sDv16_m=0x851a6ae0;
_Z7shuffleDv2_sDv16_t=0x851a6ca0;
_Z7shuffleDv2_sDv2_h=0x852d0080;
_Z7shuffleDv2_sDv2_j=0x852d00c0;
_Z7shuffleDv2_sDv2_m=0x852d0100;
_Z7shuffleDv2_sDv2_t=0x852d0140;
_Z7shuffleDv2_sDv4_h=0x8529c9a0;
_Z7shuffleDv2_sDv4_j=0x852bc260;
_Z7shuffleDv2_sDv4_m=0x8529ca20;
_Z7shuffleDv2_sDv4_t=0x852bc2c0;
_Z7shuffleDv2_sDv8_h=0x85254d20;
_Z7shuffleDv2_sDv8_j=0x8526ecc0;
_Z7shuffleDv2_sDv8_m=0x8526ed80;
_Z7shuffleDv2_sDv8_t=0x8526ee40;
_Z7shuffleDv2_tDv16_h=0x8517ffa0;
_Z7shuffleDv2_tDv16_j=0x851bbe80;
_Z7shuffleDv2_tDv16_m=0x851a6e60;
_Z7shuffleDv2_tDv16_t=0x851a7020;
_Z7shuffleDv2_tDv2_h=0x852d0180;
_Z7shuffleDv2_tDv2_j=0x852d01c0;
_Z7shuffleDv2_tDv2_m=0x852d0200;
_Z7shuffleDv2_tDv4_h=0x8529caa0;
_Z7shuffleDv2_tDv4_j=0x852bc320;
_Z7shuffleDv2_tDv4_m=0x8529cb20;
_Z7shuffleDv2_tDv4_t=0x852bc380;
_Z7shuffleDv2_tDv8_h=0x85254e00;
_Z7shuffleDv2_tDv8_j=0x8526ef00;
_Z7shuffleDv2_tDv8_m=0x8526efc0;
_Z7shuffleDv2_tDv8_t=0x8526f080;
_Z7shuffleDv2_tS_=0x852d0240;
_Z7shuffleDv4_cDv16_h=0x851d5dc0;
_Z7shuffleDv4_cDv16_j=0x85208180;
_Z7shuffleDv4_cDv16_m=0x851f1080;
_Z7shuffleDv4_cDv16_t=0x851f11e0;
_Z7shuffleDv4_cDv2_h=0x852d0280;
_Z7shuffleDv4_cDv2_j=0x852d02c0;
_Z7shuffleDv4_cDv2_m=0x852d0300;
_Z7shuffleDv4_cDv2_t=0x852d0340;
_Z7shuffleDv4_cDv4_h=0x8529cba0;
_Z7shuffleDv4_cDv4_j=0x852bc3e0;
_Z7shuffleDv4_cDv4_m=0x85280a80;
_Z7shuffleDv4_cDv4_t=0x852bc440;
_Z7shuffleDv4_cDv8_h=0x8526f140;
_Z7shuffleDv4_cDv8_j=0x852341a0;
_Z7shuffleDv4_cDv8_m=0x852342a0;
_Z7shuffleDv4_cDv8_t=0x8526f200;
_Z7shuffleDv4_dDv16_h=0x8512a260;
_Z7shuffleDv4_dDv16_j=0x8513f220;
_Z7shuffleDv4_dDv16_m=0x8513f4c0;
_Z7shuffleDv4_dDv16_t=0x8513f760;
_Z7shuffleDv4_dDv2_h=0x85280b20;
_Z7shuffleDv4_dDv2_j=0x8529cc20;
_Z7shuffleDv4_dDv2_m=0x8529cca0;
_Z7shuffleDv4_dDv2_t=0x85280bc0;
_Z7shuffleDv4_dDv4_h=0x852343a0;
_Z7shuffleDv4_dDv4_j=0x852344a0;
_Z7shuffleDv4_dDv4_m=0x852345a0;
_Z7shuffleDv4_dDv4_t=0x852346a0;
_Z7shuffleDv4_dDv8_h=0x851bc020;
_Z7shuffleDv4_dDv8_j=0x851f1340;
_Z7shuffleDv4_dDv8_m=0x851f14a0;
_Z7shuffleDv4_dDv8_t=0x851d5f40;
_Z7shuffleDv4_fDv16_h=0x851801a0;
_Z7shuffleDv4_fDv16_j=0x851a71e0;
_Z7shuffleDv4_fDv16_m=0x85194f60;
_Z7shuffleDv4_fDv16_t=0x85195140;
_Z7shuffleDv4_fDv2_h=0x852d0380;
_Z7shuffleDv4_fDv2_j=0x852d03c0;
_Z7shuffleDv4_fDv2_m=0x852d0400;
_Z7shuffleDv4_fDv2_t=0x852d0440;
_Z7shuffleDv4_fDv4_h=0x8529cd20;
_Z7shuffleDv4_fDv4_j=0x852bc4a0;
_Z7shuffleDv4_fDv4_m=0x852bc500;
_Z7shuffleDv4_fDv4_t=0x852bc560;
_Z7shuffleDv4_fDv8_h=0x8521eca0;
_Z7shuffleDv4_fDv8_j=0x85254ee0;
_Z7shuffleDv4_fDv8_m=0x852347a0;
_Z7shuffleDv4_fDv8_t=0x852348a0;
_Z7shuffleDv4_hDv16_h=0x851d60c0;
_Z7shuffleDv4_hDv16_j=0x852082c0;
_Z7shuffleDv4_hDv16_m=0x851f1600;
_Z7shuffleDv4_hDv16_t=0x851f1760;
_Z7shuffleDv4_hDv2_h=0x852d0480;
_Z7shuffleDv4_hDv2_j=0x852d04c0;
_Z7shuffleDv4_hDv2_m=0x852d0500;
_Z7shuffleDv4_hDv2_t=0x852d0540;
_Z7shuffleDv4_hDv4_j=0x852bc5c0;
_Z7shuffleDv4_hDv4_m=0x85280c60;
_Z7shuffleDv4_hDv4_t=0x852bc620;
_Z7shuffleDv4_hDv8_h=0x8526f2c0;
_Z7shuffleDv4_hDv8_j=0x852349a0;
_Z7shuffleDv4_hDv8_m=0x85234aa0;
_Z7shuffleDv4_hDv8_t=0x8526f380;
_Z7shuffleDv4_hS_=0x8529cda0;
_Z7shuffleDv4_iDv16_h=0x851803a0;
_Z7shuffleDv4_iDv16_j=0x851a73a0;
_Z7shuffleDv4_iDv16_m=0x85195320;
_Z7shuffleDv4_iDv16_t=0x85195500;
_Z7shuffleDv4_iDv2_h=0x852d0580;
_Z7shuffleDv4_iDv2_j=0x852d05c0;
_Z7shuffleDv4_iDv2_m=0x852d0600;
_Z7shuffleDv4_iDv2_t=0x852d0640;
_Z7shuffleDv4_iDv4_h=0x8529ce20;
_Z7shuffleDv4_iDv4_j=0x852bc680;
_Z7shuffleDv4_iDv4_m=0x852bc6e0;
_Z7shuffleDv4_iDv4_t=0x852bc740;
_Z7shuffleDv4_iDv8_h=0x8521edc0;
_Z7shuffleDv4_iDv8_j=0x85254fc0;
_Z7shuffleDv4_iDv8_m=0x85234ba0;
_Z7shuffleDv4_iDv8_t=0x85234ca0;
_Z7shuffleDv4_jDv16_h=0x851805a0;
_Z7shuffleDv4_jDv16_j=0x851a7560;
_Z7shuffleDv4_jDv16_m=0x851956e0;
_Z7shuffleDv4_jDv16_t=0x851958c0;
_Z7shuffleDv4_jDv2_h=0x852d0680;
_Z7shuffleDv4_jDv2_j=0x852d06c0;
_Z7shuffleDv4_jDv2_m=0x852d0700;
_Z7shuffleDv4_jDv2_t=0x852d0740;
_Z7shuffleDv4_jDv4_h=0x8529cea0;
_Z7shuffleDv4_jDv4_m=0x852bc7a0;
_Z7shuffleDv4_jDv4_t=0x852bc800;
_Z7shuffleDv4_jDv8_h=0x8521eee0;
_Z7shuffleDv4_jDv8_j=0x852550a0;
_Z7shuffleDv4_jDv8_m=0x85234da0;
_Z7shuffleDv4_jDv8_t=0x85234ea0;
_Z7shuffleDv4_jS_=0x852bc860;
_Z7shuffleDv4_lDv16_h=0x8512a540;
_Z7shuffleDv4_lDv16_j=0x8513fa00;
_Z7shuffleDv4_lDv16_m=0x8513fca0;
_Z7shuffleDv4_lDv16_t=0x8513ff40;
_Z7shuffleDv4_lDv2_h=0x85280d00;
_Z7shuffleDv4_lDv2_j=0x8529cf20;
_Z7shuffleDv4_lDv2_m=0x8529cfa0;
_Z7shuffleDv4_lDv2_t=0x85280da0;
_Z7shuffleDv4_lDv4_h=0x85234fa0;
_Z7shuffleDv4_lDv4_j=0x852350a0;
_Z7shuffleDv4_lDv4_m=0x852351a0;
_Z7shuffleDv4_lDv4_t=0x852352a0;
_Z7shuffleDv4_lDv8_h=0x851bc1c0;
_Z7shuffleDv4_lDv8_j=0x851f18c0;
_Z7shuffleDv4_lDv8_m=0x851f1a20;
_Z7shuffleDv4_lDv8_t=0x851d6240;
_Z7shuffleDv4_mDv16_h=0x8512a820;
_Z7shuffleDv4_mDv16_j=0x851401e0;
_Z7shuffleDv4_mDv16_m=0x85140480;
_Z7shuffleDv4_mDv16_t=0x85140720;
_Z7shuffleDv4_mDv2_h=0x85280e40;
_Z7shuffleDv4_mDv2_j=0x8529d020;
_Z7shuffleDv4_mDv2_m=0x8529d0a0;
_Z7shuffleDv4_mDv2_t=0x85280ee0;
_Z7shuffleDv4_mDv4_h=0x852353a0;
_Z7shuffleDv4_mDv4_j=0x852354a0;
_Z7shuffleDv4_mDv4_t=0x852355a0;
_Z7shuffleDv4_mDv8_h=0x851bc360;
_Z7shuffleDv4_mDv8_j=0x851f1b80;
_Z7shuffleDv4_mDv8_m=0x851f1ce0;
_Z7shuffleDv4_mDv8_t=0x851d63c0;
_Z7shuffleDv4_mS_=0x852356a0;
_Z7shuffleDv4_sDv16_h=0x851807a0;
_Z7shuffleDv4_sDv16_j=0x851a7720;
_Z7shuffleDv4_sDv16_m=0x851a78e0;
_Z7shuffleDv4_sDv16_t=0x851a7aa0;
_Z7shuffleDv4_sDv2_h=0x852d0780;
_Z7shuffleDv4_sDv2_j=0x852d07c0;
_Z7shuffleDv4_sDv2_m=0x852d0800;
_Z7shuffleDv4_sDv2_t=0x852d0840;
_Z7shuffleDv4_sDv4_h=0x8529d120;
_Z7shuffleDv4_sDv4_j=0x852bc8c0;
_Z7shuffleDv4_sDv4_m=0x8529d1a0;
_Z7shuffleDv4_sDv4_t=0x852bc920;
_Z7shuffleDv4_sDv8_h=0x85255180;
_Z7shuffleDv4_sDv8_j=0x8526f440;
_Z7shuffleDv4_sDv8_m=0x8526f500;
_Z7shuffleDv4_sDv8_t=0x8526f5c0;
_Z7shuffleDv4_tDv16_h=0x851809a0;
_Z7shuffleDv4_tDv16_j=0x851a7c60;
_Z7shuffleDv4_tDv16_m=0x851a7e20;
_Z7shuffleDv4_tDv16_t=0x851a7fe0;
_Z7shuffleDv4_tDv2_h=0x852d0880;
_Z7shuffleDv4_tDv2_j=0x852d08c0;
_Z7shuffleDv4_tDv2_m=0x852d0900;
_Z7shuffleDv4_tDv2_t=0x852d0940;
_Z7shuffleDv4_tDv4_h=0x8529d220;
_Z7shuffleDv4_tDv4_j=0x852bc980;
_Z7shuffleDv4_tDv4_m=0x8529d2a0;
_Z7shuffleDv4_tDv8_h=0x85255260;
_Z7shuffleDv4_tDv8_j=0x8526f680;
_Z7shuffleDv4_tDv8_m=0x8526f740;
_Z7shuffleDv4_tDv8_t=0x8526f800;
_Z7shuffleDv4_tS_=0x852bc9e0;
_Z7shuffleDv8_cDv16_h=0x851d6540;
_Z7shuffleDv8_cDv16_j=0x8521f000;
_Z7shuffleDv8_cDv16_m=0x851f1e40;
_Z7shuffleDv8_cDv16_t=0x851f1fa0;
_Z7shuffleDv8_cDv2_h=0x852d0980;
_Z7shuffleDv8_cDv2_j=0x852d09c0;
_Z7shuffleDv8_cDv2_m=0x852d0a00;
_Z7shuffleDv8_cDv2_t=0x852d0a40;
_Z7shuffleDv8_cDv4_h=0x8529d320;
_Z7shuffleDv8_cDv4_j=0x852bca40;
_Z7shuffleDv8_cDv4_m=0x85280f80;
_Z7shuffleDv8_cDv4_t=0x852bcaa0;
_Z7shuffleDv8_cDv8_h=0x8526f8c0;
_Z7shuffleDv8_cDv8_j=0x852357a0;
_Z7shuffleDv8_cDv8_m=0x852358a0;
_Z7shuffleDv8_cDv8_t=0x8526f980;
_Z7shuffleDv8_dDv16_h=0x85138240;
_Z7shuffleDv8_dDv16_j=0x8511fb20;
_Z7shuffleDv8_dDv16_m=0x8514b380;
_Z7shuffleDv8_dDv16_t=0x8514b600;
_Z7shuffleDv8_dDv2_h=0x85281020;
_Z7shuffleDv8_dDv2_j=0x852810c0;
_Z7shuffleDv8_dDv2_m=0x85281160;
_Z7shuffleDv8_dDv2_t=0x8529d3a0;
_Z7shuffleDv8_dDv4_h=0x8521f120;
_Z7shuffleDv8_dDv4_j=0x852359a0;
_Z7shuffleDv8_dDv4_m=0x85235aa0;
_Z7shuffleDv8_dDv4_t=0x8521f240;
_Z7shuffleDv8_dDv8_h=0x851f2100;
_Z7shuffleDv8_dDv8_j=0x851bc500;
_Z7shuffleDv8_dDv8_m=0x851f2260;
_Z7shuffleDv8_dDv8_t=0x851f23c0;
_Z7shuffleDv8_fDv16_h=0x85156560;
_Z7shuffleDv8_fDv16_j=0x85180ba0;
_Z7shuffleDv8_fDv16_m=0x85180da0;
_Z7shuffleDv8_fDv16_t=0x85195aa0;
_Z7shuffleDv8_fDv2_h=0x85281200;
_Z7shuffleDv8_fDv2_j=0x8529d420;
_Z7shuffleDv8_fDv2_m=0x8529d4a0;
_Z7shuffleDv8_fDv2_t=0x8529d520;
_Z7shuffleDv8_fDv4_h=0x8526fa40;
_Z7shuffleDv8_fDv4_j=0x852812a0;
_Z7shuffleDv8_fDv4_m=0x8526fb00;
_Z7shuffleDv8_fDv4_t=0x8526fbc0;
_Z7shuffleDv8_fDv8_h=0x851f2520;
_Z7shuffleDv8_fDv8_j=0x8521f360;
_Z7shuffleDv8_fDv8_m=0x85208400;
_Z7shuffleDv8_fDv8_t=0x85208540;
_Z7shuffleDv8_hDv16_h=0x851d66c0;
_Z7shuffleDv8_hDv16_j=0x8521f480;
_Z7shuffleDv8_hDv16_m=0x851f2680;
_Z7shuffleDv8_hDv16_t=0x851f27e0;
_Z7shuffleDv8_hDv2_h=0x852d0a80;
_Z7shuffleDv8_hDv2_j=0x852d0ac0;
_Z7shuffleDv8_hDv2_m=0x852d0b00;
_Z7shuffleDv8_hDv2_t=0x852d0b40;
_Z7shuffleDv8_hDv4_h=0x8529d5a0;
_Z7shuffleDv8_hDv4_j=0x852bcb00;
_Z7shuffleDv8_hDv4_m=0x85281340;
_Z7shuffleDv8_hDv4_t=0x852bcb60;
_Z7shuffleDv8_hDv8_j=0x85235ba0;
_Z7shuffleDv8_hDv8_m=0x85235ca0;
_Z7shuffleDv8_hDv8_t=0x8526fc80;
_Z7shuffleDv8_hS_=0x8526fd40;
_Z7shuffleDv8_iDv16_h=0x851567c0;
_Z7shuffleDv8_iDv16_j=0x85180fa0;
_Z7shuffleDv8_iDv16_m=0x851811a0;
_Z7shuffleDv8_iDv16_t=0x85195c80;
_Z7shuffleDv8_iDv2_h=0x852813e0;
_Z7shuffleDv8_iDv2_j=0x8529d620;
_Z7shuffleDv8_iDv2_m=0x8529d6a0;
_Z7shuffleDv8_iDv2_t=0x8529d720;
_Z7shuffleDv8_iDv4_h=0x8526fe00;
_Z7shuffleDv8_iDv4_j=0x85281480;
_Z7shuffleDv8_iDv4_m=0x8526fec0;
_Z7shuffleDv8_iDv4_t=0x8526ff80;
_Z7shuffleDv8_iDv8_h=0x851f2940;
_Z7shuffleDv8_iDv8_j=0x8521f5a0;
_Z7shuffleDv8_iDv8_m=0x85208680;
_Z7shuffleDv8_iDv8_t=0x852087c0;
_Z7shuffleDv8_jDv16_h=0x85156a20;
_Z7shuffleDv8_jDv16_j=0x851813a0;
_Z7shuffleDv8_jDv16_m=0x851815a0;
_Z7shuffleDv8_jDv16_t=0x85195e60;
_Z7shuffleDv8_jDv2_h=0x85281520;
_Z7shuffleDv8_jDv2_j=0x8529d7a0;
_Z7shuffleDv8_jDv2_m=0x8529d820;
_Z7shuffleDv8_jDv2_t=0x8529d8a0;
_Z7shuffleDv8_jDv4_h=0x85270040;
_Z7shuffleDv8_jDv4_j=0x852815c0;
_Z7shuffleDv8_jDv4_m=0x85270100;
_Z7shuffleDv8_jDv4_t=0x852701c0;
_Z7shuffleDv8_jDv8_h=0x851f2aa0;
_Z7shuffleDv8_jDv8_m=0x85208900;
_Z7shuffleDv8_jDv8_t=0x85208a40;
_Z7shuffleDv8_jS_=0x8521f6c0;
_Z7shuffleDv8_lDv16_h=0x85138500;
_Z7shuffleDv8_lDv16_j=0x8511fe20;
_Z7shuffleDv8_lDv16_m=0x8514b880;
_Z7shuffleDv8_lDv16_t=0x8514bb00;
_Z7shuffleDv8_lDv2_h=0x85281660;
_Z7shuffleDv8_lDv2_j=0x85281700;
_Z7shuffleDv8_lDv2_m=0x852817a0;
_Z7shuffleDv8_lDv2_t=0x8529d920;
_Z7shuffleDv8_lDv4_h=0x8521f7e0;
_Z7shuffleDv8_lDv4_j=0x85235da0;
_Z7shuffleDv8_lDv4_m=0x85235ea0;
_Z7shuffleDv8_lDv4_t=0x8521f900;
_Z7shuffleDv8_lDv8_h=0x851f2c00;
_Z7shuffleDv8_lDv8_j=0x851bc6a0;
_Z7shuffleDv8_lDv8_m=0x851f2d60;
_Z7shuffleDv8_lDv8_t=0x851f2ec0;
_Z7shuffleDv8_mDv16_h=0x851387c0;
_Z7shuffleDv8_mDv16_j=0x85120120;
_Z7shuffleDv8_mDv16_m=0x8514bd80;
_Z7shuffleDv8_mDv16_t=0x8514c000;
_Z7shuffleDv8_mDv2_h=0x85281840;
_Z7shuffleDv8_mDv2_j=0x852818e0;
_Z7shuffleDv8_mDv2_m=0x85281980;
_Z7shuffleDv8_mDv2_t=0x8529d9a0;
_Z7shuffleDv8_mDv4_h=0x8521fa20;
_Z7shuffleDv8_mDv4_j=0x85235fa0;
_Z7shuffleDv8_mDv4_m=0x852360a0;
_Z7shuffleDv8_mDv4_t=0x8521fb40;
_Z7shuffleDv8_mDv8_h=0x851f3020;
_Z7shuffleDv8_mDv8_j=0x851bc840;
_Z7shuffleDv8_mDv8_t=0x851f3180;
_Z7shuffleDv8_mS_=0x851f32e0;
_Z7shuffleDv8_sDv16_h=0x851817a0;
_Z7shuffleDv8_sDv16_j=0x851a81a0;
_Z7shuffleDv8_sDv16_m=0x85196040;
_Z7shuffleDv8_sDv16_t=0x85196220;
_Z7shuffleDv8_sDv2_h=0x852d0b80;
_Z7shuffleDv8_sDv2_j=0x852d0bc0;
_Z7shuffleDv8_sDv2_m=0x852d0c00;
_Z7shuffleDv8_sDv2_t=0x852d0c40;
_Z7shuffleDv8_sDv4_h=0x8529da20;
_Z7shuffleDv8_sDv4_j=0x852bcbc0;
_Z7shuffleDv8_sDv4_m=0x8529daa0;
_Z7shuffleDv8_sDv4_t=0x852bcc20;
_Z7shuffleDv8_sDv8_h=0x85255340;
_Z7shuffleDv8_sDv8_j=0x85270280;
_Z7shuffleDv8_sDv8_m=0x85270340;
_Z7shuffleDv8_sDv8_t=0x85270400;
_Z7shuffleDv8_tDv16_h=0x851819a0;
_Z7shuffleDv8_tDv16_j=0x851a8360;
_Z7shuffleDv8_tDv16_m=0x85196400;
_Z7shuffleDv8_tDv16_t=0x851965e0;
_Z7shuffleDv8_tDv2_h=0x852d0c80;
_Z7shuffleDv8_tDv2_j=0x852d0cc0;
_Z7shuffleDv8_tDv2_m=0x852d0d00;
_Z7shuffleDv8_tDv2_t=0x852d0d40;
_Z7shuffleDv8_tDv4_h=0x8529db20;
_Z7shuffleDv8_tDv4_j=0x852bcc80;
_Z7shuffleDv8_tDv4_m=0x8529dba0;
_Z7shuffleDv8_tDv4_t=0x852bcce0;
_Z7shuffleDv8_tDv8_h=0x85255420;
_Z7shuffleDv8_tDv8_j=0x852704c0;
_Z7shuffleDv8_tDv8_m=0x85270580;
_Z7shuffleDv8_tS_=0x85270640;
_Z7signbitDv16_d=0x85181ba0;
_Z7signbitDv16_f=0x85255500;
_Z7signbitDv2_d=0x852e7b80;
_Z7signbitDv2_f=0x852e7ba0;
_Z7signbitDv3_d=0x85281a20;
_Z7signbitDv3_f=0x852e7bc0;
_Z7signbitDv4_d=0x85270700;
_Z7signbitDv4_f=0x852e7be0;
_Z7signbitDv8_d=0x8521fc60;
_Z7signbitDv8_f=0x85281ac0;
_Z7sub_satDv16_cS_=0x851bc9e0;
_Z7sub_satDv16_hS_=0x8512ab00;
_Z7sub_satDv16_iS_=0x852361a0;
_Z7sub_satDv16_jS_=0x851bcb80;
_Z7sub_satDv16_lS_=0x850253c0;
_Z7sub_satDv16_mS_=0x85067dc0;
_Z7sub_satDv16_sS_=0x85208b80;
_Z7sub_satDv16_tS_=0x85120420;
_Z7sub_satDv2_cS_=0x852d0d80;
_Z7sub_satDv2_hS_=0x852bcd40;
_Z7sub_satDv2_iS_=0x852e7c00;
_Z7sub_satDv2_jS_=0x852e7c20;
_Z7sub_satDv2_lS_=0x85156c80;
_Z7sub_satDv2_mS_=0x8529dc20;
_Z7sub_satDv2_sS_=0x852e7c40;
_Z7sub_satDv2_tS_=0x852d0dc0;
_Z7sub_satDv3_cS_=0x852bcda0;
_Z7sub_satDv3_hS_=0x8529dca0;
_Z7sub_satDv3_iS_=0x852e7c60;
_Z7sub_satDv3_jS_=0x852d0e00;
_Z7sub_satDv3_lS_=0x850cd780;
_Z7sub_satDv3_mS_=0x852555e0;
_Z7sub_satDv3_sS_=0x852d0e40;
_Z7sub_satDv3_tS_=0x852bce00;
_Z7sub_satDv4_cS_=0x8529dd20;
_Z7sub_satDv4_hS_=0x85281b60;
_Z7sub_satDv4_iS_=0x852d0e80;
_Z7sub_satDv4_jS_=0x852bce60;
_Z7sub_satDv4_lS_=0x8508dfa0;
_Z7sub_satDv4_mS_=0x8521fd80;
_Z7sub_satDv4_sS_=0x852d0ec0;
_Z7sub_satDv4_tS_=0x85281c00;
_Z7sub_satDv8_cS_=0x852556c0;
_Z7sub_satDv8_hS_=0x851f3440;
_Z7sub_satDv8_iS_=0x85281ca0;
_Z7sub_satDv8_jS_=0x852362a0;
_Z7sub_satDv8_lS_=0x8504d1e0;
_Z7sub_satDv8_mS_=0x851409c0;
_Z7sub_satDv8_sS_=0x85281d40;
_Z7sub_satDv8_tS_=0x85208cc0;
_Z8abs_diffDv16_cS_=0x85120720;
_Z8abs_diffDv16_hS_=0x8529dda0;
_Z8abs_diffDv16_iS_=0x85045220;
_Z8abs_diffDv16_jS_=0x85089ea0;
_Z8abs_diffDv16_lS_=0x85013240;
_Z8abs_diffDv16_mS_=0x85028c40;
_Z8abs_diffDv16_sS_=0x8521fea0;
_Z8abs_diffDv16_tS_=0x8512ade0;
_Z8abs_diffDv2_cS_=0x8529de20;
_Z8abs_diffDv2_hS_=0x8529dea0;
_Z8abs_diffDv2_iS_=0x8529df20;
_Z8abs_diffDv2_jS_=0x852d0f00;
_Z8abs_diffDv2_lS_=0x851d6840;
_Z8abs_diffDv2_mS_=0x85281de0;
_Z8abs_diffDv2_sS_=0x852d0f40;
_Z8abs_diffDv2_tS_=0x852bcec0;
_Z8abs_diffDv3_cS_=0x852707c0;
_Z8abs_diffDv3_hS_=0x85270880;
_Z8abs_diffDv3_iS_=0x852557a0;
_Z8abs_diffDv3_jS_=0x8529dfa0;
_Z8abs_diffDv3_lS_=0x850fbf40;
_Z8abs_diffDv3_mS_=0x851bcd20;
_Z8abs_diffDv3_sS_=0x852bcf20;
_Z8abs_diffDv3_tS_=0x85281e80;
_Z8abs_diffDv4_cS_=0x85270940;
_Z8abs_diffDv4_hS_=0x852d0f80;
_Z8abs_diffDv4_iS_=0x852363a0;
_Z8abs_diffDv4_jS_=0x8529e020;
_Z8abs_diffDv4_lS_=0x85098040;
_Z8abs_diffDv4_mS_=0x85172fa0;
_Z8abs_diffDv4_sS_=0x852d0fc0;
_Z8abs_diffDv4_tS_=0x8529e0a0;
_Z8abs_diffDv8_cS_=0x851d69c0;
_Z8abs_diffDv8_hS_=0x852bcf80;
_Z8abs_diffDv8_iS_=0x850c1ba0;
_Z8abs_diffDv8_jS_=0x851967c0;
_Z8abs_diffDv8_lS_=0x85045d40;
_Z8abs_diffDv8_mS_=0x850762a0;
_Z8abs_diffDv8_sS_=0x852bcfe0;
_Z8abs_diffDv8_tS_=0x852364a0;
_Z8abs_diffii=0x852d1000;
_Z8abs_diffll=0x85270a00;
_Z8copysignDv16_dS_=0x85081c40;
_Z8copysignDv16_fS_=0x851bcec0;
_Z8copysignDv2_dS_=0x852bd040;
_Z8copysignDv2_fS_=0x852e7c80;
_Z8copysignDv3_dS_=0x852365a0;
_Z8copysignDv3_fS_=0x852d1040;
_Z8copysignDv4_dS_=0x8521ffc0;
_Z8copysignDv4_fS_=0x852d1080;
_Z8copysignDv8_dS_=0x851969a0;
_Z8copysignDv8_fS_=0x852200e0;
_Z8isfiniteDv16_d=0x851040c0;
_Z8isfiniteDv16_f=0x85196b80;
_Z8isfiniteDv2_d=0x852bd0a0;
_Z8isfiniteDv2_f=0x852d10c0;
_Z8isfiniteDv3_d=0x85270ac0;
_Z8isfiniteDv3_f=0x852bd100;
_Z8isfiniteDv4_d=0x852366a0;
_Z8isfiniteDv4_f=0x852bd160;
_Z8isfiniteDv8_d=0x851a8520;
_Z8isfiniteDv8_f=0x85220200;
_Z8isnormalDv16_d=0x850519c0;
_Z8isnormalDv16_f=0x85156ee0;
_Z8isnormalDv2_d=0x85281f20;
_Z8isnormalDv2_f=0x852d1100;
_Z8isnormalDv3_d=0x85220320;
_Z8isnormalDv3_f=0x852bd1c0;
_Z8isnormalDv4_d=0x851d6b40;
_Z8isnormalDv4_f=0x8529e120;
_Z8isnormalDv8_d=0x850fc2c0;
_Z8isnormalDv8_f=0x851f35a0;
_Z8lgamma_rdPi=0x852e7ce0;
_Z8lgamma_rdPU7CLlocali=0x852e7ca0;
_Z8lgamma_rdPU8CLglobali=0x852e7cc0;
_Z8lgamma_rDv16_dPDv16_i=0x850d67e0;
_Z8lgamma_rDv16_dPU7CLlocalDv16_i=0x850d6be0;
_Z8lgamma_rDv16_dPU8CLglobalDv16_i=0x850d6fe0;
_Z8lgamma_rDv16_fPDv16_i=0x85181da0;
_Z8lgamma_rDv16_fPU7CLlocalDv16_i=0x85181fa0;
_Z8lgamma_rDv16_fPU8CLglobalDv16_i=0x851821a0;
_Z8lgamma_rDv2_dPDv2_i=0x852bd220;
_Z8lgamma_rDv2_dPU7CLlocalDv2_i=0x852bd280;
_Z8lgamma_rDv2_dPU8CLglobalDv2_i=0x852bd2e0;
_Z8lgamma_rDv2_fPDv2_i=0x852bd340;
_Z8lgamma_rDv2_fPU7CLlocalDv2_i=0x852bd3a0;
_Z8lgamma_rDv2_fPU8CLglobalDv2_i=0x852bd400;
_Z8lgamma_rDv3_dPDv3_i=0x85270b80;
_Z8lgamma_rDv3_dPU7CLlocalDv3_i=0x85270c40;
_Z8lgamma_rDv3_dPU8CLglobalDv3_i=0x85270d00;
_Z8lgamma_rDv3_fPDv3_i=0x852bd460;
_Z8lgamma_rDv3_fPU7CLlocalDv3_i=0x852bd4c0;
_Z8lgamma_rDv3_fPU8CLglobalDv3_i=0x852bd520;
_Z8lgamma_rDv4_dPDv4_i=0x852367a0;
_Z8lgamma_rDv4_dPU7CLlocalDv4_i=0x852368a0;
_Z8lgamma_rDv4_dPU8CLglobalDv4_i=0x852369a0;
_Z8lgamma_rDv4_fPDv4_i=0x8529e1a0;
_Z8lgamma_rDv4_fPU7CLlocalDv4_i=0x8529e220;
_Z8lgamma_rDv4_fPU8CLglobalDv4_i=0x8529e2a0;
_Z8lgamma_rDv8_dPDv8_i=0x851d6cc0;
_Z8lgamma_rDv8_dPU7CLlocalDv8_i=0x851d6e40;
_Z8lgamma_rDv8_dPU8CLglobalDv8_i=0x851d6fc0;
_Z8lgamma_rDv8_fPDv8_i=0x85208e00;
_Z8lgamma_rDv8_fPU7CLlocalDv8_i=0x85208f40;
_Z8lgamma_rDv8_fPU8CLglobalDv8_i=0x85209080;
_Z8lgamma_rfPi=0x852e7d40;
_Z8lgamma_rfPU7CLlocali=0x852e7d00;
_Z8lgamma_rfPU8CLglobali=0x852e7d20;
_Z8shuffle2Dv16_cS_Dv16_h=0x8512b0c0;
_Z8shuffle2Dv16_cS_Dv16_j=0x8514c280;
_Z8shuffle2Dv16_cS_Dv16_m=0x850f1400;
_Z8shuffle2Dv16_cS_Dv16_t=0x85138a80;
_Z8shuffle2Dv16_cS_Dv2_h=0x85281fc0;
_Z8shuffle2Dv16_cS_Dv2_j=0x8529e320;
_Z8shuffle2Dv16_cS_Dv2_m=0x8529e3a0;
_Z8shuffle2Dv16_cS_Dv2_t=0x85282060;
_Z8shuffle2Dv16_cS_Dv4_h=0x85255880;
_Z8shuffle2Dv16_cS_Dv4_j=0x85282100;
_Z8shuffle2Dv16_cS_Dv4_m=0x85220440;
_Z8shuffle2Dv16_cS_Dv4_t=0x85255960;
_Z8shuffle2Dv16_cS_Dv8_h=0x851bd060;
_Z8shuffle2Dv16_cS_Dv8_j=0x851f3700;
_Z8shuffle2Dv16_cS_Dv8_m=0x851731c0;
_Z8shuffle2Dv16_cS_Dv8_t=0x851bd200;
_Z8shuffle2Dv16_dS_Dv16_h=0x850c2020;
_Z8shuffle2Dv16_dS_Dv16_j=0x850c62c0;
_Z8shuffle2Dv16_dS_Dv16_m=0x8507a220;
_Z8shuffle2Dv16_dS_Dv16_t=0x850b4fa0;
_Z8shuffle2Dv16_dS_Dv2_h=0x85236aa0;
_Z8shuffle2Dv16_dS_Dv2_j=0x85236ba0;
_Z8shuffle2Dv16_dS_Dv2_m=0x85220560;
_Z8shuffle2Dv16_dS_Dv2_t=0x85236ca0;
_Z8shuffle2Dv16_dS_Dv4_h=0x851a86e0;
_Z8shuffle2Dv16_dS_Dv4_j=0x851bd3a0;
_Z8shuffle2Dv16_dS_Dv4_m=0x851733e0;
_Z8shuffle2Dv16_dS_Dv4_t=0x851a88a0;
_Z8shuffle2Dv16_dS_Dv8_h=0x85157140;
_Z8shuffle2Dv16_dS_Dv8_j=0x851573a0;
_Z8shuffle2Dv16_dS_Dv8_m=0x850e35e0;
_Z8shuffle2Dv16_dS_Dv8_t=0x8514c500;
_Z8shuffle2Dv16_fS_Dv16_h=0x850f17a0;
_Z8shuffle2Dv16_fS_Dv16_j=0x850f1b40;
_Z8shuffle2Dv16_fS_Dv16_m=0x850a1160;
_Z8shuffle2Dv16_fS_Dv16_t=0x850ddda0;
_Z8shuffle2Dv16_fS_Dv2_h=0x85255a40;
_Z8shuffle2Dv16_fS_Dv2_j=0x85255b20;
_Z8shuffle2Dv16_fS_Dv2_m=0x85220680;
_Z8shuffle2Dv16_fS_Dv2_t=0x85255c00;
_Z8shuffle2Dv16_fS_Dv4_h=0x852207a0;
_Z8shuffle2Dv16_fS_Dv4_j=0x852091c0;
_Z8shuffle2Dv16_fS_Dv4_m=0x851bd540;
_Z8shuffle2Dv16_fS_Dv4_t=0x852208c0;
_Z8shuffle2Dv16_fS_Dv8_h=0x85162900;
_Z8shuffle2Dv16_fS_Dv8_j=0x85162b40;
_Z8shuffle2Dv16_fS_Dv8_m=0x8512b3a0;
_Z8shuffle2Dv16_fS_Dv8_t=0x85157600;
_Z8shuffle2Dv16_hS_Dv16_j=0x8514c780;
_Z8shuffle2Dv16_hS_Dv16_m=0x850f1ee0;
_Z8shuffle2Dv16_hS_Dv16_t=0x85138d40;
_Z8shuffle2Dv16_hS_Dv2_h=0x852821a0;
_Z8shuffle2Dv16_hS_Dv2_j=0x8529e420;
_Z8shuffle2Dv16_hS_Dv2_m=0x8529e4a0;
_Z8shuffle2Dv16_hS_Dv2_t=0x85282240;
_Z8shuffle2Dv16_hS_Dv4_h=0x85255ce0;
_Z8shuffle2Dv16_hS_Dv4_j=0x852822e0;
_Z8shuffle2Dv16_hS_Dv4_m=0x852209e0;
_Z8shuffle2Dv16_hS_Dv4_t=0x85255dc0;
_Z8shuffle2Dv16_hS_Dv8_h=0x851bd6e0;
_Z8shuffle2Dv16_hS_Dv8_j=0x851f3860;
_Z8shuffle2Dv16_hS_Dv8_m=0x85173600;
_Z8shuffle2Dv16_hS_Dv8_t=0x851bd880;
_Z8shuffle2Dv16_hS_S_=0x8512b680;
_Z8shuffle2Dv16_iS_Dv16_h=0x850f2280;
_Z8shuffle2Dv16_iS_Dv16_j=0x850f2620;
_Z8shuffle2Dv16_iS_Dv16_m=0x850a1680;
_Z8shuffle2Dv16_iS_Dv16_t=0x850de180;
_Z8shuffle2Dv16_iS_Dv2_h=0x85255ea0;
_Z8shuffle2Dv16_iS_Dv2_j=0x85255f80;
_Z8shuffle2Dv16_iS_Dv2_m=0x85220b00;
_Z8shuffle2Dv16_iS_Dv2_t=0x85256060;
_Z8shuffle2Dv16_iS_Dv4_h=0x85220c20;
_Z8shuffle2Dv16_iS_Dv4_j=0x85209300;
_Z8shuffle2Dv16_iS_Dv4_m=0x851bda20;
_Z8shuffle2Dv16_iS_Dv4_t=0x85220d40;
_Z8shuffle2Dv16_iS_Dv8_h=0x85162d80;
_Z8shuffle2Dv16_iS_Dv8_j=0x85162fc0;
_Z8shuffle2Dv16_iS_Dv8_m=0x8512b960;
_Z8shuffle2Dv16_iS_Dv8_t=0x85157860;
_Z8shuffle2Dv16_jS_Dv16_h=0x850f29c0;
_Z8shuffle2Dv16_jS_Dv16_m=0x850a1ba0;
_Z8shuffle2Dv16_jS_Dv16_t=0x850de560;
_Z8shuffle2Dv16_jS_Dv2_h=0x85256140;
_Z8shuffle2Dv16_jS_Dv2_j=0x85256220;
_Z8shuffle2Dv16_jS_Dv2_m=0x85220e60;
_Z8shuffle2Dv16_jS_Dv2_t=0x85256300;
_Z8shuffle2Dv16_jS_Dv4_h=0x85220f80;
_Z8shuffle2Dv16_jS_Dv4_j=0x85209440;
_Z8shuffle2Dv16_jS_Dv4_m=0x851bdbc0;
_Z8shuffle2Dv16_jS_Dv4_t=0x852210a0;
_Z8shuffle2Dv16_jS_Dv8_h=0x85163200;
_Z8shuffle2Dv16_jS_Dv8_j=0x85163440;
_Z8shuffle2Dv16_jS_Dv8_m=0x8512bc40;
_Z8shuffle2Dv16_jS_Dv8_t=0x85157ac0;
_Z8shuffle2Dv16_jS_S_=0x850f2d60;
_Z8shuffle2Dv16_lS_Dv16_h=0x850c24a0;
_Z8shuffle2Dv16_lS_Dv16_j=0x850c6720;
_Z8shuffle2Dv16_lS_Dv16_m=0x8507a920;
_Z8shuffle2Dv16_lS_Dv16_t=0x850b5460;
_Z8shuffle2Dv16_lS_Dv2_h=0x85236da0;
_Z8shuffle2Dv16_lS_Dv2_j=0x85236ea0;
_Z8shuffle2Dv16_lS_Dv2_m=0x852211c0;
_Z8shuffle2Dv16_lS_Dv2_t=0x85236fa0;
_Z8shuffle2Dv16_lS_Dv4_h=0x851a8a60;
_Z8shuffle2Dv16_lS_Dv4_j=0x851bdd60;
_Z8shuffle2Dv16_lS_Dv4_m=0x85173820;
_Z8shuffle2Dv16_lS_Dv4_t=0x851a8c20;
_Z8shuffle2Dv16_lS_Dv8_h=0x85157d20;
_Z8shuffle2Dv16_lS_Dv8_j=0x85157f80;
_Z8shuffle2Dv16_lS_Dv8_m=0x850e39a0;
_Z8shuffle2Dv16_lS_Dv8_t=0x8514ca00;
_Z8shuffle2Dv16_mS_Dv16_h=0x850c2920;
_Z8shuffle2Dv16_mS_Dv16_j=0x850c6b80;
_Z8shuffle2Dv16_mS_Dv16_t=0x850b5920;
_Z8shuffle2Dv16_mS_Dv2_h=0x852370a0;
_Z8shuffle2Dv16_mS_Dv2_j=0x852371a0;
_Z8shuffle2Dv16_mS_Dv2_m=0x852212e0;
_Z8shuffle2Dv16_mS_Dv2_t=0x852372a0;
_Z8shuffle2Dv16_mS_Dv4_h=0x851a8de0;
_Z8shuffle2Dv16_mS_Dv4_j=0x851bdf00;
_Z8shuffle2Dv16_mS_Dv4_m=0x85173a40;
_Z8shuffle2Dv16_mS_Dv4_t=0x851a8fa0;
_Z8shuffle2Dv16_mS_Dv8_h=0x851581e0;
_Z8shuffle2Dv16_mS_Dv8_j=0x85158440;
_Z8shuffle2Dv16_mS_Dv8_m=0x850e3d60;
_Z8shuffle2Dv16_mS_Dv8_t=0x8514cc80;
_Z8shuffle2Dv16_mS_S_=0x8507b020;
_Z8shuffle2Dv16_sS_Dv16_h=0x850de940;
_Z8shuffle2Dv16_sS_Dv16_j=0x850fc640;
_Z8shuffle2Dv16_sS_Dv16_m=0x850bdbc0;
_Z8shuffle2Dv16_sS_Dv16_t=0x850f3100;
_Z8shuffle2Dv16_sS_Dv2_h=0x852373a0;
_Z8shuffle2Dv16_sS_Dv2_j=0x852374a0;
_Z8shuffle2Dv16_sS_Dv2_m=0x85209580;
_Z8shuffle2Dv16_sS_Dv2_t=0x852375a0;
_Z8shuffle2Dv16_sS_Dv4_h=0x851f39c0;
_Z8shuffle2Dv16_sS_Dv4_j=0x852096c0;
_Z8shuffle2Dv16_sS_Dv4_m=0x851be0a0;
_Z8shuffle2Dv16_sS_Dv4_t=0x85209800;
_Z8shuffle2Dv16_sS_Dv8_h=0x85173c60;
_Z8shuffle2Dv16_sS_Dv8_j=0x851a9160;
_Z8shuffle2Dv16_sS_Dv8_m=0x851586a0;
_Z8shuffle2Dv16_sS_Dv8_t=0x85196d60;
_Z8shuffle2Dv16_tS_Dv16_h=0x850ded20;
_Z8shuffle2Dv16_tS_Dv16_j=0x850fc9c0;
_Z8shuffle2Dv16_tS_Dv16_m=0x850be060;
_Z8shuffle2Dv16_tS_Dv2_h=0x852376a0;
_Z8shuffle2Dv16_tS_Dv2_j=0x852377a0;
_Z8shuffle2Dv16_tS_Dv2_m=0x85209940;
_Z8shuffle2Dv16_tS_Dv2_t=0x852378a0;
_Z8shuffle2Dv16_tS_Dv4_h=0x851f3b20;
_Z8shuffle2Dv16_tS_Dv4_j=0x85209a80;
_Z8shuffle2Dv16_tS_Dv4_m=0x851be240;
_Z8shuffle2Dv16_tS_Dv4_t=0x85209bc0;
_Z8shuffle2Dv16_tS_Dv8_h=0x85173e80;
_Z8shuffle2Dv16_tS_Dv8_j=0x851a9320;
_Z8shuffle2Dv16_tS_Dv8_m=0x85158900;
_Z8shuffle2Dv16_tS_Dv8_t=0x85196f40;
_Z8shuffle2Dv16_tS_S_=0x850f34a0;
_Z8shuffle2Dv2_cS_Dv16_h=0x8514cf00;
_Z8shuffle2Dv2_cS_Dv16_j=0x85197120;
_Z8shuffle2Dv2_cS_Dv16_m=0x850f3840;
_Z8shuffle2Dv2_cS_Dv16_t=0x8514d180;
_Z8shuffle2Dv2_cS_Dv2_h=0x852bd580;
_Z8shuffle2Dv2_cS_Dv2_j=0x852bd5e0;
_Z8shuffle2Dv2_cS_Dv2_m=0x852bd640;
_Z8shuffle2Dv2_cS_Dv2_t=0x852bd6a0;
_Z8shuffle2Dv2_cS_Dv4_h=0x85282380;
_Z8shuffle2Dv2_cS_Dv4_j=0x8529e520;
_Z8shuffle2Dv2_cS_Dv4_m=0x85221400;
_Z8shuffle2Dv2_cS_Dv4_t=0x85282420;
_Z8shuffle2Dv2_cS_Dv8_h=0x85209d00;
_Z8shuffle2Dv2_cS_Dv8_j=0x851f3c80;
_Z8shuffle2Dv2_cS_Dv8_m=0x85163680;
_Z8shuffle2Dv2_cS_Dv8_t=0x85221520;
_Z8shuffle2Dv2_dS_Dv16_h=0x850f3be0;
_Z8shuffle2Dv2_dS_Dv16_j=0x85104420;
_Z8shuffle2Dv2_dS_Dv16_m=0x850ab620;
_Z8shuffle2Dv2_dS_Dv16_t=0x85104780;
_Z8shuffle2Dv2_dS_Dv2_h=0x8529e5a0;
_Z8shuffle2Dv2_dS_Dv2_j=0x8529e620;
_Z8shuffle2Dv2_dS_Dv2_m=0x852824c0;
_Z8shuffle2Dv2_dS_Dv2_t=0x85282560;
_Z8shuffle2Dv2_dS_Dv4_h=0x85221640;
_Z8shuffle2Dv2_dS_Dv4_j=0x852563e0;
_Z8shuffle2Dv2_dS_Dv4_m=0x85209e40;
_Z8shuffle2Dv2_dS_Dv4_t=0x85221760;
_Z8shuffle2Dv2_dS_Dv8_h=0x851740a0;
_Z8shuffle2Dv2_dS_Dv8_j=0x851a94e0;
_Z8shuffle2Dv2_dS_Dv8_m=0x85140c60;
_Z8shuffle2Dv2_dS_Dv8_t=0x85197300;
_Z8shuffle2Dv2_fS_Dv16_h=0x8510f3c0;
_Z8shuffle2Dv2_fS_Dv16_j=0x8512bf20;
_Z8shuffle2Dv2_fS_Dv16_m=0x850cdbc0;
_Z8shuffle2Dv2_fS_Dv16_t=0x85120a20;
_Z8shuffle2Dv2_fS_Dv2_h=0x852bd700;
_Z8shuffle2Dv2_fS_Dv2_j=0x852d1140;
_Z8shuffle2Dv2_fS_Dv2_m=0x8529e6a0;
_Z8shuffle2Dv2_fS_Dv2_t=0x852bd760;
_Z8shuffle2Dv2_fS_Dv4_h=0x85282600;
_Z8shuffle2Dv2_fS_Dv4_j=0x8529e720;
_Z8shuffle2Dv2_fS_Dv4_m=0x85270dc0;
_Z8shuffle2Dv2_fS_Dv4_t=0x852826a0;
_Z8shuffle2Dv2_fS_Dv8_h=0x851a96a0;
_Z8shuffle2Dv2_fS_Dv8_j=0x851d7140;
_Z8shuffle2Dv2_fS_Dv8_m=0x851638c0;
_Z8shuffle2Dv2_fS_Dv8_t=0x851be3e0;
_Z8shuffle2Dv2_hS_Dv16_h=0x8514d400;
_Z8shuffle2Dv2_hS_Dv16_j=0x851974e0;
_Z8shuffle2Dv2_hS_Dv16_m=0x850f3f80;
_Z8shuffle2Dv2_hS_Dv16_t=0x8514d680;
_Z8shuffle2Dv2_hS_Dv2_j=0x852bd7c0;
_Z8shuffle2Dv2_hS_Dv2_m=0x852bd820;
_Z8shuffle2Dv2_hS_Dv2_t=0x852bd880;
_Z8shuffle2Dv2_hS_Dv4_h=0x85282740;
_Z8shuffle2Dv2_hS_Dv4_j=0x8529e7a0;
_Z8shuffle2Dv2_hS_Dv4_m=0x85221880;
_Z8shuffle2Dv2_hS_Dv4_t=0x852827e0;
_Z8shuffle2Dv2_hS_Dv8_h=0x85209f80;
_Z8shuffle2Dv2_hS_Dv8_j=0x851f3de0;
_Z8shuffle2Dv2_hS_Dv8_m=0x85163b00;
_Z8shuffle2Dv2_hS_Dv8_t=0x852219a0;
_Z8shuffle2Dv2_hS_S_=0x852bd8e0;
_Z8shuffle2Dv2_iS_Dv16_h=0x8510f700;
_Z8shuffle2Dv2_iS_Dv16_j=0x8512c200;
_Z8shuffle2Dv2_iS_Dv16_m=0x850ce000;
_Z8shuffle2Dv2_iS_Dv16_t=0x85120d20;
_Z8shuffle2Dv2_iS_Dv2_h=0x852bd940;
_Z8shuffle2Dv2_iS_Dv2_j=0x852d1180;
_Z8shuffle2Dv2_iS_Dv2_m=0x8529e820;
_Z8shuffle2Dv2_iS_Dv2_t=0x852bd9a0;
_Z8shuffle2Dv2_iS_Dv4_h=0x85282880;
_Z8shuffle2Dv2_iS_Dv4_j=0x8529e8a0;
_Z8shuffle2Dv2_iS_Dv4_m=0x85270e80;
_Z8shuffle2Dv2_iS_Dv4_t=0x85282920;
_Z8shuffle2Dv2_iS_Dv8_h=0x851a9860;
_Z8shuffle2Dv2_iS_Dv8_j=0x851d72c0;
_Z8shuffle2Dv2_iS_Dv8_m=0x85163d40;
_Z8shuffle2Dv2_iS_Dv8_t=0x851be580;
_Z8shuffle2Dv2_jS_Dv16_h=0x8510fa40;
_Z8shuffle2Dv2_jS_Dv16_j=0x8512c4e0;
_Z8shuffle2Dv2_jS_Dv16_m=0x850ce440;
_Z8shuffle2Dv2_jS_Dv16_t=0x85121020;
_Z8shuffle2Dv2_jS_Dv2_h=0x852bda00;
_Z8shuffle2Dv2_jS_Dv2_m=0x8529e920;
_Z8shuffle2Dv2_jS_Dv2_t=0x852bda60;
_Z8shuffle2Dv2_jS_Dv4_h=0x852829c0;
_Z8shuffle2Dv2_jS_Dv4_j=0x8529e9a0;
_Z8shuffle2Dv2_jS_Dv4_m=0x85270f40;
_Z8shuffle2Dv2_jS_Dv4_t=0x85282a60;
_Z8shuffle2Dv2_jS_Dv8_h=0x851a9a20;
_Z8shuffle2Dv2_jS_Dv8_j=0x851d7440;
_Z8shuffle2Dv2_jS_Dv8_m=0x85163f80;
_Z8shuffle2Dv2_jS_Dv8_t=0x851be720;
_Z8shuffle2Dv2_jS_S_=0x852d11c0;
_Z8shuffle2Dv2_lS_Dv16_h=0x850f4320;
_Z8shuffle2Dv2_lS_Dv16_j=0x85104ae0;
_Z8shuffle2Dv2_lS_Dv16_m=0x850abb00;
_Z8shuffle2Dv2_lS_Dv16_t=0x85104e40;
_Z8shuffle2Dv2_lS_Dv2_h=0x8529ea20;
_Z8shuffle2Dv2_lS_Dv2_j=0x8529eaa0;
_Z8shuffle2Dv2_lS_Dv2_m=0x85282b00;
_Z8shuffle2Dv2_lS_Dv2_t=0x85282ba0;
_Z8shuffle2Dv2_lS_Dv4_h=0x85221ac0;
_Z8shuffle2Dv2_lS_Dv4_j=0x852564c0;
_Z8shuffle2Dv2_lS_Dv4_m=0x8520a0c0;
_Z8shuffle2Dv2_lS_Dv4_t=0x85221be0;
_Z8shuffle2Dv2_lS_Dv8_h=0x851742c0;
_Z8shuffle2Dv2_lS_Dv8_j=0x851a9be0;
_Z8shuffle2Dv2_lS_Dv8_m=0x85140f00;
_Z8shuffle2Dv2_lS_Dv8_t=0x851976c0;
_Z8shuffle2Dv2_mS_Dv16_h=0x850f46c0;
_Z8shuffle2Dv2_mS_Dv16_j=0x851051a0;
_Z8shuffle2Dv2_mS_Dv16_m=0x850abfe0;
_Z8shuffle2Dv2_mS_Dv16_t=0x85105500;
_Z8shuffle2Dv2_mS_Dv2_h=0x8529eb20;
_Z8shuffle2Dv2_mS_Dv2_j=0x8529eba0;
_Z8shuffle2Dv2_mS_Dv2_t=0x85282c40;
_Z8shuffle2Dv2_mS_Dv4_h=0x85221d00;
_Z8shuffle2Dv2_mS_Dv4_j=0x852565a0;
_Z8shuffle2Dv2_mS_Dv4_m=0x8520a200;
_Z8shuffle2Dv2_mS_Dv4_t=0x85221e20;
_Z8shuffle2Dv2_mS_Dv8_h=0x851744e0;
_Z8shuffle2Dv2_mS_Dv8_j=0x851a9da0;
_Z8shuffle2Dv2_mS_Dv8_m=0x851411a0;
_Z8shuffle2Dv2_mS_Dv8_t=0x851978a0;
_Z8shuffle2Dv2_mS_S_=0x85282ce0;
_Z8shuffle2Dv2_sS_Dv16_h=0x85116c20;
_Z8shuffle2Dv2_sS_Dv16_j=0x8512c7c0;
_Z8shuffle2Dv2_sS_Dv16_m=0x850ce880;
_Z8shuffle2Dv2_sS_Dv16_t=0x8512caa0;
_Z8shuffle2Dv2_sS_Dv2_h=0x852bdac0;
_Z8shuffle2Dv2_sS_Dv2_j=0x852bdb20;
_Z8shuffle2Dv2_sS_Dv2_m=0x852bdb80;
_Z8shuffle2Dv2_sS_Dv2_t=0x852bdbe0;
_Z8shuffle2Dv2_sS_Dv4_h=0x85282d80;
_Z8shuffle2Dv2_sS_Dv4_j=0x8529ec20;
_Z8shuffle2Dv2_sS_Dv4_m=0x85221f40;
_Z8shuffle2Dv2_sS_Dv4_t=0x85282e20;
_Z8shuffle2Dv2_sS_Dv8_h=0x85222060;
_Z8shuffle2Dv2_sS_Dv8_j=0x852379a0;
_Z8shuffle2Dv2_sS_Dv8_m=0x851be8c0;
_Z8shuffle2Dv2_sS_Dv8_t=0x85222180;
_Z8shuffle2Dv2_tS_Dv16_h=0x85116f40;
_Z8shuffle2Dv2_tS_Dv16_j=0x8512cd80;
_Z8shuffle2Dv2_tS_Dv16_m=0x850cecc0;
_Z8shuffle2Dv2_tS_Dv16_t=0x8512d060;
_Z8shuffle2Dv2_tS_Dv2_h=0x852bdc40;
_Z8shuffle2Dv2_tS_Dv2_j=0x852bdca0;
_Z8shuffle2Dv2_tS_Dv2_m=0x852bdd00;
_Z8shuffle2Dv2_tS_Dv4_h=0x85282ec0;
_Z8shuffle2Dv2_tS_Dv4_j=0x8529eca0;
_Z8shuffle2Dv2_tS_Dv4_m=0x852222a0;
_Z8shuffle2Dv2_tS_Dv4_t=0x85282f60;
_Z8shuffle2Dv2_tS_Dv8_h=0x852223c0;
_Z8shuffle2Dv2_tS_Dv8_j=0x85237aa0;
_Z8shuffle2Dv2_tS_Dv8_m=0x851bea60;
_Z8shuffle2Dv2_tS_Dv8_t=0x852224e0;
_Z8shuffle2Dv2_tS_S_=0x852bdd60;
_Z8shuffle2Dv4_cS_Dv16_h=0x8514d900;
_Z8shuffle2Dv4_cS_Dv16_j=0x85197a80;
_Z8shuffle2Dv4_cS_Dv16_m=0x850f4a60;
_Z8shuffle2Dv4_cS_Dv16_t=0x8514db80;
_Z8shuffle2Dv4_cS_Dv2_h=0x852bddc0;
_Z8shuffle2Dv4_cS_Dv2_j=0x852bde20;
_Z8shuffle2Dv4_cS_Dv2_m=0x852bde80;
_Z8shuffle2Dv4_cS_Dv2_t=0x852bdee0;
_Z8shuffle2Dv4_cS_Dv4_h=0x85283000;
_Z8shuffle2Dv4_cS_Dv4_j=0x8529ed20;
_Z8shuffle2Dv4_cS_Dv4_m=0x85222600;
_Z8shuffle2Dv4_cS_Dv4_t=0x852830a0;
_Z8shuffle2Dv4_cS_Dv8_h=0x8520a340;
_Z8shuffle2Dv4_cS_Dv8_j=0x8520a480;
_Z8shuffle2Dv4_cS_Dv8_m=0x851641c0;
_Z8shuffle2Dv4_cS_Dv8_t=0x85222720;
_Z8shuffle2Dv4_dS_Dv16_h=0x850cf100;
_Z8shuffle2Dv4_dS_Dv16_j=0x850df100;
_Z8shuffle2Dv4_dS_Dv16_m=0x8509e220;
_Z8shuffle2Dv4_dS_Dv16_t=0x850df4e0;
_Z8shuffle2Dv4_dS_Dv2_h=0x85237ba0;
_Z8shuffle2Dv4_dS_Dv2_j=0x85222840;
_Z8shuffle2Dv4_dS_Dv2_m=0x85222960;
_Z8shuffle2Dv4_dS_Dv2_t=0x85237ca0;
_Z8shuffle2Dv4_dS_Dv4_h=0x851bec00;
_Z8shuffle2Dv4_dS_Dv4_j=0x851d75c0;
_Z8shuffle2Dv4_dS_Dv4_m=0x85197c60;
_Z8shuffle2Dv4_dS_Dv4_t=0x851beda0;
_Z8shuffle2Dv4_dS_Dv8_h=0x8514de00;
_Z8shuffle2Dv4_dS_Dv8_j=0x85164400;
_Z8shuffle2Dv4_dS_Dv8_m=0x8512d340;
_Z8shuffle2Dv4_dS_Dv8_t=0x8514e080;
_Z8shuffle2Dv4_fS_Dv16_h=0x85105860;
_Z8shuffle2Dv4_fS_Dv16_j=0x85121320;
_Z8shuffle2Dv4_fS_Dv16_m=0x850c6fe0;
_Z8shuffle2Dv4_fS_Dv16_t=0x85117260;
_Z8shuffle2Dv4_fS_Dv2_h=0x8529eda0;
_Z8shuffle2Dv4_fS_Dv2_j=0x8529ee20;
_Z8shuffle2Dv4_fS_Dv2_m=0x85283140;
_Z8shuffle2Dv4_fS_Dv2_t=0x8529eea0;
_Z8shuffle2Dv4_fS_Dv4_h=0x85271000;
_Z8shuffle2Dv4_fS_Dv4_j=0x852831e0;
_Z8shuffle2Dv4_fS_Dv4_m=0x85256680;
_Z8shuffle2Dv4_fS_Dv4_t=0x852710c0;
_Z8shuffle2Dv4_fS_Dv8_h=0x851a9f60;
_Z8shuffle2Dv4_fS_Dv8_j=0x851bef40;
_Z8shuffle2Dv4_fS_Dv8_m=0x85174700;
_Z8shuffle2Dv4_fS_Dv8_t=0x851aa120;
_Z8shuffle2Dv4_hS_Dv16_h=0x8514e300;
_Z8shuffle2Dv4_hS_Dv16_j=0x85197e40;
_Z8shuffle2Dv4_hS_Dv16_m=0x850f4e00;
_Z8shuffle2Dv4_hS_Dv16_t=0x8514e580;
_Z8shuffle2Dv4_hS_Dv2_h=0x852bdf40;
_Z8shuffle2Dv4_hS_Dv2_j=0x852bdfa0;
_Z8shuffle2Dv4_hS_Dv2_m=0x852be000;
_Z8shuffle2Dv4_hS_Dv2_t=0x852be060;
_Z8shuffle2Dv4_hS_Dv4_j=0x8529ef20;
_Z8shuffle2Dv4_hS_Dv4_m=0x85222a80;
_Z8shuffle2Dv4_hS_Dv4_t=0x85283280;
_Z8shuffle2Dv4_hS_Dv8_h=0x8520a5c0;
_Z8shuffle2Dv4_hS_Dv8_j=0x8520a700;
_Z8shuffle2Dv4_hS_Dv8_m=0x85164640;
_Z8shuffle2Dv4_hS_Dv8_t=0x85222ba0;
_Z8shuffle2Dv4_hS_S_=0x85283320;
_Z8shuffle2Dv4_iS_Dv16_h=0x85105bc0;
_Z8shuffle2Dv4_iS_Dv16_j=0x85121620;
_Z8shuffle2Dv4_iS_Dv16_m=0x850c7440;
_Z8shuffle2Dv4_iS_Dv16_t=0x85117580;
_Z8shuffle2Dv4_iS_Dv2_h=0x8529efa0;
_Z8shuffle2Dv4_iS_Dv2_j=0x8529f020;
_Z8shuffle2Dv4_iS_Dv2_m=0x852833c0;
_Z8shuffle2Dv4_iS_Dv2_t=0x8529f0a0;
_Z8shuffle2Dv4_iS_Dv4_h=0x85271180;
_Z8shuffle2Dv4_iS_Dv4_j=0x85283460;
_Z8shuffle2Dv4_iS_Dv4_m=0x85256760;
_Z8shuffle2Dv4_iS_Dv4_t=0x85271240;
_Z8shuffle2Dv4_iS_Dv8_h=0x851aa2e0;
_Z8shuffle2Dv4_iS_Dv8_j=0x851bf0e0;
_Z8shuffle2Dv4_iS_Dv8_m=0x85174920;
_Z8shuffle2Dv4_iS_Dv8_t=0x851aa4a0;
_Z8shuffle2Dv4_jS_Dv16_h=0x85105f20;
_Z8shuffle2Dv4_jS_Dv16_j=0x85121920;
_Z8shuffle2Dv4_jS_Dv16_m=0x850c78a0;
_Z8shuffle2Dv4_jS_Dv16_t=0x851178a0;
_Z8shuffle2Dv4_jS_Dv2_h=0x8529f120;
_Z8shuffle2Dv4_jS_Dv2_j=0x8529f1a0;
_Z8shuffle2Dv4_jS_Dv2_m=0x85283500;
_Z8shuffle2Dv4_jS_Dv2_t=0x8529f220;
_Z8shuffle2Dv4_jS_Dv4_h=0x85271300;
_Z8shuffle2Dv4_jS_Dv4_m=0x85256840;
_Z8shuffle2Dv4_jS_Dv4_t=0x852713c0;
_Z8shuffle2Dv4_jS_Dv8_h=0x851aa660;
_Z8shuffle2Dv4_jS_Dv8_j=0x851bf280;
_Z8shuffle2Dv4_jS_Dv8_m=0x85174b40;
_Z8shuffle2Dv4_jS_Dv8_t=0x851aa820;
_Z8shuffle2Dv4_jS_S_=0x852835a0;
_Z8shuffle2Dv4_lS_Dv16_h=0x850cf540;
_Z8shuffle2Dv4_lS_Dv16_j=0x850df8c0;
_Z8shuffle2Dv4_lS_Dv16_m=0x8509e760;
_Z8shuffle2Dv4_lS_Dv16_t=0x850dfca0;
_Z8shuffle2Dv4_lS_Dv2_h=0x85237da0;
_Z8shuffle2Dv4_lS_Dv2_j=0x85222cc0;
_Z8shuffle2Dv4_lS_Dv2_m=0x85222de0;
_Z8shuffle2Dv4_lS_Dv2_t=0x85237ea0;
_Z8shuffle2Dv4_lS_Dv4_h=0x851bf420;
_Z8shuffle2Dv4_lS_Dv4_j=0x851d7740;
_Z8shuffle2Dv4_lS_Dv4_m=0x85198020;
_Z8shuffle2Dv4_lS_Dv4_t=0x851bf5c0;
_Z8shuffle2Dv4_lS_Dv8_h=0x8514e800;
_Z8shuffle2Dv4_lS_Dv8_j=0x85164880;
_Z8shuffle2Dv4_lS_Dv8_m=0x8512d620;
_Z8shuffle2Dv4_lS_Dv8_t=0x8514ea80;
_Z8shuffle2Dv4_mS_Dv16_h=0x850cf980;
_Z8shuffle2Dv4_mS_Dv16_j=0x850e0080;
_Z8shuffle2Dv4_mS_Dv16_m=0x8509eca0;
_Z8shuffle2Dv4_mS_Dv16_t=0x850e0460;
_Z8shuffle2Dv4_mS_Dv2_h=0x85237fa0;
_Z8shuffle2Dv4_mS_Dv2_j=0x85222f00;
_Z8shuffle2Dv4_mS_Dv2_m=0x85223020;
_Z8shuffle2Dv4_mS_Dv2_t=0x852380a0;
_Z8shuffle2Dv4_mS_Dv4_h=0x851bf760;
_Z8shuffle2Dv4_mS_Dv4_j=0x851d78c0;
_Z8shuffle2Dv4_mS_Dv4_t=0x851bf900;
_Z8shuffle2Dv4_mS_Dv8_h=0x8514ed00;
_Z8shuffle2Dv4_mS_Dv8_j=0x85164ac0;
_Z8shuffle2Dv4_mS_Dv8_m=0x8512d900;
_Z8shuffle2Dv4_mS_Dv8_t=0x8514ef80;
_Z8shuffle2Dv4_mS_S_=0x85198200;
_Z8shuffle2Dv4_sS_Dv16_h=0x85106280;
_Z8shuffle2Dv4_sS_Dv16_j=0x8512dbe0;
_Z8shuffle2Dv4_sS_Dv16_m=0x850c7d00;
_Z8shuffle2Dv4_sS_Dv16_t=0x8512dec0;
_Z8shuffle2Dv4_sS_Dv2_h=0x852be0c0;
_Z8shuffle2Dv4_sS_Dv2_j=0x852be120;
_Z8shuffle2Dv4_sS_Dv2_m=0x8529f2a0;
_Z8shuffle2Dv4_sS_Dv2_t=0x852be180;
_Z8shuffle2Dv4_sS_Dv4_h=0x85283640;
_Z8shuffle2Dv4_sS_Dv4_j=0x8529f320;
_Z8shuffle2Dv4_sS_Dv4_m=0x85223140;
_Z8shuffle2Dv4_sS_Dv4_t=0x852836e0;
_Z8shuffle2Dv4_sS_Dv8_h=0x8520a840;
_Z8shuffle2Dv4_sS_Dv8_j=0x852381a0;
_Z8shuffle2Dv4_sS_Dv8_m=0x851aa9e0;
_Z8shuffle2Dv4_sS_Dv8_t=0x8520a980;
_Z8shuffle2Dv4_tS_Dv16_h=0x851065e0;
_Z8shuffle2Dv4_tS_Dv16_j=0x8512e1a0;
_Z8shuffle2Dv4_tS_Dv16_m=0x850c8160;
_Z8shuffle2Dv4_tS_Dv16_t=0x8512e480;
_Z8shuffle2Dv4_tS_Dv2_h=0x852be1e0;
_Z8shuffle2Dv4_tS_Dv2_j=0x852be240;
_Z8shuffle2Dv4_tS_Dv2_m=0x8529f3a0;
_Z8shuffle2Dv4_tS_Dv2_t=0x852be2a0;
_Z8shuffle2Dv4_tS_Dv4_h=0x85283780;
_Z8shuffle2Dv4_tS_Dv4_j=0x8529f420;
_Z8shuffle2Dv4_tS_Dv4_m=0x85223260;
_Z8shuffle2Dv4_tS_Dv8_h=0x8520aac0;
_Z8shuffle2Dv4_tS_Dv8_j=0x852382a0;
_Z8shuffle2Dv4_tS_Dv8_m=0x851aaba0;
_Z8shuffle2Dv4_tS_Dv8_t=0x8520ac00;
_Z8shuffle2Dv4_tS_S_=0x85283820;
_Z8shuffle2Dv8_cS_Dv16_h=0x85141440;
_Z8shuffle2Dv8_cS_Dv16_j=0x851823a0;
_Z8shuffle2Dv8_cS_Dv16_m=0x850d73e0;
_Z8shuffle2Dv8_cS_Dv16_t=0x8514f200;
_Z8shuffle2Dv8_cS_Dv2_h=0x852be300;
_Z8shuffle2Dv8_cS_Dv2_j=0x852be360;
_Z8shuffle2Dv8_cS_Dv2_m=0x8529f4a0;
_Z8shuffle2Dv8_cS_Dv2_t=0x852be3c0;
_Z8shuffle2Dv8_cS_Dv4_h=0x852838c0;
_Z8shuffle2Dv8_cS_Dv4_j=0x8529f520;
_Z8shuffle2Dv8_cS_Dv4_m=0x85223380;
_Z8shuffle2Dv8_cS_Dv4_t=0x85283960;
_Z8shuffle2Dv8_cS_Dv8_h=0x8520ad40;
_Z8shuffle2Dv8_cS_Dv8_j=0x8520ae80;
_Z8shuffle2Dv8_cS_Dv8_m=0x85164d00;
_Z8shuffle2Dv8_cS_Dv8_t=0x8520afc0;
_Z8shuffle2Dv8_dS_Dv16_h=0x850be500;
_Z8shuffle2Dv8_dS_Dv16_j=0x850b5de0;
_Z8shuffle2Dv8_dS_Dv16_m=0x85086de0;
_Z8shuffle2Dv8_dS_Dv16_t=0x850ac4c0;
_Z8shuffle2Dv8_dS_Dv2_h=0x852383a0;
_Z8shuffle2Dv8_dS_Dv2_j=0x852384a0;
_Z8shuffle2Dv8_dS_Dv2_m=0x852234a0;
_Z8shuffle2Dv8_dS_Dv2_t=0x852385a0;
_Z8shuffle2Dv8_dS_Dv4_h=0x851aad60;
_Z8shuffle2Dv8_dS_Dv4_j=0x851aaf20;
_Z8shuffle2Dv8_dS_Dv4_m=0x85164f40;
_Z8shuffle2Dv8_dS_Dv4_t=0x851ab0e0;
_Z8shuffle2Dv8_dS_Dv8_h=0x851416e0;
_Z8shuffle2Dv8_dS_Dv8_j=0x8514f480;
_Z8shuffle2Dv8_dS_Dv8_m=0x85117bc0;
_Z8shuffle2Dv8_dS_Dv8_t=0x85158b60;
_Z8shuffle2Dv8_fS_Dv16_h=0x850e0840;
_Z8shuffle2Dv8_fS_Dv16_j=0x85106940;
_Z8shuffle2Dv8_fS_Dv16_m=0x850ac9a0;
_Z8shuffle2Dv8_fS_Dv16_t=0x850f51a0;
_Z8shuffle2Dv8_fS_Dv2_h=0x852386a0;
_Z8shuffle2Dv8_fS_Dv2_j=0x852387a0;
_Z8shuffle2Dv8_fS_Dv2_m=0x852235c0;
_Z8shuffle2Dv8_fS_Dv2_t=0x852388a0;
_Z8shuffle2Dv8_fS_Dv4_h=0x8520b100;
_Z8shuffle2Dv8_fS_Dv4_j=0x8520b240;
_Z8shuffle2Dv8_fS_Dv4_m=0x851d7a40;
_Z8shuffle2Dv8_fS_Dv4_t=0x851f3f40;
_Z8shuffle2Dv8_fS_Dv8_h=0x85158dc0;
_Z8shuffle2Dv8_fS_Dv8_j=0x85174d60;
_Z8shuffle2Dv8_fS_Dv8_m=0x85139000;
_Z8shuffle2Dv8_fS_Dv8_t=0x85159020;
_Z8shuffle2Dv8_hS_Dv16_h=0x85141980;
_Z8shuffle2Dv8_hS_Dv16_j=0x851825a0;
_Z8shuffle2Dv8_hS_Dv16_m=0x850d77e0;
_Z8shuffle2Dv8_hS_Dv16_t=0x8514f700;
_Z8shuffle2Dv8_hS_Dv2_h=0x852be420;
_Z8shuffle2Dv8_hS_Dv2_j=0x852be480;
_Z8shuffle2Dv8_hS_Dv2_m=0x8529f5a0;
_Z8shuffle2Dv8_hS_Dv2_t=0x852be4e0;
_Z8shuffle2Dv8_hS_Dv4_h=0x85283a00;
_Z8shuffle2Dv8_hS_Dv4_j=0x8529f620;
_Z8shuffle2Dv8_hS_Dv4_m=0x852236e0;
_Z8shuffle2Dv8_hS_Dv4_t=0x85283aa0;
_Z8shuffle2Dv8_hS_Dv8_j=0x8520b380;
_Z8shuffle2Dv8_hS_Dv8_m=0x85165180;
_Z8shuffle2Dv8_hS_Dv8_t=0x8520b4c0;
_Z8shuffle2Dv8_hS_S_=0x8520b600;
_Z8shuffle2Dv8_iS_Dv16_h=0x850e0c20;
_Z8shuffle2Dv8_iS_Dv16_j=0x85106ca0;
_Z8shuffle2Dv8_iS_Dv16_m=0x850ace80;
_Z8shuffle2Dv8_iS_Dv16_t=0x850f5540;
_Z8shuffle2Dv8_iS_Dv2_h=0x852389a0;
_Z8shuffle2Dv8_iS_Dv2_j=0x85238aa0;
_Z8shuffle2Dv8_iS_Dv2_m=0x85223800;
_Z8shuffle2Dv8_iS_Dv2_t=0x85238ba0;
_Z8shuffle2Dv8_iS_Dv4_h=0x8520b740;
_Z8shuffle2Dv8_iS_Dv4_j=0x8520b880;
_Z8shuffle2Dv8_iS_Dv4_m=0x851d7bc0;
_Z8shuffle2Dv8_iS_Dv4_t=0x851f40a0;
_Z8shuffle2Dv8_iS_Dv8_h=0x85159280;
_Z8shuffle2Dv8_iS_Dv8_j=0x85174f80;
_Z8shuffle2Dv8_iS_Dv8_m=0x851392c0;
_Z8shuffle2Dv8_iS_Dv8_t=0x851594e0;
_Z8shuffle2Dv8_jS_Dv16_h=0x850e1000;
_Z8shuffle2Dv8_jS_Dv16_j=0x85107000;
_Z8shuffle2Dv8_jS_Dv16_m=0x850ad360;
_Z8shuffle2Dv8_jS_Dv16_t=0x850f58e0;
_Z8shuffle2Dv8_jS_Dv2_h=0x85238ca0;
_Z8shuffle2Dv8_jS_Dv2_j=0x85238da0;
_Z8shuffle2Dv8_jS_Dv2_m=0x85223920;
_Z8shuffle2Dv8_jS_Dv2_t=0x85238ea0;
_Z8shuffle2Dv8_jS_Dv4_h=0x8520b9c0;
_Z8shuffle2Dv8_jS_Dv4_j=0x8520bb00;
_Z8shuffle2Dv8_jS_Dv4_m=0x851d7d40;
_Z8shuffle2Dv8_jS_Dv4_t=0x851f4200;
_Z8shuffle2Dv8_jS_Dv8_h=0x85159740;
_Z8shuffle2Dv8_jS_Dv8_m=0x85139580;
_Z8shuffle2Dv8_jS_Dv8_t=0x851599a0;
_Z8shuffle2Dv8_jS_S_=0x851751a0;
_Z8shuffle2Dv8_lS_Dv16_h=0x850be9a0;
_Z8shuffle2Dv8_lS_Dv16_j=0x850b62a0;
_Z8shuffle2Dv8_lS_Dv16_m=0x85087400;
_Z8shuffle2Dv8_lS_Dv16_t=0x850ad840;
_Z8shuffle2Dv8_lS_Dv2_h=0x85238fa0;
_Z8shuffle2Dv8_lS_Dv2_j=0x852390a0;
_Z8shuffle2Dv8_lS_Dv2_m=0x85223a40;
_Z8shuffle2Dv8_lS_Dv2_t=0x852391a0;
_Z8shuffle2Dv8_lS_Dv4_h=0x851ab2a0;
_Z8shuffle2Dv8_lS_Dv4_j=0x851ab460;
_Z8shuffle2Dv8_lS_Dv4_m=0x851653c0;
_Z8shuffle2Dv8_lS_Dv4_t=0x851ab620;
_Z8shuffle2Dv8_lS_Dv8_h=0x85141c20;
_Z8shuffle2Dv8_lS_Dv8_j=0x8514f980;
_Z8shuffle2Dv8_lS_Dv8_m=0x85117ee0;
_Z8shuffle2Dv8_lS_Dv8_t=0x85159c00;
_Z8shuffle2Dv8_mS_Dv16_h=0x850bee40;
_Z8shuffle2Dv8_mS_Dv16_j=0x850b6760;
_Z8shuffle2Dv8_mS_Dv16_m=0x85087a20;
_Z8shuffle2Dv8_mS_Dv16_t=0x850add20;
_Z8shuffle2Dv8_mS_Dv2_h=0x852392a0;
_Z8shuffle2Dv8_mS_Dv2_j=0x852393a0;
_Z8shuffle2Dv8_mS_Dv2_m=0x85223b60;
_Z8shuffle2Dv8_mS_Dv2_t=0x852394a0;
_Z8shuffle2Dv8_mS_Dv4_h=0x851ab7e0;
_Z8shuffle2Dv8_mS_Dv4_j=0x851ab9a0;
_Z8shuffle2Dv8_mS_Dv4_m=0x85165600;
_Z8shuffle2Dv8_mS_Dv4_t=0x851abb60;
_Z8shuffle2Dv8_mS_Dv8_h=0x85141ec0;
_Z8shuffle2Dv8_mS_Dv8_j=0x8514fc00;
_Z8shuffle2Dv8_mS_Dv8_t=0x85159e60;
_Z8shuffle2Dv8_mS_S_=0x85118200;
_Z8shuffle2Dv8_sS_Dv16_h=0x85107360;
_Z8shuffle2Dv8_sS_Dv16_j=0x85121c20;
_Z8shuffle2Dv8_sS_Dv16_m=0x850c85c0;
_Z8shuffle2Dv8_sS_Dv16_t=0x85121f20;
_Z8shuffle2Dv8_sS_Dv2_h=0x85283b40;
_Z8shuffle2Dv8_sS_Dv2_j=0x852be540;
_Z8shuffle2Dv8_sS_Dv2_m=0x85283be0;
_Z8shuffle2Dv8_sS_Dv2_t=0x8529f6a0;
_Z8shuffle2Dv8_sS_Dv4_h=0x85256920;
_Z8shuffle2Dv8_sS_Dv4_j=0x85271480;
_Z8shuffle2Dv8_sS_Dv4_m=0x8520bc40;
_Z8shuffle2Dv8_sS_Dv4_t=0x85256a00;
_Z8shuffle2Dv8_sS_Dv8_h=0x851bfaa0;
_Z8shuffle2Dv8_sS_Dv8_j=0x851f4360;
_Z8shuffle2Dv8_sS_Dv8_m=0x851753c0;
_Z8shuffle2Dv8_sS_Dv8_t=0x851f44c0;
_Z8shuffle2Dv8_tS_Dv16_h=0x851076c0;
_Z8shuffle2Dv8_tS_Dv16_j=0x85122220;
_Z8shuffle2Dv8_tS_Dv16_m=0x850c8a20;
_Z8shuffle2Dv8_tS_Dv16_t=0x85122520;
_Z8shuffle2Dv8_tS_Dv2_h=0x85283c80;
_Z8shuffle2Dv8_tS_Dv2_j=0x852be5a0;
_Z8shuffle2Dv8_tS_Dv2_m=0x85283d20;
_Z8shuffle2Dv8_tS_Dv2_t=0x8529f720;
_Z8shuffle2Dv8_tS_Dv4_h=0x85256ae0;
_Z8shuffle2Dv8_tS_Dv4_j=0x85271540;
_Z8shuffle2Dv8_tS_Dv4_m=0x8520bd80;
_Z8shuffle2Dv8_tS_Dv4_t=0x85256bc0;
_Z8shuffle2Dv8_tS_Dv8_h=0x851bfc40;
_Z8shuffle2Dv8_tS_Dv8_j=0x851f4620;
_Z8shuffle2Dv8_tS_Dv8_m=0x851755e0;
_Z8shuffle2Dv8_tS_S_=0x851f4780;
_Z8upsampleDv16_cDv16_h=0x851bfde0;
_Z8upsampleDv16_hS_=0x851bff80;
_Z8upsampleDv16_iDv16_j=0x851f48e0;
_Z8upsampleDv16_jS_=0x851f4a40;
_Z8upsampleDv16_sDv16_t=0x85223c80;
_Z8upsampleDv16_tS_=0x85223da0;
_Z8upsampleDv2_cDv2_h=0x852d1200;
_Z8upsampleDv2_hS_=0x852d1240;
_Z8upsampleDv2_iDv2_j=0x852e7d60;
_Z8upsampleDv2_jS_=0x852e7d80;
_Z8upsampleDv2_sDv2_t=0x852e7da0;
_Z8upsampleDv2_tS_=0x852e7dc0;
_Z8upsampleDv3_cDv3_h=0x852be600;
_Z8upsampleDv3_hS_=0x852be660;
_Z8upsampleDv3_iDv3_j=0x852be6c0;
_Z8upsampleDv3_jS_=0x852be720;
_Z8upsampleDv3_sDv3_t=0x852d1280;
_Z8upsampleDv3_tS_=0x852d12c0;
_Z8upsampleDv4_cDv4_h=0x852be780;
_Z8upsampleDv4_hS_=0x852be7e0;
_Z8upsampleDv4_iDv4_j=0x852be840;
_Z8upsampleDv4_jS_=0x852be8a0;
_Z8upsampleDv4_sDv4_t=0x852d1300;
_Z8upsampleDv4_tS_=0x852d1340;
_Z8upsampleDv8_cDv8_h=0x85271600;
_Z8upsampleDv8_hS_=0x852716c0;
_Z8upsampleDv8_iDv8_j=0x85256ca0;
_Z8upsampleDv8_jS_=0x85256d80;
_Z8upsampleDv8_sDv8_t=0x85283dc0;
_Z8upsampleDv8_tS_=0x85283e60;
_Z9atomic_orPVU7CLlocalii=0x852e7de0;
_Z9atomic_orPVU7CLlocaljj=0x852e7e00;
_Z9atomic_orPVU8CLglobalii=0x852be900;
_Z9atomic_orPVU8CLglobaljj=0x852be960;
_Z9bitselectddd=0x852e7e40;
_Z9bitselectDv16_cS_S_=0x852d1380;
_Z9bitselectDv16_dS_S_=0x8506c560;
_Z9bitselectDv16_fS_S_=0x850d7be0;
_Z9bitselectDv16_hS_S_=0x852d13c0;
_Z9bitselectDv16_iS_S_=0x8515a0c0;
_Z9bitselectDv16_jS_S_=0x8515a320;
_Z9bitselectDv16_lS_S_=0x850842a0;
_Z9bitselectDv16_mS_S_=0x850848e0;
_Z9bitselectDv16_sS_S_=0x852395a0;
_Z9bitselectDv16_tS_S_=0x852396a0;
_Z9bitselectDv2_cS_S_=0x852be9c0;
_Z9bitselectDv2_dS_S_=0x852d1400;
_Z9bitselectDv2_fS_S_=0x852e7e20;
_Z9bitselectDv2_hS_S_=0x852bea20;
_Z9bitselectDv2_lS_S_=0x852d1440;
_Z9bitselectDv2_mS_S_=0x852d1480;
_Z9bitselectDv3_cS_S_=0x85271780;
_Z9bitselectDv3_dS_S_=0x8520bec0;
_Z9bitselectDv3_fS_S_=0x852d14c0;
_Z9bitselectDv3_hS_S_=0x85271840;
_Z9bitselectDv3_iS_S_=0x852d1500;
_Z9bitselectDv3_jS_S_=0x852d1540;
_Z9bitselectDv3_lS_S_=0x85271900;
_Z9bitselectDv3_mS_S_=0x852719c0;
_Z9bitselectDv3_sS_S_=0x852d1580;
_Z9bitselectDv3_tS_S_=0x852d15c0;
_Z9bitselectDv4_dS_S_=0x851f4ba0;
_Z9bitselectDv4_fS_S_=0x852d1600;
_Z9bitselectDv4_iS_S_=0x852d1640;
_Z9bitselectDv4_jS_S_=0x852d1680;
_Z9bitselectDv4_lS_S_=0x85223ec0;
_Z9bitselectDv4_mS_S_=0x85223fe0;
_Z9bitselectDv8_dS_S_=0x8514fe80;
_Z9bitselectDv8_fS_S_=0x851d7ec0;
_Z9bitselectDv8_iS_S_=0x852397a0;
_Z9bitselectDv8_jS_S_=0x852398a0;
_Z9bitselectDv8_lS_S_=0x851abd20;
_Z9bitselectDv8_mS_S_=0x851abee0;
_Z9bitselectDv8_sS_S_=0x852d16c0;
_Z9bitselectDv8_tS_S_=0x852d1700;
_Z9bitselectfff=0x852e7e60;
_Z9isgreaterDv16_dS_=0x85020640;
_Z9isgreaterDv16_fS_=0x85224100;
_Z9isgreaterDv2_dS_=0x851983e0;
_Z9isgreaterDv2_fS_=0x852e7e80;
_Z9isgreaterDv3_dS_=0x8510fd80;
_Z9isgreaterDv3_fS_=0x852d1740;
_Z9isgreaterDv4_dS_=0x850c8e80;
_Z9isgreaterDv4_fS_=0x852d1780;
_Z9isgreaterDv8_dS_=0x8505e400;
_Z9isgreaterDv8_fS_=0x85271a80;
_Z9nextafterDv16_dS_=0x850b6c20;
_Z9nextafterDv16_fS_=0x85175800;
_Z9nextafterDv2_dS_=0x852bea80;
_Z9nextafterDv2_fS_=0x852d17c0;
_Z9nextafterDv3_dS_=0x85256e60;
_Z9nextafterDv3_fS_=0x8529f7a0;
_Z9nextafterDv4_dS_=0x85224220;
_Z9nextafterDv4_fS_=0x8529f820;
_Z9nextafterDv8_dS_=0x851c0120;
_Z9nextafterDv8_fS_=0x8520c000;
_Z9remainderDv16_dS_=0x850b70e0;
_Z9remainderDv16_fS_=0x85175a20;
_Z9remainderDv2_dS_=0x852beae0;
_Z9remainderDv2_fS_=0x852d1800;
_Z9remainderDv3_dS_=0x85256f40;
_Z9remainderDv3_fS_=0x8529f8a0;
_Z9remainderDv4_dS_=0x85224340;
_Z9remainderDv4_fS_=0x8529f920;
_Z9remainderDv8_dS_=0x851c02c0;
_Z9remainderDv8_fS_=0x8520c140;
-cr
--display_error_number
--diag_suppress=10188
--priority
-lrts6600_elf.lib
--dynamic=exe
--relocatable
--single_data_segment
--no_entry_point
--warn_sections
-x
-heap 0x0

MEMORY
{
    DDR:    o = 0x81000000 l = 0x00280000
    OCMC_RAM3:   o = 0x40500000 l = 0x00100000
    DSP1_L2_SRAM: o = 0x40800000 l = 0x00048000
}

SECTIONS
{
    .llvmir:  type = COPY

    .mem_ddr  > DDR
    .mem_msm  > OCMC_RAM3
    .mem_l2   > DSP1_L2_SRAM

    /*-------------------------------------------------------------------------
    * Deprecated for the .mem versions above. Left in for transition period.
    *------------------------------------------------------------------------*/
    .opencl_local  > OCMC_RAM3
    .opencl_msmc   > DSP1_L2_SRAM

    GROUP
    {
       .rodata:
       .neardata:
       .bss:
    } > DDR

    .text       > DDR
    .cinit      > DDR
    .const      > DDR
    .data       > DDR
    .switch     > DDR
    .far        > DDR
    .fardata    > DDR
    .plt        > DDR
    .sysmem     > DDR
}

--symbol_map=acosd=acos
--symbol_map=acoshd=acosh
--symbol_map=acospid=acospi
--symbol_map=asind=asin
--symbol_map=asinhd=asinh
--symbol_map=asinpid=asinpi
--symbol_map=atand=atan
--symbol_map=atan2d=atan2
--symbol_map=atanhd=atanh
--symbol_map=atanpid=atanpi
--symbol_map=atan2pid=atan2pi
--symbol_map=cbrtd=cbrt
--symbol_map=ceild=ceil
--symbol_map=copysignd=copysign
--symbol_map=cosd=cos
--symbol_map=coshd=cosh
--symbol_map=cospid=cospi
--symbol_map=erfcd=erfc
--symbol_map=erfd=erf
--symbol_map=expd=exp
--symbol_map=exp2d=exp2
--symbol_map=exp10d=exp10
--symbol_map=expm1d=expm1
--symbol_map=fabsd=fabs
--symbol_map=fdimd=fdim
--symbol_map=floord=floor
--symbol_map=fmad=fma
--symbol_map=fmaxd=fmax
--symbol_map=fmind=fmin
--symbol_map=fmodd=fmod
--symbol_map=fractd=fract
--symbol_map=frexpd=frexp
--symbol_map=hypotd=hypot
--symbol_map=ilogbd=ilogb
--symbol_map=ldexpd=ldexp
--symbol_map=lgammad=lgamma
--symbol_map=lgammad_r=lgamma_r
--symbol_map=logd=log
--symbol_map=log2d=log2
--symbol_map=log10d=log10
--symbol_map=log1pd=log1p
--symbol_map=logbd=logb
--symbol_map=madd=mad
--symbol_map=maxmagd=maxmag
--symbol_map=minmagd=minmag
--symbol_map=modfd=modf
--symbol_map=nand=nan
--symbol_map=nextafterd=nextafter
--symbol_map=powd=pow
--symbol_map=pownd=pown
--symbol_map=powrd=powr
--symbol_map=remainderd=remainder
--symbol_map=remquod=remquo
--symbol_map=rintd=rint
--symbol_map=rootnd=rootn
--symbol_map=roundd=round
--symbol_map=rsqrtd=rsqrt
--symbol_map=sind=sin
--symbol_map=sincosd=sincos
--symbol_map=sinhd=sinh
--symbol_map=sinpid=sinpi
--symbol_map=sqrtd=sqrt
--symbol_map=tand=tan
--symbol_map=tanhd=tanh
--symbol_map=tanpid=tanpi
--symbol_map=tgammad=tgamma
--symbol_map=truncd=trunc
--symbol_map=native_cosd=native_cos
--symbol_map=native_divided=native_divide
--symbol_map=native_expd=native_exp
--symbol_map=native_exp2d=native_exp2
--symbol_map=native_exp10d=native_exp10
--symbol_map=native_logd=native_log
--symbol_map=native_log2d=native_log2
--symbol_map=native_log10d=native_log10
--symbol_map=native_powrd=native_powr
--symbol_map=native_recipd=native_recip
--symbol_map=native_rsqrtd=native_rsqrt
--symbol_map=native_sind=native_sin
--symbol_map=native_sqrtd=native_sqrt
--symbol_map=native_tand=native_tan
--symbol_map=isinfd=isinf
--symbol_map=isnand=isnan
--symbol_map=__isfinited=__isfinite
--symbol_map=__isnormald=__isnormal
--symbol_map=__ocl_cache_l1d_off=__cache_l1d_none
--symbol_map=__ocl_cache_l1d_std=__cache_l1d_all
--symbol_map=__ocl_cache_l1d_half=__cache_l1d_16k
--symbol_map=__ocl_cache_l1d_wbinvall=__cache_l1d_flush
