******************************************************************************
               TMS320C6x Linker PC v7.4.2                      
******************************************************************************
>> Linked Mon Nov 04 22:36:18 2013

OUTPUT FILE NAME:   <exp2dp_66_LE_COFF.out>
ENTRY POINT SYMBOL: "_c_int00"  address: 00838780


MEMORY CONFIGURATION

         name            origin    length      used     unused   attr    fill
----------------------  --------  ---------  --------  --------  ----  --------
  L2SRAM                00800000   00080000  000428ea  0003d716  RW X
  MSMCSRAM              0c000000   00200000  00000000  00200000  RW X


SECTION ALLOCATION MAP

 output                                  attributes/
section   page    origin      length       input sections
--------  ----  ----------  ----------   ----------------
.pinit     0    00800000    00000000     UNINITIALIZED

.neardata 
*          0    00800000    00000000     UNINITIALIZED

.rodata    0    00800000    00000000     UNINITIALIZED

.bss       0    00800000    00000000     UNINITIALIZED

xdc.meta   0    00800000    00000000     COPY SECTION

.far       0    00800000    000244d0     UNINITIALIZED
                  00800000    000238e0     drvdp.obj (.far)
                  008238e0    00000648     exp2dp_d.obj (.far)
                  00823f28    00000324     rts6600_coff.lib : defs.obj (.far)
                  0082424c    00000004                      : errno.obj (.far)
                  00824250    0000011c                      : lowlev.obj (.far)
                  0082436c    00000004                      : fopen.obj (.far)
                  00824370    000000a0     tables.obj (.far)
                  00824410    00000060     driver.obj (.far)
                  00824470    00000030     rts6600_coff.lib : exp.obj (.far)
                  008244a0    0000000c                      : exit.obj (.far)
                  008244ac    00000008                      : _lock.obj (.far)
                  008244b4    00000008                      : memory.obj (.far)
                  008244bc    00000004     --HOLE--
                  008244c0    00000008                      : rand.obj (.far)
                  008244c8    00000008                      : trgdrv.obj (.far)

.stack     0    008244d0    0000c000     UNINITIALIZED
                  008244d0    00000008     rts6600_coff.lib : boot.obj (.stack)
                  008244d8    0000bff8     --HOLE--

.text      0    008304e0    00008ae0     
                  008304e0    000016a0     exp2dp_d.obj (.text)
                  00831b80    00000660     driver.obj (.text)
                  008321e0    000005c0     rts6600_coff.lib : divd.obj (.text:__divd)
                  008327a0    00000560                      : _printfi.obj (.text:__getarg_diouxp)
                  00832d00    00000440                      : _printfi.obj (.text:__printfi)
                  00833140    00000440                      : _printfi.obj (.text:__setfield)
                  00833580    000003a0                      : fputs.obj (.text:_fputs)
                  00833920    00000360     drvdp.obj (.text)
                  00833c80    00000320     rts6600_coff.lib : _printfi.obj (.text:__pproc_fge)
                  00833fa0    000002c0                      : _printfi.obj (.text:__pproc_fwp)
                  00834260    00000280                      : _printfi.obj (.text:_ecvt)
                  008344e0    00000280                      : _printfi.obj (.text:_fcvt)
                  00834760    00000280                      : memory.obj (.text:_free)
                  008349e0    00000240                      : imath64.obj (.text:__divull)
                  00834c20    00000240                      : _printfi.obj (.text:__pconv_e)
                  00834e60    00000240                      : _printfi.obj (.text:__pproc_diouxp)
                  008350a0    00000220                      : _printfi.obj (.text:__pproc_str)
                  008352c0    00000220                      : fputc.obj (.text:_fputc)
                  008354e0    00000200                      : _printfi.obj (.text:__pconv_g)
                  008356e0    00000200                      : setvbuf.obj (.text:_setvbuf)
                  008358e0    000001e0                      : exp.obj (.text:_exp)
                  00835ac0    000001c0                      : _printfi.obj (.text:__mcpy)
                  00835c80    000001c0                      : fopen.obj (.text:__openfile)
                  00835e40    000001a0                      : trgdrv.obj (.text:_HOSTrename)
                  00835fe0    000001a0                      : imath40.obj (.text:__divul)
                  00836180    00000180                      : memory.obj (.text:_malloc)
                  00836300    00000180                      : lowlev.obj (.text:_open)
                  00836480    00000160                      : ldexp.obj (.text:_ldexp)
                  008365e0    00000140                      : _printfi.obj (.text:__pproc_fflags)
                  00836720    00000140                      : lowlev.obj (.text:_getdevice)
                  00836860    00000120                      : fclose.obj (.text:__closefile)
                  00836980    00000120                      : _printfi.obj (.text:__ltostr)
                  00836aa0    00000120                      : fopen.obj (.text:__search_fp)
                  00836bc0    00000120                      : fseek.obj (.text:_fseek)
                  00836ce0    00000100                      : trgdrv.obj (.text:_HOSTlseek)
                  00836de0    00000100                      : fixdlli.obj (.text:__fixdlli)
                  00836ee0    00000100                      : _io_perm.obj (.text:__wrt_ok)
                  00836fe0    00000100                      : fprintf.obj (.text:_fprintf)
                  008370e0    000000e0                      : trgdrv.obj (.text:_HOSTopen)
                  008371c0    000000e0                      : _printfi.obj (.text:__div)
                  008372a0    000000e0                      : fltllif.obj (.text:__fltllif)
                  00837380    000000e0                      : atoi.obj (.text:_atoi)
                  00837460    000000e0                      : lowlev.obj (.text:_close)
                  00837540    000000e0                      : ltoa.obj (.text:_ltoa)
                  00837620    000000e0                      : memset.obj (.text:_memset)
                  00837700    000000e0                      : printf.obj (.text:_printf)
                  008377e0    000000c0                      : trgdrv.obj (.text:_HOSTread)
                  008378a0    000000c0                      : trgdrv.obj (.text:_HOSTunlink)
                  00837960    000000c0                      : trgdrv.obj (.text:_HOSTwrite)
                  00837a20    000000c0                      : autoinit.obj (.text:__auto_init)
                  00837ae0    000000c0                      : divu.obj (.text:__divu)
                  00837ba0    000000c0                      : fflush.obj (.text:__doflush)
                  00837c60    000000c0                      : exit.obj (.text:_exit)
                  00837d20    000000a0                      : trgdrv.obj (.text:_HOSTclose)
                  00837dc0    000000a0                      : fopen.obj (.text:__cleanup)
                  00837e60    000000a0                      : imath40.obj (.text:__divli)
                  00837f00    000000a0                      : _printfi.obj (.text:__ecpy)
                  00837fa0    000000a0                      : _printfi.obj (.text:__fcpy)
                  00838040    000000a0                      : fixdli.obj (.text:__fixdli)
                  008380e0    000000a0                      : _printfi.obj (.text:__pconv_f)
                  00838180    000000a0                      : cpy_tbl.obj (.text:_copy_in)
                  00838220    000000a0                      : lowlev.obj (.text:_finddevice)
                  008382c0    000000a0                      : lowlev.obj (.text:_lseek)
                  00838360    000000a0                      : memcpy64.obj (.text:_memcpy)
                  00838400    000000a0                      : memory.obj (.text:_minsert)
                  008384a0    000000a0                      : modf.obj (.text:_modf)
                  00838540    000000a0                      : memory.obj (.text:_mremove)
                  008385e0    000000a0                      : lowlev.obj (.text:_write)
                  00838680    00000080                      : fltlid.obj (.text:__fltlid)
                  00838700    00000080                      : llshift.obj (.text:__llshl)
                  00838780    00000080                      : boot.obj (.text:_c_int00)
                  00838800    00000080                      : rand.obj (.text:_rand)
                  00838880    00000080                      : trgmsg.obj (.text:_readmsg)
                  00838900    00000080                      : lowlev.obj (.text:_unlink)
                  00838980    00000060                      : cpp_init.obj (.text:___TI_cpp_init)
                  008389e0    00000060                      : frcmpyd_div.obj (.text:__frcmpyd_div)
                  00838a40    00000060                      : llshift.obj (.text:__llshru)
                  00838aa0    00000060                      : imath64.obj (.text:__subcull)
                  00838b00    00000060                      : fclose.obj (.text:_fclose)
                  00838b60    00000060                      : fopen.obj (.text:_fopen)
                  00838bc0    00000060                      : memccpy.obj (.text:_memccpy)
                  00838c20    00000060                      : rand.obj (.text:_srand)
                  00838c80    00000060                      : lowlev.obj (.text:_tabinit)
                  00838ce0    00000060                      : trgmsg.obj (.text:_writemsg)
                  00838d40    00000040                      : isinf.obj (.text:___isinf)
                  00838d80    00000040                      : _printfi.obj (.text:___isnan)
                  00838dc0    00000040                      : args_main.obj (.text:__args_main)
                  00838e00    00000040                      : imath40.obj (.text:__remli)
                  00838e40    00000020                      : negll.obj (.text:__negll)
                  00838e60    00000020                      : _lock.obj (.text:__nop)
                  00838e80    00000020                      : fprintf.obj (.text:__outc)
                  00838ea0    00000020                      : printf.obj (.text:__outc)
                  00838ec0    00000020                      : fprintf.obj (.text:__outs)
                  00838ee0    00000020                      : printf.obj (.text:__outs)
                  00838f00    00000020                      : trunc.obj (.text:__trunc)
                  00838f20    00000020                      : exit.obj (.text:_abort)
                  00838f40    00000020                      : exp2.obj (.text:_exp2)
                  00838f60    00000020                      : remove.obj (.text:_remove)
                  00838f80    00000010     mathlib.a66 : exp2dp_v.o66 ($Tramp$S$$_exp2dp_v)
                  00838f90    00000010                 : exp2dp_c.o66 ($Tramp$S$$_exp2dp_c)
                  00838fa0    00000010                 : exp2dp.o66 ($Tramp$S$$_exp2dp)
                  00838fb0    00000010     --HOLE-- [fill = 0]

.sysmem    0    00838fc0    00008000     UNINITIALIZED
                  00838fc0    00000008     rts6600_coff.lib : memory.obj (.sysmem)
                  00838fc8    00007ff8     --HOLE--

.cinit     0    00840fc0    000008f4     
                  00840fc0    00000650     exp2dp_d.obj (.cinit)
                  00841610    000000c0     tables.obj (.cinit)
                  008416d0    0000005c     rts6600_coff.lib : defs.obj (.cinit)
                  0084172c    00000004     --HOLE-- [fill = 0]
                  00841730    0000005c                      : lowlev.obj (.cinit)
                  0084178c    00000004     --HOLE-- [fill = 0]
                  00841790    00000040                      : exp.obj (.cinit)
                  008417d0    00000030     drvdp.obj (.cinit)
                  00841800    0000002c     rts6600_coff.lib : exit.obj (.cinit)
                  0084182c    00000004     --HOLE-- [fill = 0]
                  00841830    0000002c                      : memory.obj (.cinit)
                  0084185c    00000004     --HOLE-- [fill = 0]
                  00841860    0000001c                      : _lock.obj (.cinit)
                  0084187c    00000004     --HOLE-- [fill = 0]
                  00841880    00000010                      : rand.obj (.cinit)
                  00841890    0000000c                      : errno.obj (.cinit)
                  0084189c    00000004     --HOLE-- [fill = 0]
                  008418a0    0000000c                      : fopen.obj (.cinit)
                  008418ac    00000004     --HOLE-- [fill = 0]
                  008418b0    00000004     (.pad.cinit) [fill = 0]

.const     0    008418b8    00000386     
                  008418b8    00000203     driver.obj (.const:.string)
                  00841abb    00000002     rts6600_coff.lib : fputs.obj (.const:.string)
                  00841abd    00000003     --HOLE-- [fill = 0]
                  00841ac0    00000101                      : ctype.obj (.const:.string:__ctypes_)
                  00841bc1    0000005a     exp2dp_d.obj (.const:.string)
                  00841c1b    00000023     rts6600_coff.lib : _printfi.obj (.const:.string)

.cio       0    00841c40    00000120     UNINITIALIZED
                  00841c40    00000120     rts6600_coff.lib : trgmsg.obj (.cio)

.data      0    00841d60    000000c0     
                  00841d60    000000c0     mathlib.a66 : exp2dp.o66 (.data)

.kernel_vec 
*          0    00841e20    00000720     
                  00841e20    00000720     mathlib.a66 : exp2dp_v.o66 (.text:optvec)

.kernel_asm 
*          0    00842540    00000220     
                  00842540    000001a0     mathlib.a66 : exp2dp.o66 (.text:optasm)
                  008426e0    00000080                 : divdp.o66 (.text:optasm)

.kernel_ci 
*          0    00842760    000001a0     
                  00842760    000001a0     mathlib.a66 : exp2dp_c.o66 (.text:optci)


FAR CALL TRAMPOLINES

callee name               trampoline name
   callee addr  tramp addr   call addr  call info
--------------  -----------  ---------  ----------------
$.text:optvec:mathlib.a66<exp2dp_v.o66>$0x0  $Tramp$S$$_exp2dp_v
   00841e20     00838f80     008308e4   exp2dp_d.obj (.text)
                             00830d78   exp2dp_d.obj (.text)
                             008311c4   exp2dp_d.obj (.text)
                             00831974   exp2dp_d.obj (.text)
$.text:optci:mathlib.a66<exp2dp_c.o66>$0x0  $Tramp$S$$_exp2dp_c
   00842760     00838f90     008305a8   exp2dp_d.obj (.text)
                             008305d4   exp2dp_d.obj (.text)
                             00830be0   exp2dp_d.obj (.text)
                             00831020   exp2dp_d.obj (.text)
                             00831884   exp2dp_d.obj (.text)
$.text:optasm:mathlib.a66<exp2dp.o66>$0x168  $Tramp$S$$_exp2dp
   008426a8     00838fa0     00830558   exp2dp_d.obj (.text)
                             00830588   exp2dp_d.obj (.text)
                             00830bc0   exp2dp_d.obj (.text)
                             00831000   exp2dp_d.obj (.text)
                             00831780   exp2dp_d.obj (.text)

[3 trampolines]
[14 trampoline calls]


GLOBAL SYMBOLS: SORTED ALPHABETICALLY BY Name 

address    name
--------   ----
00800000   $bss
00800000   .bss
ffffffff   .data
ffffffff   .text
00838f20   C$$EXIT
00838d38   C$$IO$$
00841d88   OneExp2
00837d20   _HOSTclose
00836ce0   _HOSTlseek
008370e0   _HOSTopen
008377e0   _HOSTread
00835e40   _HOSTrename
008378a0   _HOSTunlink
00837960   _HOSTwrite
008243f0   _V
00841c40   __CIOBUF_
008304d0   __STACK_END
0000c000   __STACK_SIZE
00008000   __SYSMEM_SIZE
00000001   __TI_args_main
00838980   ___TI_cpp_init
008244a8   ___TI_enable_exit_profile_output
ffffffff   ___TI_pprof_out_hndl
ffffffff   ___TI_prof_data_size
ffffffff   ___TI_prof_data_start
ffffffff   ___binit__
00800000   ___bss__
ffffffff   ___c_args__
00840fc0   ___cinit__
ffffffff   ___data__
ffffffff   ___edata__
00800000   ___end__
ffffffff   ___etext__
00838d40   ___isinf
ffffffff   ___pinit__
ffffffff   ___text__
00838dc0   __args_main
00837a20   __auto_init
00837ae0   __c6xabi_divu
00837dc0   __cleanup
008244a0   __cleanup_ptr
00836860   __closefile
00841ac0   __ctypes_
008321e0   __divd
00837e60   __divli
00837ae0   __divu
00835fe0   __divul
008349e0   __divull
00837ba0   __doflush
008244a4   __dtors_ptr
00838040   __fixdli
00836de0   __fixdlli
00838680   __fltlid
008372a0   __fltllif
008389e0   __frcmpyd_div
00824248   __ft_end
00823f28   __ftable
00838700   __llshl
00838a40   __llshru
008244ac   __lock
00838e40   __negll
00838e60   __nop
00832d00   __printfi
00838e00   __remli
008244d0   __stack
00838aa0   __subcull
00838fc0   __sys_memory
00824108   __tmpnams
00838f00   __trunc
008244b0   __unlock
00836ee0   __wrt_ok
008238e0   _a
00800000   _a_ext
00807d00   _a_sc
00838f20   _abort
0082446c   _all_pass
00000200   _argsize
00837380   _atoi
00803e80   _b_ext
00808020   _b_sc
00838780   _c_int00
00837460   _close
00838180   _copy_in
00824430   _cycle_counts
008426e0   _divdp
0083212c   _driver_init
0082424c   _errno
00837c60   _exit
008358e0   _exp
00838f40   _exp2
008426a8   _exp2dp
00842760   _exp2dp_c
00841e20   _exp2dp_v
00838b00   _fclose
00824458   _fcn_pass
00838b60   _fopen
00824414   _fp
00836fe0   _fprintf
008352c0   _fputc
00833580   _fputs
00834760   _free
00836bc0   _fseek
00833c18   _gimme_random
008238d8   _input
0081bbd8   _input_data
00833948   _isequal
008243d0   _jTable
008243b0   _kTable
00000220   _kernel_asm_size
000001a0   _kernel_ci_size
00000720   _kernel_vec_size
00836480   _ldexp
00824370   _logtable
008382c0   _lseek
00837540   _ltoa
008304e0   _main
00836180   _malloc
00838bc0   _memccpy
00838360   _memcpy
00837620   _memset
008384a0   _modf
00836300   _open
0081bbc0   _output
00808340   _output_data
0083204c   _print_memory_results
00831f2c   _print_profile_results
00831b80   _print_test_results
00837700   _printf
008352c0   _putc
00838800   _rand
00838880   _readmsg
00838f60   _remove
00824410   _seed
008356e0   _setvbuf
00838c20   _srand
00824428   _t_offset
00824418   _t_start
00824420   _t_stop
00838900   _unlink
008385e0   _write
00838ce0   _writemsg
ffffffff   binit
00840fc0   cinit
00000386   const_size
008418b8   const_start
ffffffff   edata
00800000   end
ffffffff   etext
ffffffff   pinit


GLOBAL SYMBOLS: SORTED BY Symbol Address 

address    name
--------   ----
00000001   __TI_args_main
000001a0   _kernel_ci_size
00000200   _argsize
00000220   _kernel_asm_size
00000386   const_size
00000720   _kernel_vec_size
00008000   __SYSMEM_SIZE
0000c000   __STACK_SIZE
00800000   $bss
00800000   .bss
00800000   ___bss__
00800000   ___end__
00800000   _a_ext
00800000   end
00803e80   _b_ext
00807d00   _a_sc
00808020   _b_sc
00808340   _output_data
0081bbc0   _output
0081bbd8   _input_data
008238d8   _input
008238e0   _a
00823f28   __ftable
00824108   __tmpnams
00824248   __ft_end
0082424c   _errno
00824370   _logtable
008243b0   _kTable
008243d0   _jTable
008243f0   _V
00824410   _seed
00824414   _fp
00824418   _t_start
00824420   _t_stop
00824428   _t_offset
00824430   _cycle_counts
00824458   _fcn_pass
0082446c   _all_pass
008244a0   __cleanup_ptr
008244a4   __dtors_ptr
008244a8   ___TI_enable_exit_profile_output
008244ac   __lock
008244b0   __unlock
008244d0   __stack
008304d0   __STACK_END
008304e0   _main
00831b80   _print_test_results
00831f2c   _print_profile_results
0083204c   _print_memory_results
0083212c   _driver_init
008321e0   __divd
00832d00   __printfi
00833580   _fputs
00833948   _isequal
00833c18   _gimme_random
00834760   _free
008349e0   __divull
008352c0   _fputc
008352c0   _putc
008356e0   _setvbuf
008358e0   _exp
00835e40   _HOSTrename
00835fe0   __divul
00836180   _malloc
00836300   _open
00836480   _ldexp
00836860   __closefile
00836bc0   _fseek
00836ce0   _HOSTlseek
00836de0   __fixdlli
00836ee0   __wrt_ok
00836fe0   _fprintf
008370e0   _HOSTopen
008372a0   __fltllif
00837380   _atoi
00837460   _close
00837540   _ltoa
00837620   _memset
00837700   _printf
008377e0   _HOSTread
008378a0   _HOSTunlink
00837960   _HOSTwrite
00837a20   __auto_init
00837ae0   __c6xabi_divu
00837ae0   __divu
00837ba0   __doflush
00837c60   _exit
00837d20   _HOSTclose
00837dc0   __cleanup
00837e60   __divli
00838040   __fixdli
00838180   _copy_in
008382c0   _lseek
00838360   _memcpy
008384a0   _modf
008385e0   _write
00838680   __fltlid
00838700   __llshl
00838780   _c_int00
00838800   _rand
00838880   _readmsg
00838900   _unlink
00838980   ___TI_cpp_init
008389e0   __frcmpyd_div
00838a40   __llshru
00838aa0   __subcull
00838b00   _fclose
00838b60   _fopen
00838bc0   _memccpy
00838c20   _srand
00838ce0   _writemsg
00838d38   C$$IO$$
00838d40   ___isinf
00838dc0   __args_main
00838e00   __remli
00838e40   __negll
00838e60   __nop
00838f00   __trunc
00838f20   C$$EXIT
00838f20   _abort
00838f40   _exp2
00838f60   _remove
00838fc0   __sys_memory
00840fc0   ___cinit__
00840fc0   cinit
008418b8   const_start
00841ac0   __ctypes_
00841c40   __CIOBUF_
00841d88   OneExp2
00841e20   _exp2dp_v
008426a8   _exp2dp
008426e0   _divdp
00842760   _exp2dp_c
ffffffff   .data
ffffffff   .text
ffffffff   ___TI_pprof_out_hndl
ffffffff   ___TI_prof_data_size
ffffffff   ___TI_prof_data_start
ffffffff   ___binit__
ffffffff   ___c_args__
ffffffff   ___data__
ffffffff   ___edata__
ffffffff   ___etext__
ffffffff   ___pinit__
ffffffff   ___text__
ffffffff   binit
ffffffff   edata
ffffffff   etext
ffffffff   pinit

[149 symbols]
